
Jigu-GPIO.elf:     file format elf32-littlearm

Sections:
Idx Name          Size      VMA       LMA       File off  Algn
  0 .isr_vector   0000018c  08000000  08000000  00001000  2**0
                  CONTENTS, ALLOC, LOAD, READONLY, DATA
  1 .text         0000b670  08000190  08000190  00001190  2**4
                  CONTENTS, ALLOC, LOAD, READONLY, CODE
  2 .rodata       00000d48  0800b800  0800b800  0000c800  2**3
                  CONTENTS, ALLOC, LOAD, READONLY, DATA
  3 .ARM.extab    00000000  0800c548  0800c548  0000e210  2**0
                  CONTENTS
  4 .ARM          00000008  0800c548  0800c548  0000d548  2**2
                  CONTENTS, ALLOC, LOAD, READONLY, DATA
  5 .preinit_array 00000000  0800c550  0800c550  0000e210  2**0
                  CONTENTS, ALLOC, LOAD, DATA
  6 .init_array   00000004  0800c550  0800c550  0000d550  2**2
                  CONTENTS, ALLOC, LOAD, DATA
  7 .fini_array   00000004  0800c554  0800c554  0000d554  2**2
                  CONTENTS, ALLOC, LOAD, DATA
  8 .data         00000210  20000000  0800c558  0000e000  2**2
                  CONTENTS, ALLOC, LOAD, DATA
  9 .bss          000006b0  20000210  0800c768  0000e210  2**2
                  ALLOC
 10 ._user_heap_stack 00000600  200008c0  0800c768  0000e8c0  2**0
                  ALLOC
 11 .ARM.attributes 00000030  00000000  00000000  0000e210  2**0
                  CONTENTS, READONLY
 12 .comment      00000086  00000000  00000000  0000e240  2**0
                  CONTENTS, READONLY
 13 .debug_frame  0000156c  00000000  00000000  0000e2c8  2**2
                  CONTENTS, READONLY, DEBUGGING, OCTETS

Disassembly of section .text:

08000190 <__do_global_dtors_aux>:
 8000190:	b510      	push	{r4, lr}
 8000192:	4c05      	ldr	r4, [pc, #20]	@ (80001a8 <__do_global_dtors_aux+0x18>)
 8000194:	7823      	ldrb	r3, [r4, #0]
 8000196:	b933      	cbnz	r3, 80001a6 <__do_global_dtors_aux+0x16>
 8000198:	4b04      	ldr	r3, [pc, #16]	@ (80001ac <__do_global_dtors_aux+0x1c>)
 800019a:	b113      	cbz	r3, 80001a2 <__do_global_dtors_aux+0x12>
 800019c:	4804      	ldr	r0, [pc, #16]	@ (80001b0 <__do_global_dtors_aux+0x20>)
 800019e:	f3af 8000 	nop.w
 80001a2:	2301      	movs	r3, #1
 80001a4:	7023      	strb	r3, [r4, #0]
 80001a6:	bd10      	pop	{r4, pc}
 80001a8:	20000210 	.word	0x20000210
 80001ac:	00000000 	.word	0x00000000
 80001b0:	0800b7e8 	.word	0x0800b7e8

080001b4 <frame_dummy>:
 80001b4:	b508      	push	{r3, lr}
 80001b6:	4b03      	ldr	r3, [pc, #12]	@ (80001c4 <frame_dummy+0x10>)
 80001b8:	b11b      	cbz	r3, 80001c2 <frame_dummy+0xe>
 80001ba:	4903      	ldr	r1, [pc, #12]	@ (80001c8 <frame_dummy+0x14>)
 80001bc:	4803      	ldr	r0, [pc, #12]	@ (80001cc <frame_dummy+0x18>)
 80001be:	f3af 8000 	nop.w
 80001c2:	bd08      	pop	{r3, pc}
 80001c4:	00000000 	.word	0x00000000
 80001c8:	20000214 	.word	0x20000214
 80001cc:	0800b7e8 	.word	0x0800b7e8

080001d0 <strlen>:
 80001d0:	4603      	mov	r3, r0
 80001d2:	f813 2b01 	ldrb.w	r2, [r3], #1
 80001d6:	2a00      	cmp	r2, #0
 80001d8:	d1fb      	bne.n	80001d2 <strlen+0x2>
 80001da:	1a18      	subs	r0, r3, r0
 80001dc:	3801      	subs	r0, #1
 80001de:	4770      	bx	lr

080001e0 <memchr>:
 80001e0:	f001 01ff 	and.w	r1, r1, #255	@ 0xff
 80001e4:	2a10      	cmp	r2, #16
 80001e6:	db2b      	blt.n	8000240 <memchr+0x60>
 80001e8:	f010 0f07 	tst.w	r0, #7
 80001ec:	d008      	beq.n	8000200 <memchr+0x20>
 80001ee:	f810 3b01 	ldrb.w	r3, [r0], #1
 80001f2:	3a01      	subs	r2, #1
 80001f4:	428b      	cmp	r3, r1
 80001f6:	d02d      	beq.n	8000254 <memchr+0x74>
 80001f8:	f010 0f07 	tst.w	r0, #7
 80001fc:	b342      	cbz	r2, 8000250 <memchr+0x70>
 80001fe:	d1f6      	bne.n	80001ee <memchr+0xe>
 8000200:	b4f0      	push	{r4, r5, r6, r7}
 8000202:	ea41 2101 	orr.w	r1, r1, r1, lsl #8
 8000206:	ea41 4101 	orr.w	r1, r1, r1, lsl #16
 800020a:	f022 0407 	bic.w	r4, r2, #7
 800020e:	f07f 0700 	mvns.w	r7, #0
 8000212:	2300      	movs	r3, #0
 8000214:	e8f0 5602 	ldrd	r5, r6, [r0], #8
 8000218:	3c08      	subs	r4, #8
 800021a:	ea85 0501 	eor.w	r5, r5, r1
 800021e:	ea86 0601 	eor.w	r6, r6, r1
 8000222:	fa85 f547 	uadd8	r5, r5, r7
 8000226:	faa3 f587 	sel	r5, r3, r7
 800022a:	fa86 f647 	uadd8	r6, r6, r7
 800022e:	faa5 f687 	sel	r6, r5, r7
 8000232:	b98e      	cbnz	r6, 8000258 <memchr+0x78>
 8000234:	d1ee      	bne.n	8000214 <memchr+0x34>
 8000236:	bcf0      	pop	{r4, r5, r6, r7}
 8000238:	f001 01ff 	and.w	r1, r1, #255	@ 0xff
 800023c:	f002 0207 	and.w	r2, r2, #7
 8000240:	b132      	cbz	r2, 8000250 <memchr+0x70>
 8000242:	f810 3b01 	ldrb.w	r3, [r0], #1
 8000246:	3a01      	subs	r2, #1
 8000248:	ea83 0301 	eor.w	r3, r3, r1
 800024c:	b113      	cbz	r3, 8000254 <memchr+0x74>
 800024e:	d1f8      	bne.n	8000242 <memchr+0x62>
 8000250:	2000      	movs	r0, #0
 8000252:	4770      	bx	lr
 8000254:	3801      	subs	r0, #1
 8000256:	4770      	bx	lr
 8000258:	2d00      	cmp	r5, #0
 800025a:	bf06      	itte	eq
 800025c:	4635      	moveq	r5, r6
 800025e:	3803      	subeq	r0, #3
 8000260:	3807      	subne	r0, #7
 8000262:	f015 0f01 	tst.w	r5, #1
 8000266:	d107      	bne.n	8000278 <memchr+0x98>
 8000268:	3001      	adds	r0, #1
 800026a:	f415 7f80 	tst.w	r5, #256	@ 0x100
 800026e:	bf02      	ittt	eq
 8000270:	3001      	addeq	r0, #1
 8000272:	f415 3fc0 	tsteq.w	r5, #98304	@ 0x18000
 8000276:	3001      	addeq	r0, #1
 8000278:	bcf0      	pop	{r4, r5, r6, r7}
 800027a:	3801      	subs	r0, #1
 800027c:	4770      	bx	lr
 800027e:	bf00      	nop

08000280 <__aeabi_drsub>:
 8000280:	f081 4100 	eor.w	r1, r1, #2147483648	@ 0x80000000
 8000284:	e002      	b.n	800028c <__adddf3>
 8000286:	bf00      	nop

08000288 <__aeabi_dsub>:
 8000288:	f083 4300 	eor.w	r3, r3, #2147483648	@ 0x80000000

0800028c <__adddf3>:
 800028c:	b530      	push	{r4, r5, lr}
 800028e:	ea4f 0441 	mov.w	r4, r1, lsl #1
 8000292:	ea4f 0543 	mov.w	r5, r3, lsl #1
 8000296:	ea94 0f05 	teq	r4, r5
 800029a:	bf08      	it	eq
 800029c:	ea90 0f02 	teqeq	r0, r2
 80002a0:	bf1f      	itttt	ne
 80002a2:	ea54 0c00 	orrsne.w	ip, r4, r0
 80002a6:	ea55 0c02 	orrsne.w	ip, r5, r2
 80002aa:	ea7f 5c64 	mvnsne.w	ip, r4, asr #21
 80002ae:	ea7f 5c65 	mvnsne.w	ip, r5, asr #21
 80002b2:	f000 80e2 	beq.w	800047a <__adddf3+0x1ee>
 80002b6:	ea4f 5454 	mov.w	r4, r4, lsr #21
 80002ba:	ebd4 5555 	rsbs	r5, r4, r5, lsr #21
 80002be:	bfb8      	it	lt
 80002c0:	426d      	neglt	r5, r5
 80002c2:	dd0c      	ble.n	80002de <__adddf3+0x52>
 80002c4:	442c      	add	r4, r5
 80002c6:	ea80 0202 	eor.w	r2, r0, r2
 80002ca:	ea81 0303 	eor.w	r3, r1, r3
 80002ce:	ea82 0000 	eor.w	r0, r2, r0
 80002d2:	ea83 0101 	eor.w	r1, r3, r1
 80002d6:	ea80 0202 	eor.w	r2, r0, r2
 80002da:	ea81 0303 	eor.w	r3, r1, r3
 80002de:	2d36      	cmp	r5, #54	@ 0x36
 80002e0:	bf88      	it	hi
 80002e2:	bd30      	pophi	{r4, r5, pc}
 80002e4:	f011 4f00 	tst.w	r1, #2147483648	@ 0x80000000
 80002e8:	ea4f 3101 	mov.w	r1, r1, lsl #12
 80002ec:	f44f 1c80 	mov.w	ip, #1048576	@ 0x100000
 80002f0:	ea4c 3111 	orr.w	r1, ip, r1, lsr #12
 80002f4:	d002      	beq.n	80002fc <__adddf3+0x70>
 80002f6:	4240      	negs	r0, r0
 80002f8:	eb61 0141 	sbc.w	r1, r1, r1, lsl #1
 80002fc:	f013 4f00 	tst.w	r3, #2147483648	@ 0x80000000
 8000300:	ea4f 3303 	mov.w	r3, r3, lsl #12
 8000304:	ea4c 3313 	orr.w	r3, ip, r3, lsr #12
 8000308:	d002      	beq.n	8000310 <__adddf3+0x84>
 800030a:	4252      	negs	r2, r2
 800030c:	eb63 0343 	sbc.w	r3, r3, r3, lsl #1
 8000310:	ea94 0f05 	teq	r4, r5
 8000314:	f000 80a7 	beq.w	8000466 <__adddf3+0x1da>
 8000318:	f1a4 0401 	sub.w	r4, r4, #1
 800031c:	f1d5 0e20 	rsbs	lr, r5, #32
 8000320:	db0d      	blt.n	800033e <__adddf3+0xb2>
 8000322:	fa02 fc0e 	lsl.w	ip, r2, lr
 8000326:	fa22 f205 	lsr.w	r2, r2, r5
 800032a:	1880      	adds	r0, r0, r2
 800032c:	f141 0100 	adc.w	r1, r1, #0
 8000330:	fa03 f20e 	lsl.w	r2, r3, lr
 8000334:	1880      	adds	r0, r0, r2
 8000336:	fa43 f305 	asr.w	r3, r3, r5
 800033a:	4159      	adcs	r1, r3
 800033c:	e00e      	b.n	800035c <__adddf3+0xd0>
 800033e:	f1a5 0520 	sub.w	r5, r5, #32
 8000342:	f10e 0e20 	add.w	lr, lr, #32
 8000346:	2a01      	cmp	r2, #1
 8000348:	fa03 fc0e 	lsl.w	ip, r3, lr
 800034c:	bf28      	it	cs
 800034e:	f04c 0c02 	orrcs.w	ip, ip, #2
 8000352:	fa43 f305 	asr.w	r3, r3, r5
 8000356:	18c0      	adds	r0, r0, r3
 8000358:	eb51 71e3 	adcs.w	r1, r1, r3, asr #31
 800035c:	f001 4500 	and.w	r5, r1, #2147483648	@ 0x80000000
 8000360:	d507      	bpl.n	8000372 <__adddf3+0xe6>
 8000362:	f04f 0e00 	mov.w	lr, #0
 8000366:	f1dc 0c00 	rsbs	ip, ip, #0
 800036a:	eb7e 0000 	sbcs.w	r0, lr, r0
 800036e:	eb6e 0101 	sbc.w	r1, lr, r1
 8000372:	f5b1 1f80 	cmp.w	r1, #1048576	@ 0x100000
 8000376:	d31b      	bcc.n	80003b0 <__adddf3+0x124>
 8000378:	f5b1 1f00 	cmp.w	r1, #2097152	@ 0x200000
 800037c:	d30c      	bcc.n	8000398 <__adddf3+0x10c>
 800037e:	0849      	lsrs	r1, r1, #1
 8000380:	ea5f 0030 	movs.w	r0, r0, rrx
 8000384:	ea4f 0c3c 	mov.w	ip, ip, rrx
 8000388:	f104 0401 	add.w	r4, r4, #1
 800038c:	ea4f 5244 	mov.w	r2, r4, lsl #21
 8000390:	f512 0f80 	cmn.w	r2, #4194304	@ 0x400000
 8000394:	f080 809a 	bcs.w	80004cc <__adddf3+0x240>
 8000398:	f1bc 4f00 	cmp.w	ip, #2147483648	@ 0x80000000
 800039c:	bf08      	it	eq
 800039e:	ea5f 0c50 	movseq.w	ip, r0, lsr #1
 80003a2:	f150 0000 	adcs.w	r0, r0, #0
 80003a6:	eb41 5104 	adc.w	r1, r1, r4, lsl #20
 80003aa:	ea41 0105 	orr.w	r1, r1, r5
 80003ae:	bd30      	pop	{r4, r5, pc}
 80003b0:	ea5f 0c4c 	movs.w	ip, ip, lsl #1
 80003b4:	4140      	adcs	r0, r0
 80003b6:	eb41 0101 	adc.w	r1, r1, r1
 80003ba:	3c01      	subs	r4, #1
 80003bc:	bf28      	it	cs
 80003be:	f5b1 1f80 	cmpcs.w	r1, #1048576	@ 0x100000
 80003c2:	d2e9      	bcs.n	8000398 <__adddf3+0x10c>
 80003c4:	f091 0f00 	teq	r1, #0
 80003c8:	bf04      	itt	eq
 80003ca:	4601      	moveq	r1, r0
 80003cc:	2000      	moveq	r0, #0
 80003ce:	fab1 f381 	clz	r3, r1
 80003d2:	bf08      	it	eq
 80003d4:	3320      	addeq	r3, #32
 80003d6:	f1a3 030b 	sub.w	r3, r3, #11
 80003da:	f1b3 0220 	subs.w	r2, r3, #32
 80003de:	da0c      	bge.n	80003fa <__adddf3+0x16e>
 80003e0:	320c      	adds	r2, #12
 80003e2:	dd08      	ble.n	80003f6 <__adddf3+0x16a>
 80003e4:	f102 0c14 	add.w	ip, r2, #20
 80003e8:	f1c2 020c 	rsb	r2, r2, #12
 80003ec:	fa01 f00c 	lsl.w	r0, r1, ip
 80003f0:	fa21 f102 	lsr.w	r1, r1, r2
 80003f4:	e00c      	b.n	8000410 <__adddf3+0x184>
 80003f6:	f102 0214 	add.w	r2, r2, #20
 80003fa:	bfd8      	it	le
 80003fc:	f1c2 0c20 	rsble	ip, r2, #32
 8000400:	fa01 f102 	lsl.w	r1, r1, r2
 8000404:	fa20 fc0c 	lsr.w	ip, r0, ip
 8000408:	bfdc      	itt	le
 800040a:	ea41 010c 	orrle.w	r1, r1, ip
 800040e:	4090      	lslle	r0, r2
 8000410:	1ae4      	subs	r4, r4, r3
 8000412:	bfa2      	ittt	ge
 8000414:	eb01 5104 	addge.w	r1, r1, r4, lsl #20
 8000418:	4329      	orrge	r1, r5
 800041a:	bd30      	popge	{r4, r5, pc}
 800041c:	ea6f 0404 	mvn.w	r4, r4
 8000420:	3c1f      	subs	r4, #31
 8000422:	da1c      	bge.n	800045e <__adddf3+0x1d2>
 8000424:	340c      	adds	r4, #12
 8000426:	dc0e      	bgt.n	8000446 <__adddf3+0x1ba>
 8000428:	f104 0414 	add.w	r4, r4, #20
 800042c:	f1c4 0220 	rsb	r2, r4, #32
 8000430:	fa20 f004 	lsr.w	r0, r0, r4
 8000434:	fa01 f302 	lsl.w	r3, r1, r2
 8000438:	ea40 0003 	orr.w	r0, r0, r3
 800043c:	fa21 f304 	lsr.w	r3, r1, r4
 8000440:	ea45 0103 	orr.w	r1, r5, r3
 8000444:	bd30      	pop	{r4, r5, pc}
 8000446:	f1c4 040c 	rsb	r4, r4, #12
 800044a:	f1c4 0220 	rsb	r2, r4, #32
 800044e:	fa20 f002 	lsr.w	r0, r0, r2
 8000452:	fa01 f304 	lsl.w	r3, r1, r4
 8000456:	ea40 0003 	orr.w	r0, r0, r3
 800045a:	4629      	mov	r1, r5
 800045c:	bd30      	pop	{r4, r5, pc}
 800045e:	fa21 f004 	lsr.w	r0, r1, r4
 8000462:	4629      	mov	r1, r5
 8000464:	bd30      	pop	{r4, r5, pc}
 8000466:	f094 0f00 	teq	r4, #0
 800046a:	f483 1380 	eor.w	r3, r3, #1048576	@ 0x100000
 800046e:	bf06      	itte	eq
 8000470:	f481 1180 	eoreq.w	r1, r1, #1048576	@ 0x100000
 8000474:	3401      	addeq	r4, #1
 8000476:	3d01      	subne	r5, #1
 8000478:	e74e      	b.n	8000318 <__adddf3+0x8c>
 800047a:	ea7f 5c64 	mvns.w	ip, r4, asr #21
 800047e:	bf18      	it	ne
 8000480:	ea7f 5c65 	mvnsne.w	ip, r5, asr #21
 8000484:	d029      	beq.n	80004da <__adddf3+0x24e>
 8000486:	ea94 0f05 	teq	r4, r5
 800048a:	bf08      	it	eq
 800048c:	ea90 0f02 	teqeq	r0, r2
 8000490:	d005      	beq.n	800049e <__adddf3+0x212>
 8000492:	ea54 0c00 	orrs.w	ip, r4, r0
 8000496:	bf04      	itt	eq
 8000498:	4619      	moveq	r1, r3
 800049a:	4610      	moveq	r0, r2
 800049c:	bd30      	pop	{r4, r5, pc}
 800049e:	ea91 0f03 	teq	r1, r3
 80004a2:	bf1e      	ittt	ne
 80004a4:	2100      	movne	r1, #0
 80004a6:	2000      	movne	r0, #0
 80004a8:	bd30      	popne	{r4, r5, pc}
 80004aa:	ea5f 5c54 	movs.w	ip, r4, lsr #21
 80004ae:	d105      	bne.n	80004bc <__adddf3+0x230>
 80004b0:	0040      	lsls	r0, r0, #1
 80004b2:	4149      	adcs	r1, r1
 80004b4:	bf28      	it	cs
 80004b6:	f041 4100 	orrcs.w	r1, r1, #2147483648	@ 0x80000000
 80004ba:	bd30      	pop	{r4, r5, pc}
 80004bc:	f514 0480 	adds.w	r4, r4, #4194304	@ 0x400000
 80004c0:	bf3c      	itt	cc
 80004c2:	f501 1180 	addcc.w	r1, r1, #1048576	@ 0x100000
 80004c6:	bd30      	popcc	{r4, r5, pc}
 80004c8:	f001 4500 	and.w	r5, r1, #2147483648	@ 0x80000000
 80004cc:	f045 41fe 	orr.w	r1, r5, #2130706432	@ 0x7f000000
 80004d0:	f441 0170 	orr.w	r1, r1, #15728640	@ 0xf00000
 80004d4:	f04f 0000 	mov.w	r0, #0
 80004d8:	bd30      	pop	{r4, r5, pc}
 80004da:	ea7f 5c64 	mvns.w	ip, r4, asr #21
 80004de:	bf1a      	itte	ne
 80004e0:	4619      	movne	r1, r3
 80004e2:	4610      	movne	r0, r2
 80004e4:	ea7f 5c65 	mvnseq.w	ip, r5, asr #21
 80004e8:	bf1c      	itt	ne
 80004ea:	460b      	movne	r3, r1
 80004ec:	4602      	movne	r2, r0
 80004ee:	ea50 3401 	orrs.w	r4, r0, r1, lsl #12
 80004f2:	bf06      	itte	eq
 80004f4:	ea52 3503 	orrseq.w	r5, r2, r3, lsl #12
 80004f8:	ea91 0f03 	teqeq	r1, r3
 80004fc:	f441 2100 	orrne.w	r1, r1, #524288	@ 0x80000
 8000500:	bd30      	pop	{r4, r5, pc}
 8000502:	bf00      	nop

08000504 <__aeabi_ui2d>:
 8000504:	f090 0f00 	teq	r0, #0
 8000508:	bf04      	itt	eq
 800050a:	2100      	moveq	r1, #0
 800050c:	4770      	bxeq	lr
 800050e:	b530      	push	{r4, r5, lr}
 8000510:	f44f 6480 	mov.w	r4, #1024	@ 0x400
 8000514:	f104 0432 	add.w	r4, r4, #50	@ 0x32
 8000518:	f04f 0500 	mov.w	r5, #0
 800051c:	f04f 0100 	mov.w	r1, #0
 8000520:	e750      	b.n	80003c4 <__adddf3+0x138>
 8000522:	bf00      	nop

08000524 <__aeabi_i2d>:
 8000524:	f090 0f00 	teq	r0, #0
 8000528:	bf04      	itt	eq
 800052a:	2100      	moveq	r1, #0
 800052c:	4770      	bxeq	lr
 800052e:	b530      	push	{r4, r5, lr}
 8000530:	f44f 6480 	mov.w	r4, #1024	@ 0x400
 8000534:	f104 0432 	add.w	r4, r4, #50	@ 0x32
 8000538:	f010 4500 	ands.w	r5, r0, #2147483648	@ 0x80000000
 800053c:	bf48      	it	mi
 800053e:	4240      	negmi	r0, r0
 8000540:	f04f 0100 	mov.w	r1, #0
 8000544:	e73e      	b.n	80003c4 <__adddf3+0x138>
 8000546:	bf00      	nop

08000548 <__aeabi_f2d>:
 8000548:	0042      	lsls	r2, r0, #1
 800054a:	ea4f 01e2 	mov.w	r1, r2, asr #3
 800054e:	ea4f 0131 	mov.w	r1, r1, rrx
 8000552:	ea4f 7002 	mov.w	r0, r2, lsl #28
 8000556:	bf1f      	itttt	ne
 8000558:	f012 437f 	andsne.w	r3, r2, #4278190080	@ 0xff000000
 800055c:	f093 4f7f 	teqne	r3, #4278190080	@ 0xff000000
 8000560:	f081 5160 	eorne.w	r1, r1, #939524096	@ 0x38000000
 8000564:	4770      	bxne	lr
 8000566:	f032 427f 	bics.w	r2, r2, #4278190080	@ 0xff000000
 800056a:	bf08      	it	eq
 800056c:	4770      	bxeq	lr
 800056e:	f093 4f7f 	teq	r3, #4278190080	@ 0xff000000
 8000572:	bf04      	itt	eq
 8000574:	f441 2100 	orreq.w	r1, r1, #524288	@ 0x80000
 8000578:	4770      	bxeq	lr
 800057a:	b530      	push	{r4, r5, lr}
 800057c:	f44f 7460 	mov.w	r4, #896	@ 0x380
 8000580:	f001 4500 	and.w	r5, r1, #2147483648	@ 0x80000000
 8000584:	f021 4100 	bic.w	r1, r1, #2147483648	@ 0x80000000
 8000588:	e71c      	b.n	80003c4 <__adddf3+0x138>
 800058a:	bf00      	nop

0800058c <__aeabi_ul2d>:
 800058c:	ea50 0201 	orrs.w	r2, r0, r1
 8000590:	bf08      	it	eq
 8000592:	4770      	bxeq	lr
 8000594:	b530      	push	{r4, r5, lr}
 8000596:	f04f 0500 	mov.w	r5, #0
 800059a:	e00a      	b.n	80005b2 <__aeabi_l2d+0x16>

0800059c <__aeabi_l2d>:
 800059c:	ea50 0201 	orrs.w	r2, r0, r1
 80005a0:	bf08      	it	eq
 80005a2:	4770      	bxeq	lr
 80005a4:	b530      	push	{r4, r5, lr}
 80005a6:	f011 4500 	ands.w	r5, r1, #2147483648	@ 0x80000000
 80005aa:	d502      	bpl.n	80005b2 <__aeabi_l2d+0x16>
 80005ac:	4240      	negs	r0, r0
 80005ae:	eb61 0141 	sbc.w	r1, r1, r1, lsl #1
 80005b2:	f44f 6480 	mov.w	r4, #1024	@ 0x400
 80005b6:	f104 0432 	add.w	r4, r4, #50	@ 0x32
 80005ba:	ea5f 5c91 	movs.w	ip, r1, lsr #22
 80005be:	f43f aed8 	beq.w	8000372 <__adddf3+0xe6>
 80005c2:	f04f 0203 	mov.w	r2, #3
 80005c6:	ea5f 0cdc 	movs.w	ip, ip, lsr #3
 80005ca:	bf18      	it	ne
 80005cc:	3203      	addne	r2, #3
 80005ce:	ea5f 0cdc 	movs.w	ip, ip, lsr #3
 80005d2:	bf18      	it	ne
 80005d4:	3203      	addne	r2, #3
 80005d6:	eb02 02dc 	add.w	r2, r2, ip, lsr #3
 80005da:	f1c2 0320 	rsb	r3, r2, #32
 80005de:	fa00 fc03 	lsl.w	ip, r0, r3
 80005e2:	fa20 f002 	lsr.w	r0, r0, r2
 80005e6:	fa01 fe03 	lsl.w	lr, r1, r3
 80005ea:	ea40 000e 	orr.w	r0, r0, lr
 80005ee:	fa21 f102 	lsr.w	r1, r1, r2
 80005f2:	4414      	add	r4, r2
 80005f4:	e6bd      	b.n	8000372 <__adddf3+0xe6>
 80005f6:	bf00      	nop

080005f8 <__aeabi_dmul>:
 80005f8:	b570      	push	{r4, r5, r6, lr}
 80005fa:	f04f 0cff 	mov.w	ip, #255	@ 0xff
 80005fe:	f44c 6ce0 	orr.w	ip, ip, #1792	@ 0x700
 8000602:	ea1c 5411 	ands.w	r4, ip, r1, lsr #20
 8000606:	bf1d      	ittte	ne
 8000608:	ea1c 5513 	andsne.w	r5, ip, r3, lsr #20
 800060c:	ea94 0f0c 	teqne	r4, ip
 8000610:	ea95 0f0c 	teqne	r5, ip
 8000614:	f000 f8de 	bleq	80007d4 <__aeabi_dmul+0x1dc>
 8000618:	442c      	add	r4, r5
 800061a:	ea81 0603 	eor.w	r6, r1, r3
 800061e:	ea21 514c 	bic.w	r1, r1, ip, lsl #21
 8000622:	ea23 534c 	bic.w	r3, r3, ip, lsl #21
 8000626:	ea50 3501 	orrs.w	r5, r0, r1, lsl #12
 800062a:	bf18      	it	ne
 800062c:	ea52 3503 	orrsne.w	r5, r2, r3, lsl #12
 8000630:	f441 1180 	orr.w	r1, r1, #1048576	@ 0x100000
 8000634:	f443 1380 	orr.w	r3, r3, #1048576	@ 0x100000
 8000638:	d038      	beq.n	80006ac <__aeabi_dmul+0xb4>
 800063a:	fba0 ce02 	umull	ip, lr, r0, r2
 800063e:	f04f 0500 	mov.w	r5, #0
 8000642:	fbe1 e502 	umlal	lr, r5, r1, r2
 8000646:	f006 4200 	and.w	r2, r6, #2147483648	@ 0x80000000
 800064a:	fbe0 e503 	umlal	lr, r5, r0, r3
 800064e:	f04f 0600 	mov.w	r6, #0
 8000652:	fbe1 5603 	umlal	r5, r6, r1, r3
 8000656:	f09c 0f00 	teq	ip, #0
 800065a:	bf18      	it	ne
 800065c:	f04e 0e01 	orrne.w	lr, lr, #1
 8000660:	f1a4 04ff 	sub.w	r4, r4, #255	@ 0xff
 8000664:	f5b6 7f00 	cmp.w	r6, #512	@ 0x200
 8000668:	f564 7440 	sbc.w	r4, r4, #768	@ 0x300
 800066c:	d204      	bcs.n	8000678 <__aeabi_dmul+0x80>
 800066e:	ea5f 0e4e 	movs.w	lr, lr, lsl #1
 8000672:	416d      	adcs	r5, r5
 8000674:	eb46 0606 	adc.w	r6, r6, r6
 8000678:	ea42 21c6 	orr.w	r1, r2, r6, lsl #11
 800067c:	ea41 5155 	orr.w	r1, r1, r5, lsr #21
 8000680:	ea4f 20c5 	mov.w	r0, r5, lsl #11
 8000684:	ea40 505e 	orr.w	r0, r0, lr, lsr #21
 8000688:	ea4f 2ece 	mov.w	lr, lr, lsl #11
 800068c:	f1b4 0cfd 	subs.w	ip, r4, #253	@ 0xfd
 8000690:	bf88      	it	hi
 8000692:	f5bc 6fe0 	cmphi.w	ip, #1792	@ 0x700
 8000696:	d81e      	bhi.n	80006d6 <__aeabi_dmul+0xde>
 8000698:	f1be 4f00 	cmp.w	lr, #2147483648	@ 0x80000000
 800069c:	bf08      	it	eq
 800069e:	ea5f 0e50 	movseq.w	lr, r0, lsr #1
 80006a2:	f150 0000 	adcs.w	r0, r0, #0
 80006a6:	eb41 5104 	adc.w	r1, r1, r4, lsl #20
 80006aa:	bd70      	pop	{r4, r5, r6, pc}
 80006ac:	f006 4600 	and.w	r6, r6, #2147483648	@ 0x80000000
 80006b0:	ea46 0101 	orr.w	r1, r6, r1
 80006b4:	ea40 0002 	orr.w	r0, r0, r2
 80006b8:	ea81 0103 	eor.w	r1, r1, r3
 80006bc:	ebb4 045c 	subs.w	r4, r4, ip, lsr #1
 80006c0:	bfc2      	ittt	gt
 80006c2:	ebd4 050c 	rsbsgt	r5, r4, ip
 80006c6:	ea41 5104 	orrgt.w	r1, r1, r4, lsl #20
 80006ca:	bd70      	popgt	{r4, r5, r6, pc}
 80006cc:	f441 1180 	orr.w	r1, r1, #1048576	@ 0x100000
 80006d0:	f04f 0e00 	mov.w	lr, #0
 80006d4:	3c01      	subs	r4, #1
 80006d6:	f300 80ab 	bgt.w	8000830 <__aeabi_dmul+0x238>
 80006da:	f114 0f36 	cmn.w	r4, #54	@ 0x36
 80006de:	bfde      	ittt	le
 80006e0:	2000      	movle	r0, #0
 80006e2:	f001 4100 	andle.w	r1, r1, #2147483648	@ 0x80000000
 80006e6:	bd70      	pople	{r4, r5, r6, pc}
 80006e8:	f1c4 0400 	rsb	r4, r4, #0
 80006ec:	3c20      	subs	r4, #32
 80006ee:	da35      	bge.n	800075c <__aeabi_dmul+0x164>
 80006f0:	340c      	adds	r4, #12
 80006f2:	dc1b      	bgt.n	800072c <__aeabi_dmul+0x134>
 80006f4:	f104 0414 	add.w	r4, r4, #20
 80006f8:	f1c4 0520 	rsb	r5, r4, #32
 80006fc:	fa00 f305 	lsl.w	r3, r0, r5
 8000700:	fa20 f004 	lsr.w	r0, r0, r4
 8000704:	fa01 f205 	lsl.w	r2, r1, r5
 8000708:	ea40 0002 	orr.w	r0, r0, r2
 800070c:	f001 4200 	and.w	r2, r1, #2147483648	@ 0x80000000
 8000710:	f021 4100 	bic.w	r1, r1, #2147483648	@ 0x80000000
 8000714:	eb10 70d3 	adds.w	r0, r0, r3, lsr #31
 8000718:	fa21 f604 	lsr.w	r6, r1, r4
 800071c:	eb42 0106 	adc.w	r1, r2, r6
 8000720:	ea5e 0e43 	orrs.w	lr, lr, r3, lsl #1
 8000724:	bf08      	it	eq
 8000726:	ea20 70d3 	biceq.w	r0, r0, r3, lsr #31
 800072a:	bd70      	pop	{r4, r5, r6, pc}
 800072c:	f1c4 040c 	rsb	r4, r4, #12
 8000730:	f1c4 0520 	rsb	r5, r4, #32
 8000734:	fa00 f304 	lsl.w	r3, r0, r4
 8000738:	fa20 f005 	lsr.w	r0, r0, r5
 800073c:	fa01 f204 	lsl.w	r2, r1, r4
 8000740:	ea40 0002 	orr.w	r0, r0, r2
 8000744:	f001 4100 	and.w	r1, r1, #2147483648	@ 0x80000000
 8000748:	eb10 70d3 	adds.w	r0, r0, r3, lsr #31
 800074c:	f141 0100 	adc.w	r1, r1, #0
 8000750:	ea5e 0e43 	orrs.w	lr, lr, r3, lsl #1
 8000754:	bf08      	it	eq
 8000756:	ea20 70d3 	biceq.w	r0, r0, r3, lsr #31
 800075a:	bd70      	pop	{r4, r5, r6, pc}
 800075c:	f1c4 0520 	rsb	r5, r4, #32
 8000760:	fa00 f205 	lsl.w	r2, r0, r5
 8000764:	ea4e 0e02 	orr.w	lr, lr, r2
 8000768:	fa20 f304 	lsr.w	r3, r0, r4
 800076c:	fa01 f205 	lsl.w	r2, r1, r5
 8000770:	ea43 0302 	orr.w	r3, r3, r2
 8000774:	fa21 f004 	lsr.w	r0, r1, r4
 8000778:	f001 4100 	and.w	r1, r1, #2147483648	@ 0x80000000
 800077c:	fa21 f204 	lsr.w	r2, r1, r4
 8000780:	ea20 0002 	bic.w	r0, r0, r2
 8000784:	eb00 70d3 	add.w	r0, r0, r3, lsr #31
 8000788:	ea5e 0e43 	orrs.w	lr, lr, r3, lsl #1
 800078c:	bf08      	it	eq
 800078e:	ea20 70d3 	biceq.w	r0, r0, r3, lsr #31
 8000792:	bd70      	pop	{r4, r5, r6, pc}
 8000794:	f094 0f00 	teq	r4, #0
 8000798:	d10f      	bne.n	80007ba <__aeabi_dmul+0x1c2>
 800079a:	f001 4600 	and.w	r6, r1, #2147483648	@ 0x80000000
 800079e:	0040      	lsls	r0, r0, #1
 80007a0:	eb41 0101 	adc.w	r1, r1, r1
 80007a4:	f411 1f80 	tst.w	r1, #1048576	@ 0x100000
 80007a8:	bf08      	it	eq
 80007aa:	3c01      	subeq	r4, #1
 80007ac:	d0f7      	beq.n	800079e <__aeabi_dmul+0x1a6>
 80007ae:	ea41 0106 	orr.w	r1, r1, r6
 80007b2:	f095 0f00 	teq	r5, #0
 80007b6:	bf18      	it	ne
 80007b8:	4770      	bxne	lr
 80007ba:	f003 4600 	and.w	r6, r3, #2147483648	@ 0x80000000
 80007be:	0052      	lsls	r2, r2, #1
 80007c0:	eb43 0303 	adc.w	r3, r3, r3
 80007c4:	f413 1f80 	tst.w	r3, #1048576	@ 0x100000
 80007c8:	bf08      	it	eq
 80007ca:	3d01      	subeq	r5, #1
 80007cc:	d0f7      	beq.n	80007be <__aeabi_dmul+0x1c6>
 80007ce:	ea43 0306 	orr.w	r3, r3, r6
 80007d2:	4770      	bx	lr
 80007d4:	ea94 0f0c 	teq	r4, ip
 80007d8:	ea0c 5513 	and.w	r5, ip, r3, lsr #20
 80007dc:	bf18      	it	ne
 80007de:	ea95 0f0c 	teqne	r5, ip
 80007e2:	d00c      	beq.n	80007fe <__aeabi_dmul+0x206>
 80007e4:	ea50 0641 	orrs.w	r6, r0, r1, lsl #1
 80007e8:	bf18      	it	ne
 80007ea:	ea52 0643 	orrsne.w	r6, r2, r3, lsl #1
 80007ee:	d1d1      	bne.n	8000794 <__aeabi_dmul+0x19c>
 80007f0:	ea81 0103 	eor.w	r1, r1, r3
 80007f4:	f001 4100 	and.w	r1, r1, #2147483648	@ 0x80000000
 80007f8:	f04f 0000 	mov.w	r0, #0
 80007fc:	bd70      	pop	{r4, r5, r6, pc}
 80007fe:	ea50 0641 	orrs.w	r6, r0, r1, lsl #1
 8000802:	bf06      	itte	eq
 8000804:	4610      	moveq	r0, r2
 8000806:	4619      	moveq	r1, r3
 8000808:	ea52 0643 	orrsne.w	r6, r2, r3, lsl #1
 800080c:	d019      	beq.n	8000842 <__aeabi_dmul+0x24a>
 800080e:	ea94 0f0c 	teq	r4, ip
 8000812:	d102      	bne.n	800081a <__aeabi_dmul+0x222>
 8000814:	ea50 3601 	orrs.w	r6, r0, r1, lsl #12
 8000818:	d113      	bne.n	8000842 <__aeabi_dmul+0x24a>
 800081a:	ea95 0f0c 	teq	r5, ip
 800081e:	d105      	bne.n	800082c <__aeabi_dmul+0x234>
 8000820:	ea52 3603 	orrs.w	r6, r2, r3, lsl #12
 8000824:	bf1c      	itt	ne
 8000826:	4610      	movne	r0, r2
 8000828:	4619      	movne	r1, r3
 800082a:	d10a      	bne.n	8000842 <__aeabi_dmul+0x24a>
 800082c:	ea81 0103 	eor.w	r1, r1, r3
 8000830:	f001 4100 	and.w	r1, r1, #2147483648	@ 0x80000000
 8000834:	f041 41fe 	orr.w	r1, r1, #2130706432	@ 0x7f000000
 8000838:	f441 0170 	orr.w	r1, r1, #15728640	@ 0xf00000
 800083c:	f04f 0000 	mov.w	r0, #0
 8000840:	bd70      	pop	{r4, r5, r6, pc}
 8000842:	f041 41fe 	orr.w	r1, r1, #2130706432	@ 0x7f000000
 8000846:	f441 0178 	orr.w	r1, r1, #16252928	@ 0xf80000
 800084a:	bd70      	pop	{r4, r5, r6, pc}

0800084c <__aeabi_ddiv>:
 800084c:	b570      	push	{r4, r5, r6, lr}
 800084e:	f04f 0cff 	mov.w	ip, #255	@ 0xff
 8000852:	f44c 6ce0 	orr.w	ip, ip, #1792	@ 0x700
 8000856:	ea1c 5411 	ands.w	r4, ip, r1, lsr #20
 800085a:	bf1d      	ittte	ne
 800085c:	ea1c 5513 	andsne.w	r5, ip, r3, lsr #20
 8000860:	ea94 0f0c 	teqne	r4, ip
 8000864:	ea95 0f0c 	teqne	r5, ip
 8000868:	f000 f8a7 	bleq	80009ba <__aeabi_ddiv+0x16e>
 800086c:	eba4 0405 	sub.w	r4, r4, r5
 8000870:	ea81 0e03 	eor.w	lr, r1, r3
 8000874:	ea52 3503 	orrs.w	r5, r2, r3, lsl #12
 8000878:	ea4f 3101 	mov.w	r1, r1, lsl #12
 800087c:	f000 8088 	beq.w	8000990 <__aeabi_ddiv+0x144>
 8000880:	ea4f 3303 	mov.w	r3, r3, lsl #12
 8000884:	f04f 5580 	mov.w	r5, #268435456	@ 0x10000000
 8000888:	ea45 1313 	orr.w	r3, r5, r3, lsr #4
 800088c:	ea43 6312 	orr.w	r3, r3, r2, lsr #24
 8000890:	ea4f 2202 	mov.w	r2, r2, lsl #8
 8000894:	ea45 1511 	orr.w	r5, r5, r1, lsr #4
 8000898:	ea45 6510 	orr.w	r5, r5, r0, lsr #24
 800089c:	ea4f 2600 	mov.w	r6, r0, lsl #8
 80008a0:	f00e 4100 	and.w	r1, lr, #2147483648	@ 0x80000000
 80008a4:	429d      	cmp	r5, r3
 80008a6:	bf08      	it	eq
 80008a8:	4296      	cmpeq	r6, r2
 80008aa:	f144 04fd 	adc.w	r4, r4, #253	@ 0xfd
 80008ae:	f504 7440 	add.w	r4, r4, #768	@ 0x300
 80008b2:	d202      	bcs.n	80008ba <__aeabi_ddiv+0x6e>
 80008b4:	085b      	lsrs	r3, r3, #1
 80008b6:	ea4f 0232 	mov.w	r2, r2, rrx
 80008ba:	1ab6      	subs	r6, r6, r2
 80008bc:	eb65 0503 	sbc.w	r5, r5, r3
 80008c0:	085b      	lsrs	r3, r3, #1
 80008c2:	ea4f 0232 	mov.w	r2, r2, rrx
 80008c6:	f44f 1080 	mov.w	r0, #1048576	@ 0x100000
 80008ca:	f44f 2c00 	mov.w	ip, #524288	@ 0x80000
 80008ce:	ebb6 0e02 	subs.w	lr, r6, r2
 80008d2:	eb75 0e03 	sbcs.w	lr, r5, r3
 80008d6:	bf22      	ittt	cs
 80008d8:	1ab6      	subcs	r6, r6, r2
 80008da:	4675      	movcs	r5, lr
 80008dc:	ea40 000c 	orrcs.w	r0, r0, ip
 80008e0:	085b      	lsrs	r3, r3, #1
 80008e2:	ea4f 0232 	mov.w	r2, r2, rrx
 80008e6:	ebb6 0e02 	subs.w	lr, r6, r2
 80008ea:	eb75 0e03 	sbcs.w	lr, r5, r3
 80008ee:	bf22      	ittt	cs
 80008f0:	1ab6      	subcs	r6, r6, r2
 80008f2:	4675      	movcs	r5, lr
 80008f4:	ea40 005c 	orrcs.w	r0, r0, ip, lsr #1
 80008f8:	085b      	lsrs	r3, r3, #1
 80008fa:	ea4f 0232 	mov.w	r2, r2, rrx
 80008fe:	ebb6 0e02 	subs.w	lr, r6, r2
 8000902:	eb75 0e03 	sbcs.w	lr, r5, r3
 8000906:	bf22      	ittt	cs
 8000908:	1ab6      	subcs	r6, r6, r2
 800090a:	4675      	movcs	r5, lr
 800090c:	ea40 009c 	orrcs.w	r0, r0, ip, lsr #2
 8000910:	085b      	lsrs	r3, r3, #1
 8000912:	ea4f 0232 	mov.w	r2, r2, rrx
 8000916:	ebb6 0e02 	subs.w	lr, r6, r2
 800091a:	eb75 0e03 	sbcs.w	lr, r5, r3
 800091e:	bf22      	ittt	cs
 8000920:	1ab6      	subcs	r6, r6, r2
 8000922:	4675      	movcs	r5, lr
 8000924:	ea40 00dc 	orrcs.w	r0, r0, ip, lsr #3
 8000928:	ea55 0e06 	orrs.w	lr, r5, r6
 800092c:	d018      	beq.n	8000960 <__aeabi_ddiv+0x114>
 800092e:	ea4f 1505 	mov.w	r5, r5, lsl #4
 8000932:	ea45 7516 	orr.w	r5, r5, r6, lsr #28
 8000936:	ea4f 1606 	mov.w	r6, r6, lsl #4
 800093a:	ea4f 03c3 	mov.w	r3, r3, lsl #3
 800093e:	ea43 7352 	orr.w	r3, r3, r2, lsr #29
 8000942:	ea4f 02c2 	mov.w	r2, r2, lsl #3
 8000946:	ea5f 1c1c 	movs.w	ip, ip, lsr #4
 800094a:	d1c0      	bne.n	80008ce <__aeabi_ddiv+0x82>
 800094c:	f411 1f80 	tst.w	r1, #1048576	@ 0x100000
 8000950:	d10b      	bne.n	800096a <__aeabi_ddiv+0x11e>
 8000952:	ea41 0100 	orr.w	r1, r1, r0
 8000956:	f04f 0000 	mov.w	r0, #0
 800095a:	f04f 4c00 	mov.w	ip, #2147483648	@ 0x80000000
 800095e:	e7b6      	b.n	80008ce <__aeabi_ddiv+0x82>
 8000960:	f411 1f80 	tst.w	r1, #1048576	@ 0x100000
 8000964:	bf04      	itt	eq
 8000966:	4301      	orreq	r1, r0
 8000968:	2000      	moveq	r0, #0
 800096a:	f1b4 0cfd 	subs.w	ip, r4, #253	@ 0xfd
 800096e:	bf88      	it	hi
 8000970:	f5bc 6fe0 	cmphi.w	ip, #1792	@ 0x700
 8000974:	f63f aeaf 	bhi.w	80006d6 <__aeabi_dmul+0xde>
 8000978:	ebb5 0c03 	subs.w	ip, r5, r3
 800097c:	bf04      	itt	eq
 800097e:	ebb6 0c02 	subseq.w	ip, r6, r2
 8000982:	ea5f 0c50 	movseq.w	ip, r0, lsr #1
 8000986:	f150 0000 	adcs.w	r0, r0, #0
 800098a:	eb41 5104 	adc.w	r1, r1, r4, lsl #20
 800098e:	bd70      	pop	{r4, r5, r6, pc}
 8000990:	f00e 4e00 	and.w	lr, lr, #2147483648	@ 0x80000000
 8000994:	ea4e 3111 	orr.w	r1, lr, r1, lsr #12
 8000998:	eb14 045c 	adds.w	r4, r4, ip, lsr #1
 800099c:	bfc2      	ittt	gt
 800099e:	ebd4 050c 	rsbsgt	r5, r4, ip
 80009a2:	ea41 5104 	orrgt.w	r1, r1, r4, lsl #20
 80009a6:	bd70      	popgt	{r4, r5, r6, pc}
 80009a8:	f441 1180 	orr.w	r1, r1, #1048576	@ 0x100000
 80009ac:	f04f 0e00 	mov.w	lr, #0
 80009b0:	3c01      	subs	r4, #1
 80009b2:	e690      	b.n	80006d6 <__aeabi_dmul+0xde>
 80009b4:	ea45 0e06 	orr.w	lr, r5, r6
 80009b8:	e68d      	b.n	80006d6 <__aeabi_dmul+0xde>
 80009ba:	ea0c 5513 	and.w	r5, ip, r3, lsr #20
 80009be:	ea94 0f0c 	teq	r4, ip
 80009c2:	bf08      	it	eq
 80009c4:	ea95 0f0c 	teqeq	r5, ip
 80009c8:	f43f af3b 	beq.w	8000842 <__aeabi_dmul+0x24a>
 80009cc:	ea94 0f0c 	teq	r4, ip
 80009d0:	d10a      	bne.n	80009e8 <__aeabi_ddiv+0x19c>
 80009d2:	ea50 3401 	orrs.w	r4, r0, r1, lsl #12
 80009d6:	f47f af34 	bne.w	8000842 <__aeabi_dmul+0x24a>
 80009da:	ea95 0f0c 	teq	r5, ip
 80009de:	f47f af25 	bne.w	800082c <__aeabi_dmul+0x234>
 80009e2:	4610      	mov	r0, r2
 80009e4:	4619      	mov	r1, r3
 80009e6:	e72c      	b.n	8000842 <__aeabi_dmul+0x24a>
 80009e8:	ea95 0f0c 	teq	r5, ip
 80009ec:	d106      	bne.n	80009fc <__aeabi_ddiv+0x1b0>
 80009ee:	ea52 3503 	orrs.w	r5, r2, r3, lsl #12
 80009f2:	f43f aefd 	beq.w	80007f0 <__aeabi_dmul+0x1f8>
 80009f6:	4610      	mov	r0, r2
 80009f8:	4619      	mov	r1, r3
 80009fa:	e722      	b.n	8000842 <__aeabi_dmul+0x24a>
 80009fc:	ea50 0641 	orrs.w	r6, r0, r1, lsl #1
 8000a00:	bf18      	it	ne
 8000a02:	ea52 0643 	orrsne.w	r6, r2, r3, lsl #1
 8000a06:	f47f aec5 	bne.w	8000794 <__aeabi_dmul+0x19c>
 8000a0a:	ea50 0441 	orrs.w	r4, r0, r1, lsl #1
 8000a0e:	f47f af0d 	bne.w	800082c <__aeabi_dmul+0x234>
 8000a12:	ea52 0543 	orrs.w	r5, r2, r3, lsl #1
 8000a16:	f47f aeeb 	bne.w	80007f0 <__aeabi_dmul+0x1f8>
 8000a1a:	e712      	b.n	8000842 <__aeabi_dmul+0x24a>

08000a1c <__gedf2>:
 8000a1c:	f04f 3cff 	mov.w	ip, #4294967295
 8000a20:	e006      	b.n	8000a30 <__cmpdf2+0x4>
 8000a22:	bf00      	nop

08000a24 <__ledf2>:
 8000a24:	f04f 0c01 	mov.w	ip, #1
 8000a28:	e002      	b.n	8000a30 <__cmpdf2+0x4>
 8000a2a:	bf00      	nop

08000a2c <__cmpdf2>:
 8000a2c:	f04f 0c01 	mov.w	ip, #1
 8000a30:	f84d cd04 	str.w	ip, [sp, #-4]!
 8000a34:	ea4f 0c41 	mov.w	ip, r1, lsl #1
 8000a38:	ea7f 5c6c 	mvns.w	ip, ip, asr #21
 8000a3c:	ea4f 0c43 	mov.w	ip, r3, lsl #1
 8000a40:	bf18      	it	ne
 8000a42:	ea7f 5c6c 	mvnsne.w	ip, ip, asr #21
 8000a46:	d01b      	beq.n	8000a80 <__cmpdf2+0x54>
 8000a48:	b001      	add	sp, #4
 8000a4a:	ea50 0c41 	orrs.w	ip, r0, r1, lsl #1
 8000a4e:	bf0c      	ite	eq
 8000a50:	ea52 0c43 	orrseq.w	ip, r2, r3, lsl #1
 8000a54:	ea91 0f03 	teqne	r1, r3
 8000a58:	bf02      	ittt	eq
 8000a5a:	ea90 0f02 	teqeq	r0, r2
 8000a5e:	2000      	moveq	r0, #0
 8000a60:	4770      	bxeq	lr
 8000a62:	f110 0f00 	cmn.w	r0, #0
 8000a66:	ea91 0f03 	teq	r1, r3
 8000a6a:	bf58      	it	pl
 8000a6c:	4299      	cmppl	r1, r3
 8000a6e:	bf08      	it	eq
 8000a70:	4290      	cmpeq	r0, r2
 8000a72:	bf2c      	ite	cs
 8000a74:	17d8      	asrcs	r0, r3, #31
 8000a76:	ea6f 70e3 	mvncc.w	r0, r3, asr #31
 8000a7a:	f040 0001 	orr.w	r0, r0, #1
 8000a7e:	4770      	bx	lr
 8000a80:	ea4f 0c41 	mov.w	ip, r1, lsl #1
 8000a84:	ea7f 5c6c 	mvns.w	ip, ip, asr #21
 8000a88:	d102      	bne.n	8000a90 <__cmpdf2+0x64>
 8000a8a:	ea50 3c01 	orrs.w	ip, r0, r1, lsl #12
 8000a8e:	d107      	bne.n	8000aa0 <__cmpdf2+0x74>
 8000a90:	ea4f 0c43 	mov.w	ip, r3, lsl #1
 8000a94:	ea7f 5c6c 	mvns.w	ip, ip, asr #21
 8000a98:	d1d6      	bne.n	8000a48 <__cmpdf2+0x1c>
 8000a9a:	ea52 3c03 	orrs.w	ip, r2, r3, lsl #12
 8000a9e:	d0d3      	beq.n	8000a48 <__cmpdf2+0x1c>
 8000aa0:	f85d 0b04 	ldr.w	r0, [sp], #4
 8000aa4:	4770      	bx	lr
 8000aa6:	bf00      	nop

08000aa8 <__aeabi_cdrcmple>:
 8000aa8:	4684      	mov	ip, r0
 8000aaa:	4610      	mov	r0, r2
 8000aac:	4662      	mov	r2, ip
 8000aae:	468c      	mov	ip, r1
 8000ab0:	4619      	mov	r1, r3
 8000ab2:	4663      	mov	r3, ip
 8000ab4:	e000      	b.n	8000ab8 <__aeabi_cdcmpeq>
 8000ab6:	bf00      	nop

08000ab8 <__aeabi_cdcmpeq>:
 8000ab8:	b501      	push	{r0, lr}
 8000aba:	f7ff ffb7 	bl	8000a2c <__cmpdf2>
 8000abe:	2800      	cmp	r0, #0
 8000ac0:	bf48      	it	mi
 8000ac2:	f110 0f00 	cmnmi.w	r0, #0
 8000ac6:	bd01      	pop	{r0, pc}

08000ac8 <__aeabi_dcmpeq>:
 8000ac8:	f84d ed08 	str.w	lr, [sp, #-8]!
 8000acc:	f7ff fff4 	bl	8000ab8 <__aeabi_cdcmpeq>
 8000ad0:	bf0c      	ite	eq
 8000ad2:	2001      	moveq	r0, #1
 8000ad4:	2000      	movne	r0, #0
 8000ad6:	f85d fb08 	ldr.w	pc, [sp], #8
 8000ada:	bf00      	nop

08000adc <__aeabi_dcmplt>:
 8000adc:	f84d ed08 	str.w	lr, [sp, #-8]!
 8000ae0:	f7ff ffea 	bl	8000ab8 <__aeabi_cdcmpeq>
 8000ae4:	bf34      	ite	cc
 8000ae6:	2001      	movcc	r0, #1
 8000ae8:	2000      	movcs	r0, #0
 8000aea:	f85d fb08 	ldr.w	pc, [sp], #8
 8000aee:	bf00      	nop

08000af0 <__aeabi_dcmple>:
 8000af0:	f84d ed08 	str.w	lr, [sp, #-8]!
 8000af4:	f7ff ffe0 	bl	8000ab8 <__aeabi_cdcmpeq>
 8000af8:	bf94      	ite	ls
 8000afa:	2001      	movls	r0, #1
 8000afc:	2000      	movhi	r0, #0
 8000afe:	f85d fb08 	ldr.w	pc, [sp], #8
 8000b02:	bf00      	nop

08000b04 <__aeabi_dcmpge>:
 8000b04:	f84d ed08 	str.w	lr, [sp, #-8]!
 8000b08:	f7ff ffce 	bl	8000aa8 <__aeabi_cdrcmple>
 8000b0c:	bf94      	ite	ls
 8000b0e:	2001      	movls	r0, #1
 8000b10:	2000      	movhi	r0, #0
 8000b12:	f85d fb08 	ldr.w	pc, [sp], #8
 8000b16:	bf00      	nop

08000b18 <__aeabi_dcmpgt>:
 8000b18:	f84d ed08 	str.w	lr, [sp, #-8]!
 8000b1c:	f7ff ffc4 	bl	8000aa8 <__aeabi_cdrcmple>
 8000b20:	bf34      	ite	cc
 8000b22:	2001      	movcc	r0, #1
 8000b24:	2000      	movcs	r0, #0
 8000b26:	f85d fb08 	ldr.w	pc, [sp], #8
 8000b2a:	bf00      	nop

08000b2c <__aeabi_d2uiz>:
 8000b2c:	004a      	lsls	r2, r1, #1
 8000b2e:	d211      	bcs.n	8000b54 <__aeabi_d2uiz+0x28>
 8000b30:	f512 1200 	adds.w	r2, r2, #2097152	@ 0x200000
 8000b34:	d211      	bcs.n	8000b5a <__aeabi_d2uiz+0x2e>
 8000b36:	d50d      	bpl.n	8000b54 <__aeabi_d2uiz+0x28>
 8000b38:	f46f 7378 	mvn.w	r3, #992	@ 0x3e0
 8000b3c:	ebb3 5262 	subs.w	r2, r3, r2, asr #21
 8000b40:	d40e      	bmi.n	8000b60 <__aeabi_d2uiz+0x34>
 8000b42:	ea4f 23c1 	mov.w	r3, r1, lsl #11
 8000b46:	f043 4300 	orr.w	r3, r3, #2147483648	@ 0x80000000
 8000b4a:	ea43 5350 	orr.w	r3, r3, r0, lsr #21
 8000b4e:	fa23 f002 	lsr.w	r0, r3, r2
 8000b52:	4770      	bx	lr
 8000b54:	f04f 0000 	mov.w	r0, #0
 8000b58:	4770      	bx	lr
 8000b5a:	ea50 3001 	orrs.w	r0, r0, r1, lsl #12
 8000b5e:	d102      	bne.n	8000b66 <__aeabi_d2uiz+0x3a>
 8000b60:	f04f 30ff 	mov.w	r0, #4294967295
 8000b64:	4770      	bx	lr
 8000b66:	f04f 0000 	mov.w	r0, #0
 8000b6a:	4770      	bx	lr

08000b6c <__aeabi_uldivmod>:
 8000b6c:	b953      	cbnz	r3, 8000b84 <__aeabi_uldivmod+0x18>
 8000b6e:	b94a      	cbnz	r2, 8000b84 <__aeabi_uldivmod+0x18>
 8000b70:	2900      	cmp	r1, #0
 8000b72:	bf08      	it	eq
 8000b74:	2800      	cmpeq	r0, #0
 8000b76:	bf1c      	itt	ne
 8000b78:	f04f 31ff 	movne.w	r1, #4294967295
 8000b7c:	f04f 30ff 	movne.w	r0, #4294967295
 8000b80:	f000 b9be 	b.w	8000f00 <__aeabi_idiv0>
 8000b84:	f1ad 0c08 	sub.w	ip, sp, #8
 8000b88:	e96d ce04 	strd	ip, lr, [sp, #-16]!
 8000b8c:	f000 f83c 	bl	8000c08 <__udivmoddi4>
 8000b90:	f8dd e004 	ldr.w	lr, [sp, #4]
 8000b94:	e9dd 2302 	ldrd	r2, r3, [sp, #8]
 8000b98:	b004      	add	sp, #16
 8000b9a:	4770      	bx	lr

08000b9c <__aeabi_d2lz>:
 8000b9c:	b538      	push	{r3, r4, r5, lr}
 8000b9e:	2200      	movs	r2, #0
 8000ba0:	2300      	movs	r3, #0
 8000ba2:	4604      	mov	r4, r0
 8000ba4:	460d      	mov	r5, r1
 8000ba6:	f7ff ff99 	bl	8000adc <__aeabi_dcmplt>
 8000baa:	b928      	cbnz	r0, 8000bb8 <__aeabi_d2lz+0x1c>
 8000bac:	4620      	mov	r0, r4
 8000bae:	4629      	mov	r1, r5
 8000bb0:	e8bd 4038 	ldmia.w	sp!, {r3, r4, r5, lr}
 8000bb4:	f000 b80a 	b.w	8000bcc <__aeabi_d2ulz>
 8000bb8:	4620      	mov	r0, r4
 8000bba:	f105 4100 	add.w	r1, r5, #2147483648	@ 0x80000000
 8000bbe:	f000 f805 	bl	8000bcc <__aeabi_d2ulz>
 8000bc2:	4240      	negs	r0, r0
 8000bc4:	eb61 0141 	sbc.w	r1, r1, r1, lsl #1
 8000bc8:	bd38      	pop	{r3, r4, r5, pc}
 8000bca:	bf00      	nop

08000bcc <__aeabi_d2ulz>:
 8000bcc:	b5d0      	push	{r4, r6, r7, lr}
 8000bce:	4b0c      	ldr	r3, [pc, #48]	@ (8000c00 <__aeabi_d2ulz+0x34>)
 8000bd0:	2200      	movs	r2, #0
 8000bd2:	4606      	mov	r6, r0
 8000bd4:	460f      	mov	r7, r1
 8000bd6:	f7ff fd0f 	bl	80005f8 <__aeabi_dmul>
 8000bda:	f7ff ffa7 	bl	8000b2c <__aeabi_d2uiz>
 8000bde:	4604      	mov	r4, r0
 8000be0:	f7ff fc90 	bl	8000504 <__aeabi_ui2d>
 8000be4:	4b07      	ldr	r3, [pc, #28]	@ (8000c04 <__aeabi_d2ulz+0x38>)
 8000be6:	2200      	movs	r2, #0
 8000be8:	f7ff fd06 	bl	80005f8 <__aeabi_dmul>
 8000bec:	4602      	mov	r2, r0
 8000bee:	460b      	mov	r3, r1
 8000bf0:	4630      	mov	r0, r6
 8000bf2:	4639      	mov	r1, r7
 8000bf4:	f7ff fb48 	bl	8000288 <__aeabi_dsub>
 8000bf8:	f7ff ff98 	bl	8000b2c <__aeabi_d2uiz>
 8000bfc:	4621      	mov	r1, r4
 8000bfe:	bdd0      	pop	{r4, r6, r7, pc}
 8000c00:	3df00000 	.word	0x3df00000
 8000c04:	41f00000 	.word	0x41f00000

08000c08 <__udivmoddi4>:
 8000c08:	e92d 47f0 	stmdb	sp!, {r4, r5, r6, r7, r8, r9, sl, lr}
 8000c0c:	9d08      	ldr	r5, [sp, #32]
 8000c0e:	468e      	mov	lr, r1
 8000c10:	4604      	mov	r4, r0
 8000c12:	4688      	mov	r8, r1
 8000c14:	2b00      	cmp	r3, #0
 8000c16:	d14a      	bne.n	8000cae <__udivmoddi4+0xa6>
 8000c18:	428a      	cmp	r2, r1
 8000c1a:	4617      	mov	r7, r2
 8000c1c:	d962      	bls.n	8000ce4 <__udivmoddi4+0xdc>
 8000c1e:	fab2 f682 	clz	r6, r2
 8000c22:	b14e      	cbz	r6, 8000c38 <__udivmoddi4+0x30>
 8000c24:	f1c6 0320 	rsb	r3, r6, #32
 8000c28:	fa01 f806 	lsl.w	r8, r1, r6
 8000c2c:	fa20 f303 	lsr.w	r3, r0, r3
 8000c30:	40b7      	lsls	r7, r6
 8000c32:	ea43 0808 	orr.w	r8, r3, r8
 8000c36:	40b4      	lsls	r4, r6
 8000c38:	ea4f 4e17 	mov.w	lr, r7, lsr #16
 8000c3c:	fa1f fc87 	uxth.w	ip, r7
 8000c40:	fbb8 f1fe 	udiv	r1, r8, lr
 8000c44:	0c23      	lsrs	r3, r4, #16
 8000c46:	fb0e 8811 	mls	r8, lr, r1, r8
 8000c4a:	ea43 4308 	orr.w	r3, r3, r8, lsl #16
 8000c4e:	fb01 f20c 	mul.w	r2, r1, ip
 8000c52:	429a      	cmp	r2, r3
 8000c54:	d909      	bls.n	8000c6a <__udivmoddi4+0x62>
 8000c56:	18fb      	adds	r3, r7, r3
 8000c58:	f101 30ff 	add.w	r0, r1, #4294967295
 8000c5c:	f080 80ea 	bcs.w	8000e34 <__udivmoddi4+0x22c>
 8000c60:	429a      	cmp	r2, r3
 8000c62:	f240 80e7 	bls.w	8000e34 <__udivmoddi4+0x22c>
 8000c66:	3902      	subs	r1, #2
 8000c68:	443b      	add	r3, r7
 8000c6a:	1a9a      	subs	r2, r3, r2
 8000c6c:	b2a3      	uxth	r3, r4
 8000c6e:	fbb2 f0fe 	udiv	r0, r2, lr
 8000c72:	fb0e 2210 	mls	r2, lr, r0, r2
 8000c76:	ea43 4302 	orr.w	r3, r3, r2, lsl #16
 8000c7a:	fb00 fc0c 	mul.w	ip, r0, ip
 8000c7e:	459c      	cmp	ip, r3
 8000c80:	d909      	bls.n	8000c96 <__udivmoddi4+0x8e>
 8000c82:	18fb      	adds	r3, r7, r3
 8000c84:	f100 32ff 	add.w	r2, r0, #4294967295
 8000c88:	f080 80d6 	bcs.w	8000e38 <__udivmoddi4+0x230>
 8000c8c:	459c      	cmp	ip, r3
 8000c8e:	f240 80d3 	bls.w	8000e38 <__udivmoddi4+0x230>
 8000c92:	443b      	add	r3, r7
 8000c94:	3802      	subs	r0, #2
 8000c96:	ea40 4001 	orr.w	r0, r0, r1, lsl #16
 8000c9a:	eba3 030c 	sub.w	r3, r3, ip
 8000c9e:	2100      	movs	r1, #0
 8000ca0:	b11d      	cbz	r5, 8000caa <__udivmoddi4+0xa2>
 8000ca2:	40f3      	lsrs	r3, r6
 8000ca4:	2200      	movs	r2, #0
 8000ca6:	e9c5 3200 	strd	r3, r2, [r5]
 8000caa:	e8bd 87f0 	ldmia.w	sp!, {r4, r5, r6, r7, r8, r9, sl, pc}
 8000cae:	428b      	cmp	r3, r1
 8000cb0:	d905      	bls.n	8000cbe <__udivmoddi4+0xb6>
 8000cb2:	b10d      	cbz	r5, 8000cb8 <__udivmoddi4+0xb0>
 8000cb4:	e9c5 0100 	strd	r0, r1, [r5]
 8000cb8:	2100      	movs	r1, #0
 8000cba:	4608      	mov	r0, r1
 8000cbc:	e7f5      	b.n	8000caa <__udivmoddi4+0xa2>
 8000cbe:	fab3 f183 	clz	r1, r3
 8000cc2:	2900      	cmp	r1, #0
 8000cc4:	d146      	bne.n	8000d54 <__udivmoddi4+0x14c>
 8000cc6:	4573      	cmp	r3, lr
 8000cc8:	d302      	bcc.n	8000cd0 <__udivmoddi4+0xc8>
 8000cca:	4282      	cmp	r2, r0
 8000ccc:	f200 8105 	bhi.w	8000eda <__udivmoddi4+0x2d2>
 8000cd0:	1a84      	subs	r4, r0, r2
 8000cd2:	eb6e 0203 	sbc.w	r2, lr, r3
 8000cd6:	2001      	movs	r0, #1
 8000cd8:	4690      	mov	r8, r2
 8000cda:	2d00      	cmp	r5, #0
 8000cdc:	d0e5      	beq.n	8000caa <__udivmoddi4+0xa2>
 8000cde:	e9c5 4800 	strd	r4, r8, [r5]
 8000ce2:	e7e2      	b.n	8000caa <__udivmoddi4+0xa2>
 8000ce4:	2a00      	cmp	r2, #0
 8000ce6:	f000 8090 	beq.w	8000e0a <__udivmoddi4+0x202>
 8000cea:	fab2 f682 	clz	r6, r2
 8000cee:	2e00      	cmp	r6, #0
 8000cf0:	f040 80a4 	bne.w	8000e3c <__udivmoddi4+0x234>
 8000cf4:	1a8a      	subs	r2, r1, r2
 8000cf6:	0c03      	lsrs	r3, r0, #16
 8000cf8:	ea4f 4e17 	mov.w	lr, r7, lsr #16
 8000cfc:	b280      	uxth	r0, r0
 8000cfe:	b2bc      	uxth	r4, r7
 8000d00:	2101      	movs	r1, #1
 8000d02:	fbb2 fcfe 	udiv	ip, r2, lr
 8000d06:	fb0e 221c 	mls	r2, lr, ip, r2
 8000d0a:	ea43 4302 	orr.w	r3, r3, r2, lsl #16
 8000d0e:	fb04 f20c 	mul.w	r2, r4, ip
 8000d12:	429a      	cmp	r2, r3
 8000d14:	d907      	bls.n	8000d26 <__udivmoddi4+0x11e>
 8000d16:	18fb      	adds	r3, r7, r3
 8000d18:	f10c 38ff 	add.w	r8, ip, #4294967295
 8000d1c:	d202      	bcs.n	8000d24 <__udivmoddi4+0x11c>
 8000d1e:	429a      	cmp	r2, r3
 8000d20:	f200 80e0 	bhi.w	8000ee4 <__udivmoddi4+0x2dc>
 8000d24:	46c4      	mov	ip, r8
 8000d26:	1a9b      	subs	r3, r3, r2
 8000d28:	fbb3 f2fe 	udiv	r2, r3, lr
 8000d2c:	fb0e 3312 	mls	r3, lr, r2, r3
 8000d30:	ea40 4303 	orr.w	r3, r0, r3, lsl #16
 8000d34:	fb02 f404 	mul.w	r4, r2, r4
 8000d38:	429c      	cmp	r4, r3
 8000d3a:	d907      	bls.n	8000d4c <__udivmoddi4+0x144>
 8000d3c:	18fb      	adds	r3, r7, r3
 8000d3e:	f102 30ff 	add.w	r0, r2, #4294967295
 8000d42:	d202      	bcs.n	8000d4a <__udivmoddi4+0x142>
 8000d44:	429c      	cmp	r4, r3
 8000d46:	f200 80ca 	bhi.w	8000ede <__udivmoddi4+0x2d6>
 8000d4a:	4602      	mov	r2, r0
 8000d4c:	1b1b      	subs	r3, r3, r4
 8000d4e:	ea42 400c 	orr.w	r0, r2, ip, lsl #16
 8000d52:	e7a5      	b.n	8000ca0 <__udivmoddi4+0x98>
 8000d54:	f1c1 0620 	rsb	r6, r1, #32
 8000d58:	408b      	lsls	r3, r1
 8000d5a:	fa22 f706 	lsr.w	r7, r2, r6
 8000d5e:	431f      	orrs	r7, r3
 8000d60:	fa0e f401 	lsl.w	r4, lr, r1
 8000d64:	fa20 f306 	lsr.w	r3, r0, r6
 8000d68:	fa2e fe06 	lsr.w	lr, lr, r6
 8000d6c:	ea4f 4917 	mov.w	r9, r7, lsr #16
 8000d70:	4323      	orrs	r3, r4
 8000d72:	fa00 f801 	lsl.w	r8, r0, r1
 8000d76:	fa1f fc87 	uxth.w	ip, r7
 8000d7a:	fbbe f0f9 	udiv	r0, lr, r9
 8000d7e:	0c1c      	lsrs	r4, r3, #16
 8000d80:	fb09 ee10 	mls	lr, r9, r0, lr
 8000d84:	ea44 440e 	orr.w	r4, r4, lr, lsl #16
 8000d88:	fb00 fe0c 	mul.w	lr, r0, ip
 8000d8c:	45a6      	cmp	lr, r4
 8000d8e:	fa02 f201 	lsl.w	r2, r2, r1
 8000d92:	d909      	bls.n	8000da8 <__udivmoddi4+0x1a0>
 8000d94:	193c      	adds	r4, r7, r4
 8000d96:	f100 3aff 	add.w	sl, r0, #4294967295
 8000d9a:	f080 809c 	bcs.w	8000ed6 <__udivmoddi4+0x2ce>
 8000d9e:	45a6      	cmp	lr, r4
 8000da0:	f240 8099 	bls.w	8000ed6 <__udivmoddi4+0x2ce>
 8000da4:	3802      	subs	r0, #2
 8000da6:	443c      	add	r4, r7
 8000da8:	eba4 040e 	sub.w	r4, r4, lr
 8000dac:	fa1f fe83 	uxth.w	lr, r3
 8000db0:	fbb4 f3f9 	udiv	r3, r4, r9
 8000db4:	fb09 4413 	mls	r4, r9, r3, r4
 8000db8:	ea4e 4404 	orr.w	r4, lr, r4, lsl #16
 8000dbc:	fb03 fc0c 	mul.w	ip, r3, ip
 8000dc0:	45a4      	cmp	ip, r4
 8000dc2:	d908      	bls.n	8000dd6 <__udivmoddi4+0x1ce>
 8000dc4:	193c      	adds	r4, r7, r4
 8000dc6:	f103 3eff 	add.w	lr, r3, #4294967295
 8000dca:	f080 8082 	bcs.w	8000ed2 <__udivmoddi4+0x2ca>
 8000dce:	45a4      	cmp	ip, r4
 8000dd0:	d97f      	bls.n	8000ed2 <__udivmoddi4+0x2ca>
 8000dd2:	3b02      	subs	r3, #2
 8000dd4:	443c      	add	r4, r7
 8000dd6:	ea43 4000 	orr.w	r0, r3, r0, lsl #16
 8000dda:	eba4 040c 	sub.w	r4, r4, ip
 8000dde:	fba0 ec02 	umull	lr, ip, r0, r2
 8000de2:	4564      	cmp	r4, ip
 8000de4:	4673      	mov	r3, lr
 8000de6:	46e1      	mov	r9, ip
 8000de8:	d362      	bcc.n	8000eb0 <__udivmoddi4+0x2a8>
 8000dea:	d05f      	beq.n	8000eac <__udivmoddi4+0x2a4>
 8000dec:	b15d      	cbz	r5, 8000e06 <__udivmoddi4+0x1fe>
 8000dee:	ebb8 0203 	subs.w	r2, r8, r3
 8000df2:	eb64 0409 	sbc.w	r4, r4, r9
 8000df6:	fa04 f606 	lsl.w	r6, r4, r6
 8000dfa:	fa22 f301 	lsr.w	r3, r2, r1
 8000dfe:	431e      	orrs	r6, r3
 8000e00:	40cc      	lsrs	r4, r1
 8000e02:	e9c5 6400 	strd	r6, r4, [r5]
 8000e06:	2100      	movs	r1, #0
 8000e08:	e74f      	b.n	8000caa <__udivmoddi4+0xa2>
 8000e0a:	fbb1 fcf2 	udiv	ip, r1, r2
 8000e0e:	0c01      	lsrs	r1, r0, #16
 8000e10:	ea41 410e 	orr.w	r1, r1, lr, lsl #16
 8000e14:	b280      	uxth	r0, r0
 8000e16:	ea40 4201 	orr.w	r2, r0, r1, lsl #16
 8000e1a:	463b      	mov	r3, r7
 8000e1c:	4638      	mov	r0, r7
 8000e1e:	463c      	mov	r4, r7
 8000e20:	46b8      	mov	r8, r7
 8000e22:	46be      	mov	lr, r7
 8000e24:	2620      	movs	r6, #32
 8000e26:	fbb1 f1f7 	udiv	r1, r1, r7
 8000e2a:	eba2 0208 	sub.w	r2, r2, r8
 8000e2e:	ea41 410c 	orr.w	r1, r1, ip, lsl #16
 8000e32:	e766      	b.n	8000d02 <__udivmoddi4+0xfa>
 8000e34:	4601      	mov	r1, r0
 8000e36:	e718      	b.n	8000c6a <__udivmoddi4+0x62>
 8000e38:	4610      	mov	r0, r2
 8000e3a:	e72c      	b.n	8000c96 <__udivmoddi4+0x8e>
 8000e3c:	f1c6 0220 	rsb	r2, r6, #32
 8000e40:	fa2e f302 	lsr.w	r3, lr, r2
 8000e44:	40b7      	lsls	r7, r6
 8000e46:	40b1      	lsls	r1, r6
 8000e48:	fa20 f202 	lsr.w	r2, r0, r2
 8000e4c:	ea4f 4e17 	mov.w	lr, r7, lsr #16
 8000e50:	430a      	orrs	r2, r1
 8000e52:	fbb3 f8fe 	udiv	r8, r3, lr
 8000e56:	b2bc      	uxth	r4, r7
 8000e58:	fb0e 3318 	mls	r3, lr, r8, r3
 8000e5c:	0c11      	lsrs	r1, r2, #16
 8000e5e:	ea41 4103 	orr.w	r1, r1, r3, lsl #16
 8000e62:	fb08 f904 	mul.w	r9, r8, r4
 8000e66:	40b0      	lsls	r0, r6
 8000e68:	4589      	cmp	r9, r1
 8000e6a:	ea4f 4310 	mov.w	r3, r0, lsr #16
 8000e6e:	b280      	uxth	r0, r0
 8000e70:	d93e      	bls.n	8000ef0 <__udivmoddi4+0x2e8>
 8000e72:	1879      	adds	r1, r7, r1
 8000e74:	f108 3cff 	add.w	ip, r8, #4294967295
 8000e78:	d201      	bcs.n	8000e7e <__udivmoddi4+0x276>
 8000e7a:	4589      	cmp	r9, r1
 8000e7c:	d81f      	bhi.n	8000ebe <__udivmoddi4+0x2b6>
 8000e7e:	eba1 0109 	sub.w	r1, r1, r9
 8000e82:	fbb1 f9fe 	udiv	r9, r1, lr
 8000e86:	fb09 f804 	mul.w	r8, r9, r4
 8000e8a:	fb0e 1119 	mls	r1, lr, r9, r1
 8000e8e:	b292      	uxth	r2, r2
 8000e90:	ea42 4201 	orr.w	r2, r2, r1, lsl #16
 8000e94:	4542      	cmp	r2, r8
 8000e96:	d229      	bcs.n	8000eec <__udivmoddi4+0x2e4>
 8000e98:	18ba      	adds	r2, r7, r2
 8000e9a:	f109 31ff 	add.w	r1, r9, #4294967295
 8000e9e:	d2c4      	bcs.n	8000e2a <__udivmoddi4+0x222>
 8000ea0:	4542      	cmp	r2, r8
 8000ea2:	d2c2      	bcs.n	8000e2a <__udivmoddi4+0x222>
 8000ea4:	f1a9 0102 	sub.w	r1, r9, #2
 8000ea8:	443a      	add	r2, r7
 8000eaa:	e7be      	b.n	8000e2a <__udivmoddi4+0x222>
 8000eac:	45f0      	cmp	r8, lr
 8000eae:	d29d      	bcs.n	8000dec <__udivmoddi4+0x1e4>
 8000eb0:	ebbe 0302 	subs.w	r3, lr, r2
 8000eb4:	eb6c 0c07 	sbc.w	ip, ip, r7
 8000eb8:	3801      	subs	r0, #1
 8000eba:	46e1      	mov	r9, ip
 8000ebc:	e796      	b.n	8000dec <__udivmoddi4+0x1e4>
 8000ebe:	eba7 0909 	sub.w	r9, r7, r9
 8000ec2:	4449      	add	r1, r9
 8000ec4:	f1a8 0c02 	sub.w	ip, r8, #2
 8000ec8:	fbb1 f9fe 	udiv	r9, r1, lr
 8000ecc:	fb09 f804 	mul.w	r8, r9, r4
 8000ed0:	e7db      	b.n	8000e8a <__udivmoddi4+0x282>
 8000ed2:	4673      	mov	r3, lr
 8000ed4:	e77f      	b.n	8000dd6 <__udivmoddi4+0x1ce>
 8000ed6:	4650      	mov	r0, sl
 8000ed8:	e766      	b.n	8000da8 <__udivmoddi4+0x1a0>
 8000eda:	4608      	mov	r0, r1
 8000edc:	e6fd      	b.n	8000cda <__udivmoddi4+0xd2>
 8000ede:	443b      	add	r3, r7
 8000ee0:	3a02      	subs	r2, #2
 8000ee2:	e733      	b.n	8000d4c <__udivmoddi4+0x144>
 8000ee4:	f1ac 0c02 	sub.w	ip, ip, #2
 8000ee8:	443b      	add	r3, r7
 8000eea:	e71c      	b.n	8000d26 <__udivmoddi4+0x11e>
 8000eec:	4649      	mov	r1, r9
 8000eee:	e79c      	b.n	8000e2a <__udivmoddi4+0x222>
 8000ef0:	eba1 0109 	sub.w	r1, r1, r9
 8000ef4:	46c4      	mov	ip, r8
 8000ef6:	fbb1 f9fe 	udiv	r9, r1, lr
 8000efa:	fb09 f804 	mul.w	r8, r9, r4
 8000efe:	e7c4      	b.n	8000e8a <__udivmoddi4+0x282>

08000f00 <__aeabi_idiv0>:
 8000f00:	4770      	bx	lr
 8000f02:	bf00      	nop

08000f04 <app_main>:
 8000f04:	b580      	push	{r7, lr}
 8000f06:	b088      	sub	sp, #32
 8000f08:	f000 f86c 	bl	8000fe4 <GPIO_Init>
 8000f0c:	4828      	ldr	r0, [pc, #160]	@ (8000fb0 <app_main+0xac>)
 8000f0e:	4e29      	ldr	r6, [pc, #164]	@ (8000fb4 <app_main+0xb0>)
 8000f10:	f000 fbd8 	bl	80016c4 <UART_Init>
 8000f14:	2001      	movs	r0, #1
 8000f16:	f000 f8ed 	bl	80010f4 <GPIO_LedWrite>
 8000f1a:	f000 fb17 	bl	800154c <SCPI_PwmReset>
 8000f1e:	2311      	movs	r3, #17
 8000f20:	9307      	str	r3, [sp, #28]
 8000f22:	4b25      	ldr	r3, [pc, #148]	@ (8000fb8 <app_main+0xb4>)
 8000f24:	9306      	str	r3, [sp, #24]
 8000f26:	f44f 7380 	mov.w	r3, #256	@ 0x100
 8000f2a:	9305      	str	r3, [sp, #20]
 8000f2c:	4b23      	ldr	r3, [pc, #140]	@ (8000fbc <app_main+0xb8>)
 8000f2e:	9304      	str	r3, [sp, #16]
 8000f30:	4b23      	ldr	r3, [pc, #140]	@ (8000fc0 <app_main+0xbc>)
 8000f32:	9303      	str	r3, [sp, #12]
 8000f34:	4b23      	ldr	r3, [pc, #140]	@ (8000fc4 <app_main+0xc0>)
 8000f36:	9301      	str	r3, [sp, #4]
 8000f38:	2700      	movs	r7, #0
 8000f3a:	4b23      	ldr	r3, [pc, #140]	@ (8000fc8 <app_main+0xc4>)
 8000f3c:	9300      	str	r3, [sp, #0]
 8000f3e:	4a23      	ldr	r2, [pc, #140]	@ (8000fcc <app_main+0xc8>)
 8000f40:	4b23      	ldr	r3, [pc, #140]	@ (8000fd0 <app_main+0xcc>)
 8000f42:	4924      	ldr	r1, [pc, #144]	@ (8000fd4 <app_main+0xd0>)
 8000f44:	4824      	ldr	r0, [pc, #144]	@ (8000fd8 <app_main+0xd4>)
 8000f46:	9702      	str	r7, [sp, #8]
 8000f48:	f004 f880 	bl	800504c <SCPI_Init>
 8000f4c:	f8df 8090 	ldr.w	r8, [pc, #144]	@ 8000fe0 <app_main+0xdc>
 8000f50:	2500      	movs	r5, #0
 8000f52:	f000 fbd3 	bl	80016fc <UART_Getc>
 8000f56:	280d      	cmp	r0, #13
 8000f58:	d114      	bne.n	8000f84 <app_main+0x80>
 8000f5a:	4820      	ldr	r0, [pc, #128]	@ (8000fdc <app_main+0xd8>)
 8000f5c:	f000 fbdc 	bl	8001718 <UART_Puts>
 8000f60:	462c      	mov	r4, r5
 8000f62:	1c63      	adds	r3, r4, #1
 8000f64:	220a      	movs	r2, #10
 8000f66:	2b00      	cmp	r3, #0
 8000f68:	5532      	strb	r2, [r6, r4]
 8000f6a:	54f7      	strb	r7, [r6, r3]
 8000f6c:	dd07      	ble.n	8000f7e <app_main+0x7a>
 8000f6e:	4630      	mov	r0, r6
 8000f70:	f7ff f92e 	bl	80001d0 <strlen>
 8000f74:	4631      	mov	r1, r6
 8000f76:	4602      	mov	r2, r0
 8000f78:	4817      	ldr	r0, [pc, #92]	@ (8000fd8 <app_main+0xd4>)
 8000f7a:	f004 f8a0 	bl	80050be <SCPI_Input>
 8000f7e:	f000 ff69 	bl	8001e54 <pwm_service>
 8000f82:	e7e3      	b.n	8000f4c <app_main+0x48>
 8000f84:	280a      	cmp	r0, #10
 8000f86:	d0e8      	beq.n	8000f5a <app_main+0x56>
 8000f88:	2808      	cmp	r0, #8
 8000f8a:	d107      	bne.n	8000f9c <app_main+0x98>
 8000f8c:	2d00      	cmp	r5, #0
 8000f8e:	dd0d      	ble.n	8000fac <app_main+0xa8>
 8000f90:	4640      	mov	r0, r8
 8000f92:	1e6c      	subs	r4, r5, #1
 8000f94:	f000 fbc0 	bl	8001718 <UART_Puts>
 8000f98:	4625      	mov	r5, r4
 8000f9a:	e7da      	b.n	8000f52 <app_main+0x4e>
 8000f9c:	1c6c      	adds	r4, r5, #1
 8000f9e:	5570      	strb	r0, [r6, r5]
 8000fa0:	f000 fbc6 	bl	8001730 <UART_Putc>
 8000fa4:	f5b4 7f80 	cmp.w	r4, #256	@ 0x100
 8000fa8:	d1f6      	bne.n	8000f98 <app_main+0x94>
 8000faa:	e7da      	b.n	8000f62 <app_main+0x5e>
 8000fac:	462c      	mov	r4, r5
 8000fae:	e7f3      	b.n	8000f98 <app_main+0x94>
 8000fb0:	200006e8 	.word	0x200006e8
 8000fb4:	2000022c 	.word	0x2000022c
 8000fb8:	200003c8 	.word	0x200003c8
 8000fbc:	200003ea 	.word	0x200003ea
 8000fc0:	0800ba66 	.word	0x0800ba66
 8000fc4:	0800ba6c 	.word	0x0800ba6c
 8000fc8:	0800ba76 	.word	0x0800ba76
 8000fcc:	20000028 	.word	0x20000028
 8000fd0:	0800c0c0 	.word	0x0800c0c0
 8000fd4:	0800be18 	.word	0x0800be18
 8000fd8:	20000330 	.word	0x20000330
 8000fdc:	0800bc83 	.word	0x0800bc83
 8000fe0:	0800ba82 	.word	0x0800ba82

08000fe4 <GPIO_Init>:
 8000fe4:	b51f      	push	{r0, r1, r2, r3, r4, lr}
 8000fe6:	4b15      	ldr	r3, [pc, #84]	@ (800103c <GPIO_Init+0x58>)
 8000fe8:	6cda      	ldr	r2, [r3, #76]	@ 0x4c
 8000fea:	f042 0204 	orr.w	r2, r2, #4
 8000fee:	64da      	str	r2, [r3, #76]	@ 0x4c
 8000ff0:	6cda      	ldr	r2, [r3, #76]	@ 0x4c
 8000ff2:	f002 0204 	and.w	r2, r2, #4
 8000ff6:	9201      	str	r2, [sp, #4]
 8000ff8:	9a01      	ldr	r2, [sp, #4]
 8000ffa:	6cda      	ldr	r2, [r3, #76]	@ 0x4c
 8000ffc:	f042 0201 	orr.w	r2, r2, #1
 8001000:	64da      	str	r2, [r3, #76]	@ 0x4c
 8001002:	6cda      	ldr	r2, [r3, #76]	@ 0x4c
 8001004:	f002 0201 	and.w	r2, r2, #1
 8001008:	9202      	str	r2, [sp, #8]
 800100a:	9a02      	ldr	r2, [sp, #8]
 800100c:	6cda      	ldr	r2, [r3, #76]	@ 0x4c
 800100e:	f042 0202 	orr.w	r2, r2, #2
 8001012:	64da      	str	r2, [r3, #76]	@ 0x4c
 8001014:	6cdb      	ldr	r3, [r3, #76]	@ 0x4c
 8001016:	f003 0302 	and.w	r3, r3, #2
 800101a:	9303      	str	r3, [sp, #12]
 800101c:	2200      	movs	r2, #0
 800101e:	2140      	movs	r1, #64	@ 0x40
 8001020:	f04f 4090 	mov.w	r0, #1207959552	@ 0x48000000
 8001024:	9b03      	ldr	r3, [sp, #12]
 8001026:	f001 faef 	bl	8002608 <HAL_GPIO_WritePin>
 800102a:	4905      	ldr	r1, [pc, #20]	@ (8001040 <GPIO_Init+0x5c>)
 800102c:	f04f 4090 	mov.w	r0, #1207959552	@ 0x48000000
 8001030:	b005      	add	sp, #20
 8001032:	f85d eb04 	ldr.w	lr, [sp], #4
 8001036:	f001 ba29 	b.w	800248c <HAL_GPIO_Init>
 800103a:	bf00      	nop
 800103c:	40021000 	.word	0x40021000
 8001040:	20000000 	.word	0x20000000

08001044 <GPIO_PinConfigSet>:
 8001044:	b978      	cbnz	r0, 8001066 <GPIO_PinConfigSet+0x22>
 8001046:	1c48      	adds	r0, r1, #1
 8001048:	d111      	bne.n	800106e <GPIO_PinConfigSet+0x2a>
 800104a:	1c51      	adds	r1, r2, #1
 800104c:	bf1c      	itt	ne
 800104e:	4909      	ldrne	r1, [pc, #36]	@ (8001074 <GPIO_PinConfigSet+0x30>)
 8001050:	608a      	strne	r2, [r1, #8]
 8001052:	1c5a      	adds	r2, r3, #1
 8001054:	bf18      	it	ne
 8001056:	4a07      	ldrne	r2, [pc, #28]	@ (8001074 <GPIO_PinConfigSet+0x30>)
 8001058:	4906      	ldr	r1, [pc, #24]	@ (8001074 <GPIO_PinConfigSet+0x30>)
 800105a:	bf18      	it	ne
 800105c:	60d3      	strne	r3, [r2, #12]
 800105e:	f04f 4090 	mov.w	r0, #1207959552	@ 0x48000000
 8001062:	f001 ba13 	b.w	800248c <HAL_GPIO_Init>
 8001066:	4804      	ldr	r0, [pc, #16]	@ (8001078 <GPIO_PinConfigSet+0x34>)
 8001068:	2198      	movs	r1, #152	@ 0x98
 800106a:	f000 bb6d 	b.w	8001748 <UART_AssertionFailed>
 800106e:	4801      	ldr	r0, [pc, #4]	@ (8001074 <GPIO_PinConfigSet+0x30>)
 8001070:	6041      	str	r1, [r0, #4]
 8001072:	e7ea      	b.n	800104a <GPIO_PinConfigSet+0x6>
 8001074:	20000000 	.word	0x20000000
 8001078:	0800be05 	.word	0x0800be05

0800107c <GPIO_PinConfigModeGet>:
 800107c:	4b02      	ldr	r3, [pc, #8]	@ (8001088 <GPIO_PinConfigModeGet+0xc>)
 800107e:	2214      	movs	r2, #20
 8001080:	fb02 3300 	mla	r3, r2, r0, r3
 8001084:	6858      	ldr	r0, [r3, #4]
 8001086:	4770      	bx	lr
 8001088:	20000000 	.word	0x20000000

0800108c <GPIO_PinConfigPullGet>:
 800108c:	4b02      	ldr	r3, [pc, #8]	@ (8001098 <GPIO_PinConfigPullGet+0xc>)
 800108e:	2214      	movs	r2, #20
 8001090:	fb02 3300 	mla	r3, r2, r0, r3
 8001094:	6898      	ldr	r0, [r3, #8]
 8001096:	4770      	bx	lr
 8001098:	20000000 	.word	0x20000000

0800109c <GPIO_PinConfigSpeedGet>:
 800109c:	4b02      	ldr	r3, [pc, #8]	@ (80010a8 <GPIO_PinConfigSpeedGet+0xc>)
 800109e:	2214      	movs	r2, #20
 80010a0:	fb02 3300 	mla	r3, r2, r0, r3
 80010a4:	68d8      	ldr	r0, [r3, #12]
 80010a6:	4770      	bx	lr
 80010a8:	20000000 	.word	0x20000000

080010ac <GPIO_PinWrite>:
 80010ac:	b938      	cbnz	r0, 80010be <GPIO_PinWrite+0x12>
 80010ae:	1e0a      	subs	r2, r1, #0
 80010b0:	bf18      	it	ne
 80010b2:	2201      	movne	r2, #1
 80010b4:	2140      	movs	r1, #64	@ 0x40
 80010b6:	f04f 4090 	mov.w	r0, #1207959552	@ 0x48000000
 80010ba:	f001 baa5 	b.w	8002608 <HAL_GPIO_WritePin>
 80010be:	4802      	ldr	r0, [pc, #8]	@ (80010c8 <GPIO_PinWrite+0x1c>)
 80010c0:	21f6      	movs	r1, #246	@ 0xf6
 80010c2:	f000 bb41 	b.w	8001748 <UART_AssertionFailed>
 80010c6:	bf00      	nop
 80010c8:	0800bdf7 	.word	0x0800bdf7

080010cc <GPIO_PinRead>:
 80010cc:	b508      	push	{r3, lr}
 80010ce:	b940      	cbnz	r0, 80010e2 <GPIO_PinRead+0x16>
 80010d0:	2140      	movs	r1, #64	@ 0x40
 80010d2:	f04f 4090 	mov.w	r0, #1207959552	@ 0x48000000
 80010d6:	f001 fa91 	bl	80025fc <HAL_GPIO_ReadPin>
 80010da:	3800      	subs	r0, #0
 80010dc:	bf18      	it	ne
 80010de:	2001      	movne	r0, #1
 80010e0:	bd08      	pop	{r3, pc}
 80010e2:	4803      	ldr	r0, [pc, #12]	@ (80010f0 <GPIO_PinRead+0x24>)
 80010e4:	f44f 7189 	mov.w	r1, #274	@ 0x112
 80010e8:	f000 fb2e 	bl	8001748 <UART_AssertionFailed>
 80010ec:	2000      	movs	r0, #0
 80010ee:	e7f7      	b.n	80010e0 <GPIO_PinRead+0x14>
 80010f0:	0800bdea 	.word	0x0800bdea

080010f4 <GPIO_LedWrite>:
 80010f4:	1e02      	subs	r2, r0, #0
 80010f6:	bf18      	it	ne
 80010f8:	2201      	movne	r2, #1
 80010fa:	4802      	ldr	r0, [pc, #8]	@ (8001104 <GPIO_LedWrite+0x10>)
 80010fc:	2108      	movs	r1, #8
 80010fe:	f001 ba83 	b.w	8002608 <HAL_GPIO_WritePin>
 8001102:	bf00      	nop
 8001104:	48000400 	.word	0x48000400

08001108 <SCPI_Error>:
 8001108:	2000      	movs	r0, #0
 800110a:	4770      	bx	lr

0800110c <SCPI_Control>:
 800110c:	2001      	movs	r0, #1
 800110e:	4770      	bx	lr

08001110 <SCPI_Reset>:
 8001110:	2001      	movs	r0, #1
 8001112:	4770      	bx	lr

08001114 <SCPI_PwmNumbersQ>:
 8001114:	b508      	push	{r3, lr}
 8001116:	4b03      	ldr	r3, [pc, #12]	@ (8001124 <SCPI_PwmNumbersQ+0x10>)
 8001118:	220a      	movs	r2, #10
 800111a:	6919      	ldr	r1, [r3, #16]
 800111c:	f004 f911 	bl	8005342 <SCPI_ResultUInt32Base>
 8001120:	2001      	movs	r0, #1
 8001122:	bd08      	pop	{r3, pc}
 8001124:	20000014 	.word	0x20000014

08001128 <SCPI_PwmNumbers>:
 8001128:	b530      	push	{r4, r5, lr}
 800112a:	b087      	sub	sp, #28
 800112c:	490d      	ldr	r1, [pc, #52]	@ (8001164 <SCPI_PwmNumbers+0x3c>)
 800112e:	2301      	movs	r3, #1
 8001130:	466a      	mov	r2, sp
 8001132:	f004 ff89 	bl	8006048 <SCPI_ParamNumber>
 8001136:	b188      	cbz	r0, 800115c <SCPI_PwmNumbers+0x34>
 8001138:	e9dd 4502 	ldrd	r4, r5, [sp, #8]
 800113c:	2200      	movs	r2, #0
 800113e:	2300      	movs	r3, #0
 8001140:	4620      	mov	r0, r4
 8001142:	4629      	mov	r1, r5
 8001144:	f7ff fcca 	bl	8000adc <__aeabi_dcmplt>
 8001148:	b940      	cbnz	r0, 800115c <SCPI_PwmNumbers+0x34>
 800114a:	4620      	mov	r0, r4
 800114c:	4629      	mov	r1, r5
 800114e:	f7ff fced 	bl	8000b2c <__aeabi_d2uiz>
 8001152:	4b05      	ldr	r3, [pc, #20]	@ (8001168 <SCPI_PwmNumbers+0x40>)
 8001154:	6118      	str	r0, [r3, #16]
 8001156:	2001      	movs	r0, #1
 8001158:	b007      	add	sp, #28
 800115a:	bd30      	pop	{r4, r5, pc}
 800115c:	f04f 30ff 	mov.w	r0, #4294967295
 8001160:	e7fa      	b.n	8001158 <SCPI_PwmNumbers+0x30>
 8001162:	bf00      	nop
 8001164:	0800c270 	.word	0x0800c270
 8001168:	20000014 	.word	0x20000014

0800116c <SCPI_GpioSelect>:
 800116c:	b530      	push	{r4, r5, lr}
 800116e:	b087      	sub	sp, #28
 8001170:	4913      	ldr	r1, [pc, #76]	@ (80011c0 <SCPI_GpioSelect+0x54>)
 8001172:	2301      	movs	r3, #1
 8001174:	466a      	mov	r2, sp
 8001176:	f004 ff67 	bl	8006048 <SCPI_ParamNumber>
 800117a:	b1e8      	cbz	r0, 80011b8 <SCPI_GpioSelect+0x4c>
 800117c:	e9dd 4502 	ldrd	r4, r5, [sp, #8]
 8001180:	2200      	movs	r2, #0
 8001182:	2300      	movs	r3, #0
 8001184:	4620      	mov	r0, r4
 8001186:	4629      	mov	r1, r5
 8001188:	f7ff fcc6 	bl	8000b18 <__aeabi_dcmpgt>
 800118c:	b1a0      	cbz	r0, 80011b8 <SCPI_GpioSelect+0x4c>
 800118e:	2200      	movs	r2, #0
 8001190:	f04f 4380 	mov.w	r3, #1073741824	@ 0x40000000
 8001194:	4620      	mov	r0, r4
 8001196:	4629      	mov	r1, r5
 8001198:	f7ff fca0 	bl	8000adc <__aeabi_dcmplt>
 800119c:	b160      	cbz	r0, 80011b8 <SCPI_GpioSelect+0x4c>
 800119e:	4b09      	ldr	r3, [pc, #36]	@ (80011c4 <SCPI_GpioSelect+0x58>)
 80011a0:	2200      	movs	r2, #0
 80011a2:	4620      	mov	r0, r4
 80011a4:	4629      	mov	r1, r5
 80011a6:	f7ff f86f 	bl	8000288 <__aeabi_dsub>
 80011aa:	f7ff fcbf 	bl	8000b2c <__aeabi_d2uiz>
 80011ae:	4b06      	ldr	r3, [pc, #24]	@ (80011c8 <SCPI_GpioSelect+0x5c>)
 80011b0:	7018      	strb	r0, [r3, #0]
 80011b2:	2001      	movs	r0, #1
 80011b4:	b007      	add	sp, #28
 80011b6:	bd30      	pop	{r4, r5, pc}
 80011b8:	f04f 30ff 	mov.w	r0, #4294967295
 80011bc:	e7fa      	b.n	80011b4 <SCPI_GpioSelect+0x48>
 80011be:	bf00      	nop
 80011c0:	0800c270 	.word	0x0800c270
 80011c4:	3ff00000 	.word	0x3ff00000
 80011c8:	2000032e 	.word	0x2000032e

080011cc <SCPI_PwmStartQ>:
 80011cc:	b508      	push	{r3, lr}
 80011ce:	4b03      	ldr	r3, [pc, #12]	@ (80011dc <SCPI_PwmStartQ+0x10>)
 80011d0:	7a59      	ldrb	r1, [r3, #9]
 80011d2:	f004 f9d3 	bl	800557c <SCPI_ResultBool>
 80011d6:	2001      	movs	r0, #1
 80011d8:	bd08      	pop	{r3, pc}
 80011da:	bf00      	nop
 80011dc:	20000014 	.word	0x20000014

080011e0 <SCPI_PwmPolarityQ>:
 80011e0:	b508      	push	{r3, lr}
 80011e2:	4b03      	ldr	r3, [pc, #12]	@ (80011f0 <SCPI_PwmPolarityQ+0x10>)
 80011e4:	7a19      	ldrb	r1, [r3, #8]
 80011e6:	f004 f9c9 	bl	800557c <SCPI_ResultBool>
 80011ea:	2001      	movs	r0, #1
 80011ec:	bd08      	pop	{r3, pc}
 80011ee:	bf00      	nop
 80011f0:	20000014 	.word	0x20000014

080011f4 <SCPI_PwmStart>:
 80011f4:	b537      	push	{r0, r1, r2, r4, r5, lr}
 80011f6:	2201      	movs	r2, #1
 80011f8:	f10d 0107 	add.w	r1, sp, #7
 80011fc:	f004 fcb2 	bl	8005b64 <SCPI_ParamBool>
 8001200:	2800      	cmp	r0, #0
 8001202:	d052      	beq.n	80012aa <SCPI_PwmStart+0xb6>
 8001204:	f89d 5007 	ldrb.w	r5, [sp, #7]
 8001208:	4c29      	ldr	r4, [pc, #164]	@ (80012b0 <SCPI_PwmStart+0xbc>)
 800120a:	7265      	strb	r5, [r4, #9]
 800120c:	2d00      	cmp	r5, #0
 800120e:	d03e      	beq.n	800128e <SCPI_PwmStart+0x9a>
 8001210:	4d28      	ldr	r5, [pc, #160]	@ (80012b4 <SCPI_PwmStart+0xc0>)
 8001212:	4628      	mov	r0, r5
 8001214:	f002 f94e 	bl	80034b4 <HAL_TIM_Base_Stop>
 8001218:	4827      	ldr	r0, [pc, #156]	@ (80012b8 <SCPI_PwmStart+0xc4>)
 800121a:	f002 f989 	bl	8003530 <HAL_TIM_Base_Stop_IT>
 800121e:	2100      	movs	r1, #0
 8001220:	4825      	ldr	r0, [pc, #148]	@ (80012b8 <SCPI_PwmStart+0xc4>)
 8001222:	f002 fd8f 	bl	8003d44 <HAL_TIM_PWM_Stop>
 8001226:	2000      	movs	r0, #0
 8001228:	f000 fc16 	bl	8001a58 <pwm_run_state_set>
 800122c:	e9d4 0100 	ldrd	r0, r1, [r4]
 8001230:	7a22      	ldrb	r2, [r4, #8]
 8001232:	f000 fcd1 	bl	8001bd8 <pwm_setup>
 8001236:	6920      	ldr	r0, [r4, #16]
 8001238:	f000 fbf6 	bl	8001a28 <pwm_numbers_set>
 800123c:	f000 fbfe 	bl	8001a3c <pwm_shot_count_reset>
 8001240:	2001      	movs	r0, #1
 8001242:	f000 fc09 	bl	8001a58 <pwm_run_state_set>
 8001246:	682b      	ldr	r3, [r5, #0]
 8001248:	f06f 0201 	mvn.w	r2, #1
 800124c:	611a      	str	r2, [r3, #16]
 800124e:	4628      	mov	r0, r5
 8001250:	f002 f90a 	bl	8003468 <HAL_TIM_Base_Start>
 8001254:	b108      	cbz	r0, 800125a <SCPI_PwmStart+0x66>
 8001256:	f000 fb47 	bl	80018e8 <Error_Handler>
 800125a:	4c17      	ldr	r4, [pc, #92]	@ (80012b8 <SCPI_PwmStart+0xc4>)
 800125c:	6823      	ldr	r3, [r4, #0]
 800125e:	2500      	movs	r5, #0
 8001260:	f06f 0201 	mvn.w	r2, #1
 8001264:	625d      	str	r5, [r3, #36]	@ 0x24
 8001266:	2019      	movs	r0, #25
 8001268:	611a      	str	r2, [r3, #16]
 800126a:	f000 ffcd 	bl	8002208 <HAL_NVIC_ClearPendingIRQ>
 800126e:	4629      	mov	r1, r5
 8001270:	4620      	mov	r0, r4
 8001272:	f002 fd15 	bl	8003ca0 <HAL_TIM_PWM_Start>
 8001276:	b108      	cbz	r0, 800127c <SCPI_PwmStart+0x88>
 8001278:	f000 fb36 	bl	80018e8 <Error_Handler>
 800127c:	480e      	ldr	r0, [pc, #56]	@ (80012b8 <SCPI_PwmStart+0xc4>)
 800127e:	f002 f92d 	bl	80034dc <HAL_TIM_Base_Start_IT>
 8001282:	b108      	cbz	r0, 8001288 <SCPI_PwmStart+0x94>
 8001284:	f000 fb30 	bl	80018e8 <Error_Handler>
 8001288:	2001      	movs	r0, #1
 800128a:	b003      	add	sp, #12
 800128c:	bd30      	pop	{r4, r5, pc}
 800128e:	4809      	ldr	r0, [pc, #36]	@ (80012b4 <SCPI_PwmStart+0xc0>)
 8001290:	f002 f910 	bl	80034b4 <HAL_TIM_Base_Stop>
 8001294:	4808      	ldr	r0, [pc, #32]	@ (80012b8 <SCPI_PwmStart+0xc4>)
 8001296:	f002 f94b 	bl	8003530 <HAL_TIM_Base_Stop_IT>
 800129a:	4629      	mov	r1, r5
 800129c:	4806      	ldr	r0, [pc, #24]	@ (80012b8 <SCPI_PwmStart+0xc4>)
 800129e:	f002 fd51 	bl	8003d44 <HAL_TIM_PWM_Stop>
 80012a2:	4628      	mov	r0, r5
 80012a4:	f000 fbd8 	bl	8001a58 <pwm_run_state_set>
 80012a8:	e7ee      	b.n	8001288 <SCPI_PwmStart+0x94>
 80012aa:	f04f 30ff 	mov.w	r0, #4294967295
 80012ae:	e7ec      	b.n	800128a <SCPI_PwmStart+0x96>
 80012b0:	20000014 	.word	0x20000014
 80012b4:	200005fc 	.word	0x200005fc
 80012b8:	20000648 	.word	0x20000648

080012bc <SCPI_PwmWidthQ>:
 80012bc:	b508      	push	{r3, lr}
 80012be:	4b03      	ldr	r3, [pc, #12]	@ (80012cc <SCPI_PwmWidthQ+0x10>)
 80012c0:	6859      	ldr	r1, [r3, #4]
 80012c2:	f004 f82e 	bl	8005322 <SCPI_ResultInt32>
 80012c6:	2001      	movs	r0, #1
 80012c8:	bd08      	pop	{r3, pc}
 80012ca:	bf00      	nop
 80012cc:	20000014 	.word	0x20000014

080012d0 <SCPI_PwmFrequencyQ>:
 80012d0:	b508      	push	{r3, lr}
 80012d2:	4b03      	ldr	r3, [pc, #12]	@ (80012e0 <SCPI_PwmFrequencyQ+0x10>)
 80012d4:	6819      	ldr	r1, [r3, #0]
 80012d6:	f004 f824 	bl	8005322 <SCPI_ResultInt32>
 80012da:	2001      	movs	r0, #1
 80012dc:	bd08      	pop	{r3, pc}
 80012de:	bf00      	nop
 80012e0:	20000014 	.word	0x20000014

080012e4 <SCPI_GpioSelectQ>:
 80012e4:	b508      	push	{r3, lr}
 80012e6:	4b03      	ldr	r3, [pc, #12]	@ (80012f4 <SCPI_GpioSelectQ+0x10>)
 80012e8:	7819      	ldrb	r1, [r3, #0]
 80012ea:	3101      	adds	r1, #1
 80012ec:	f004 f819 	bl	8005322 <SCPI_ResultInt32>
 80012f0:	2001      	movs	r0, #1
 80012f2:	bd08      	pop	{r3, pc}
 80012f4:	2000032e 	.word	0x2000032e

080012f8 <My_CoreTstQ>:
 80012f8:	b508      	push	{r3, lr}
 80012fa:	2100      	movs	r1, #0
 80012fc:	f004 f811 	bl	8005322 <SCPI_ResultInt32>
 8001300:	2001      	movs	r0, #1
 8001302:	bd08      	pop	{r3, pc}

08001304 <SCPI_GpioSpeedQ>:
 8001304:	b537      	push	{r0, r1, r2, r4, r5, lr}
 8001306:	4b0b      	ldr	r3, [pc, #44]	@ (8001334 <SCPI_GpioSpeedQ+0x30>)
 8001308:	4604      	mov	r4, r0
 800130a:	7818      	ldrb	r0, [r3, #0]
 800130c:	f7ff fec6 	bl	800109c <GPIO_PinConfigSpeedGet>
 8001310:	aa01      	add	r2, sp, #4
 8001312:	4601      	mov	r1, r0
 8001314:	4808      	ldr	r0, [pc, #32]	@ (8001338 <SCPI_GpioSpeedQ+0x34>)
 8001316:	f004 fbf9 	bl	8005b0c <SCPI_ChoiceToName>
 800131a:	9d01      	ldr	r5, [sp, #4]
 800131c:	4628      	mov	r0, r5
 800131e:	f7fe ff57 	bl	80001d0 <strlen>
 8001322:	4629      	mov	r1, r5
 8001324:	4602      	mov	r2, r0
 8001326:	4620      	mov	r0, r4
 8001328:	f003 ff6e 	bl	8005208 <SCPI_ResultCharacters>
 800132c:	2001      	movs	r0, #1
 800132e:	b003      	add	sp, #12
 8001330:	bd30      	pop	{r4, r5, pc}
 8001332:	bf00      	nop
 8001334:	2000032e 	.word	0x2000032e
 8001338:	0800bff8 	.word	0x0800bff8

0800133c <SCPI_GpioSpeed>:
 800133c:	b507      	push	{r0, r1, r2, lr}
 800133e:	2301      	movs	r3, #1
 8001340:	4909      	ldr	r1, [pc, #36]	@ (8001368 <SCPI_GpioSpeed+0x2c>)
 8001342:	aa01      	add	r2, sp, #4
 8001344:	f004 fc62 	bl	8005c0c <SCPI_ParamChoice>
 8001348:	b158      	cbz	r0, 8001362 <SCPI_GpioSpeed+0x26>
 800134a:	4808      	ldr	r0, [pc, #32]	@ (800136c <SCPI_GpioSpeed+0x30>)
 800134c:	9b01      	ldr	r3, [sp, #4]
 800134e:	7800      	ldrb	r0, [r0, #0]
 8001350:	f04f 32ff 	mov.w	r2, #4294967295
 8001354:	4611      	mov	r1, r2
 8001356:	f7ff fe75 	bl	8001044 <GPIO_PinConfigSet>
 800135a:	2001      	movs	r0, #1
 800135c:	b003      	add	sp, #12
 800135e:	f85d fb04 	ldr.w	pc, [sp], #4
 8001362:	f04f 30ff 	mov.w	r0, #4294967295
 8001366:	e7f9      	b.n	800135c <SCPI_GpioSpeed+0x20>
 8001368:	0800bff8 	.word	0x0800bff8
 800136c:	2000032e 	.word	0x2000032e

08001370 <SCPI_GpioPull>:
 8001370:	b507      	push	{r0, r1, r2, lr}
 8001372:	2301      	movs	r3, #1
 8001374:	4909      	ldr	r1, [pc, #36]	@ (800139c <SCPI_GpioPull+0x2c>)
 8001376:	aa01      	add	r2, sp, #4
 8001378:	f004 fc48 	bl	8005c0c <SCPI_ParamChoice>
 800137c:	b158      	cbz	r0, 8001396 <SCPI_GpioPull+0x26>
 800137e:	4808      	ldr	r0, [pc, #32]	@ (80013a0 <SCPI_GpioPull+0x30>)
 8001380:	9a01      	ldr	r2, [sp, #4]
 8001382:	7800      	ldrb	r0, [r0, #0]
 8001384:	f04f 33ff 	mov.w	r3, #4294967295
 8001388:	4619      	mov	r1, r3
 800138a:	f7ff fe5b 	bl	8001044 <GPIO_PinConfigSet>
 800138e:	2001      	movs	r0, #1
 8001390:	b003      	add	sp, #12
 8001392:	f85d fb04 	ldr.w	pc, [sp], #4
 8001396:	f04f 30ff 	mov.w	r0, #4294967295
 800139a:	e7f9      	b.n	8001390 <SCPI_GpioPull+0x20>
 800139c:	0800c020 	.word	0x0800c020
 80013a0:	2000032e 	.word	0x2000032e

080013a4 <SCPI_GpioDirection>:
 80013a4:	b507      	push	{r0, r1, r2, lr}
 80013a6:	2301      	movs	r3, #1
 80013a8:	4909      	ldr	r1, [pc, #36]	@ (80013d0 <SCPI_GpioDirection+0x2c>)
 80013aa:	aa01      	add	r2, sp, #4
 80013ac:	f004 fc2e 	bl	8005c0c <SCPI_ParamChoice>
 80013b0:	b158      	cbz	r0, 80013ca <SCPI_GpioDirection+0x26>
 80013b2:	4808      	ldr	r0, [pc, #32]	@ (80013d4 <SCPI_GpioDirection+0x30>)
 80013b4:	9901      	ldr	r1, [sp, #4]
 80013b6:	7800      	ldrb	r0, [r0, #0]
 80013b8:	f04f 33ff 	mov.w	r3, #4294967295
 80013bc:	461a      	mov	r2, r3
 80013be:	f7ff fe41 	bl	8001044 <GPIO_PinConfigSet>
 80013c2:	2001      	movs	r0, #1
 80013c4:	b003      	add	sp, #12
 80013c6:	f85d fb04 	ldr.w	pc, [sp], #4
 80013ca:	f04f 30ff 	mov.w	r0, #4294967295
 80013ce:	e7f9      	b.n	80013c4 <SCPI_GpioDirection+0x20>
 80013d0:	0800c040 	.word	0x0800c040
 80013d4:	2000032e 	.word	0x2000032e

080013d8 <SCPI_GpioPullQ>:
 80013d8:	b537      	push	{r0, r1, r2, r4, r5, lr}
 80013da:	4b0b      	ldr	r3, [pc, #44]	@ (8001408 <SCPI_GpioPullQ+0x30>)
 80013dc:	4604      	mov	r4, r0
 80013de:	7818      	ldrb	r0, [r3, #0]
 80013e0:	f7ff fe54 	bl	800108c <GPIO_PinConfigPullGet>
 80013e4:	aa01      	add	r2, sp, #4
 80013e6:	4601      	mov	r1, r0
 80013e8:	4808      	ldr	r0, [pc, #32]	@ (800140c <SCPI_GpioPullQ+0x34>)
 80013ea:	f004 fb8f 	bl	8005b0c <SCPI_ChoiceToName>
 80013ee:	9d01      	ldr	r5, [sp, #4]
 80013f0:	4628      	mov	r0, r5
 80013f2:	f7fe feed 	bl	80001d0 <strlen>
 80013f6:	4629      	mov	r1, r5
 80013f8:	4602      	mov	r2, r0
 80013fa:	4620      	mov	r0, r4
 80013fc:	f003 ff04 	bl	8005208 <SCPI_ResultCharacters>
 8001400:	2001      	movs	r0, #1
 8001402:	b003      	add	sp, #12
 8001404:	bd30      	pop	{r4, r5, pc}
 8001406:	bf00      	nop
 8001408:	2000032e 	.word	0x2000032e
 800140c:	0800c020 	.word	0x0800c020

08001410 <SCPI_GpioLevelQ>:
 8001410:	b510      	push	{r4, lr}
 8001412:	4b05      	ldr	r3, [pc, #20]	@ (8001428 <SCPI_GpioLevelQ+0x18>)
 8001414:	4604      	mov	r4, r0
 8001416:	7818      	ldrb	r0, [r3, #0]
 8001418:	f7ff fe58 	bl	80010cc <GPIO_PinRead>
 800141c:	4601      	mov	r1, r0
 800141e:	4620      	mov	r0, r4
 8001420:	f003 ff7f 	bl	8005322 <SCPI_ResultInt32>
 8001424:	2001      	movs	r0, #1
 8001426:	bd10      	pop	{r4, pc}
 8001428:	2000032e 	.word	0x2000032e

0800142c <SCPI_GpioLevel>:
 800142c:	b507      	push	{r0, r1, r2, lr}
 800142e:	2201      	movs	r2, #1
 8001430:	f10d 0107 	add.w	r1, sp, #7
 8001434:	f004 fb96 	bl	8005b64 <SCPI_ParamBool>
 8001438:	b148      	cbz	r0, 800144e <SCPI_GpioLevel+0x22>
 800143a:	4b06      	ldr	r3, [pc, #24]	@ (8001454 <SCPI_GpioLevel+0x28>)
 800143c:	f89d 1007 	ldrb.w	r1, [sp, #7]
 8001440:	7818      	ldrb	r0, [r3, #0]
 8001442:	f7ff fe33 	bl	80010ac <GPIO_PinWrite>
 8001446:	2001      	movs	r0, #1
 8001448:	b003      	add	sp, #12
 800144a:	f85d fb04 	ldr.w	pc, [sp], #4
 800144e:	f04f 30ff 	mov.w	r0, #4294967295
 8001452:	e7f9      	b.n	8001448 <SCPI_GpioLevel+0x1c>
 8001454:	2000032e 	.word	0x2000032e

08001458 <SCPI_GpioDirectionQ>:
 8001458:	b537      	push	{r0, r1, r2, r4, r5, lr}
 800145a:	4b0b      	ldr	r3, [pc, #44]	@ (8001488 <SCPI_GpioDirectionQ+0x30>)
 800145c:	4604      	mov	r4, r0
 800145e:	7818      	ldrb	r0, [r3, #0]
 8001460:	f7ff fe0c 	bl	800107c <GPIO_PinConfigModeGet>
 8001464:	aa01      	add	r2, sp, #4
 8001466:	4601      	mov	r1, r0
 8001468:	4808      	ldr	r0, [pc, #32]	@ (800148c <SCPI_GpioDirectionQ+0x34>)
 800146a:	f004 fb4f 	bl	8005b0c <SCPI_ChoiceToName>
 800146e:	9d01      	ldr	r5, [sp, #4]
 8001470:	4628      	mov	r0, r5
 8001472:	f7fe fead 	bl	80001d0 <strlen>
 8001476:	4629      	mov	r1, r5
 8001478:	4602      	mov	r2, r0
 800147a:	4620      	mov	r0, r4
 800147c:	f003 fec4 	bl	8005208 <SCPI_ResultCharacters>
 8001480:	2001      	movs	r0, #1
 8001482:	b003      	add	sp, #12
 8001484:	bd30      	pop	{r4, r5, pc}
 8001486:	bf00      	nop
 8001488:	2000032e 	.word	0x2000032e
 800148c:	0800c040 	.word	0x0800c040

08001490 <SCPI_SystemLed>:
 8001490:	b507      	push	{r0, r1, r2, lr}
 8001492:	2201      	movs	r2, #1
 8001494:	f10d 0107 	add.w	r1, sp, #7
 8001498:	f004 fb64 	bl	8005b64 <SCPI_ParamBool>
 800149c:	b138      	cbz	r0, 80014ae <SCPI_SystemLed+0x1e>
 800149e:	f89d 0007 	ldrb.w	r0, [sp, #7]
 80014a2:	f7ff fe27 	bl	80010f4 <GPIO_LedWrite>
 80014a6:	2001      	movs	r0, #1
 80014a8:	b003      	add	sp, #12
 80014aa:	f85d fb04 	ldr.w	pc, [sp], #4
 80014ae:	f04f 30ff 	mov.w	r0, #4294967295
 80014b2:	e7f9      	b.n	80014a8 <SCPI_SystemLed+0x18>

080014b4 <SCPI_Write>:
 80014b4:	b508      	push	{r3, lr}
 80014b6:	4608      	mov	r0, r1
 80014b8:	4611      	mov	r1, r2
 80014ba:	f000 f926 	bl	800170a <UART_Put>
 80014be:	2001      	movs	r0, #1
 80014c0:	bd08      	pop	{r3, pc}

080014c2 <SCPI_Flush>:
 80014c2:	2001      	movs	r0, #1
 80014c4:	4770      	bx	lr
	...

080014c8 <SetPulseCount>:
 80014c8:	b672      	cpsid	i
 80014ca:	4b02      	ldr	r3, [pc, #8]	@ (80014d4 <SetPulseCount+0xc>)
 80014cc:	681b      	ldr	r3, [r3, #0]
 80014ce:	6258      	str	r0, [r3, #36]	@ 0x24
 80014d0:	b662      	cpsie	i
 80014d2:	4770      	bx	lr
 80014d4:	200005fc 	.word	0x200005fc

080014d8 <SCPI_PwmCounter>:
 80014d8:	b57f      	push	{r0, r1, r2, r3, r4, r5, r6, lr}
 80014da:	490b      	ldr	r1, [pc, #44]	@ (8001508 <SCPI_PwmCounter+0x30>)
 80014dc:	2301      	movs	r3, #1
 80014de:	466a      	mov	r2, sp
 80014e0:	f004 fdb2 	bl	8006048 <SCPI_ParamNumber>
 80014e4:	b160      	cbz	r0, 8001500 <SCPI_PwmCounter+0x28>
 80014e6:	e9dd 0102 	ldrd	r0, r1, [sp, #8]
 80014ea:	f7ff fb1f 	bl	8000b2c <__aeabi_d2uiz>
 80014ee:	4b07      	ldr	r3, [pc, #28]	@ (800150c <SCPI_PwmCounter+0x34>)
 80014f0:	60d8      	str	r0, [r3, #12]
 80014f2:	b280      	uxth	r0, r0
 80014f4:	f7ff ffe8 	bl	80014c8 <SetPulseCount>
 80014f8:	2001      	movs	r0, #1
 80014fa:	b007      	add	sp, #28
 80014fc:	f85d fb04 	ldr.w	pc, [sp], #4
 8001500:	f04f 30ff 	mov.w	r0, #4294967295
 8001504:	e7f9      	b.n	80014fa <SCPI_PwmCounter+0x22>
 8001506:	bf00      	nop
 8001508:	0800c270 	.word	0x0800c270
 800150c:	20000014 	.word	0x20000014

08001510 <GetPulseCount>:
 8001510:	b672      	cpsid	i
 8001512:	4b02      	ldr	r3, [pc, #8]	@ (800151c <GetPulseCount+0xc>)
 8001514:	681b      	ldr	r3, [r3, #0]
 8001516:	6a58      	ldr	r0, [r3, #36]	@ 0x24
 8001518:	b662      	cpsie	i
 800151a:	4770      	bx	lr
 800151c:	200005fc 	.word	0x200005fc

08001520 <SCPI_PwmCounterQ>:
 8001520:	b510      	push	{r4, lr}
 8001522:	4604      	mov	r4, r0
 8001524:	f7ff fff4 	bl	8001510 <GetPulseCount>
 8001528:	4b04      	ldr	r3, [pc, #16]	@ (800153c <SCPI_PwmCounterQ+0x1c>)
 800152a:	4601      	mov	r1, r0
 800152c:	60d8      	str	r0, [r3, #12]
 800152e:	220a      	movs	r2, #10
 8001530:	4620      	mov	r0, r4
 8001532:	f003 ff06 	bl	8005342 <SCPI_ResultUInt32Base>
 8001536:	2001      	movs	r0, #1
 8001538:	bd10      	pop	{r4, pc}
 800153a:	bf00      	nop
 800153c:	20000014 	.word	0x20000014

08001540 <pwm_start_state_set>:
 8001540:	4b01      	ldr	r3, [pc, #4]	@ (8001548 <pwm_start_state_set+0x8>)
 8001542:	7258      	strb	r0, [r3, #9]
 8001544:	4770      	bx	lr
 8001546:	bf00      	nop
 8001548:	20000014 	.word	0x20000014

0800154c <SCPI_PwmReset>:
 800154c:	b510      	push	{r4, lr}
 800154e:	4c0b      	ldr	r4, [pc, #44]	@ (800157c <SCPI_PwmReset+0x30>)
 8001550:	480b      	ldr	r0, [pc, #44]	@ (8001580 <SCPI_PwmReset+0x34>)
 8001552:	f001 ffaf 	bl	80034b4 <HAL_TIM_Base_Stop>
 8001556:	4620      	mov	r0, r4
 8001558:	f001 ffea 	bl	8003530 <HAL_TIM_Base_Stop_IT>
 800155c:	2100      	movs	r1, #0
 800155e:	4620      	mov	r0, r4
 8001560:	4c08      	ldr	r4, [pc, #32]	@ (8001584 <SCPI_PwmReset+0x38>)
 8001562:	f002 fbef 	bl	8003d44 <HAL_TIM_PWM_Stop>
 8001566:	2000      	movs	r0, #0
 8001568:	f000 fa76 	bl	8001a58 <pwm_run_state_set>
 800156c:	e9d4 0100 	ldrd	r0, r1, [r4]
 8001570:	7a22      	ldrb	r2, [r4, #8]
 8001572:	f000 fb31 	bl	8001bd8 <pwm_setup>
 8001576:	2300      	movs	r3, #0
 8001578:	7263      	strb	r3, [r4, #9]
 800157a:	bd10      	pop	{r4, pc}
 800157c:	20000648 	.word	0x20000648
 8001580:	200005fc 	.word	0x200005fc
 8001584:	20000014 	.word	0x20000014

08001588 <SCPI_PwmPolarity>:
 8001588:	b507      	push	{r0, r1, r2, lr}
 800158a:	2201      	movs	r2, #1
 800158c:	f10d 0107 	add.w	r1, sp, #7
 8001590:	f004 fae8 	bl	8005b64 <SCPI_ParamBool>
 8001594:	b148      	cbz	r0, 80015aa <SCPI_PwmPolarity+0x22>
 8001596:	4b06      	ldr	r3, [pc, #24]	@ (80015b0 <SCPI_PwmPolarity+0x28>)
 8001598:	f89d 2007 	ldrb.w	r2, [sp, #7]
 800159c:	721a      	strb	r2, [r3, #8]
 800159e:	f7ff ffd5 	bl	800154c <SCPI_PwmReset>
 80015a2:	2001      	movs	r0, #1
 80015a4:	b003      	add	sp, #12
 80015a6:	f85d fb04 	ldr.w	pc, [sp], #4
 80015aa:	f04f 30ff 	mov.w	r0, #4294967295
 80015ae:	e7f9      	b.n	80015a4 <SCPI_PwmPolarity+0x1c>
 80015b0:	20000014 	.word	0x20000014

080015b4 <SCPI_PwmWidth>:
 80015b4:	b57f      	push	{r0, r1, r2, r3, r4, r5, r6, lr}
 80015b6:	490a      	ldr	r1, [pc, #40]	@ (80015e0 <SCPI_PwmWidth+0x2c>)
 80015b8:	2301      	movs	r3, #1
 80015ba:	466a      	mov	r2, sp
 80015bc:	f004 fd44 	bl	8006048 <SCPI_ParamNumber>
 80015c0:	b158      	cbz	r0, 80015da <SCPI_PwmWidth+0x26>
 80015c2:	e9dd 0102 	ldrd	r0, r1, [sp, #8]
 80015c6:	f7ff fab1 	bl	8000b2c <__aeabi_d2uiz>
 80015ca:	4b06      	ldr	r3, [pc, #24]	@ (80015e4 <SCPI_PwmWidth+0x30>)
 80015cc:	6058      	str	r0, [r3, #4]
 80015ce:	f7ff ffbd 	bl	800154c <SCPI_PwmReset>
 80015d2:	2001      	movs	r0, #1
 80015d4:	b007      	add	sp, #28
 80015d6:	f85d fb04 	ldr.w	pc, [sp], #4
 80015da:	f04f 30ff 	mov.w	r0, #4294967295
 80015de:	e7f9      	b.n	80015d4 <SCPI_PwmWidth+0x20>
 80015e0:	0800c270 	.word	0x0800c270
 80015e4:	20000014 	.word	0x20000014

080015e8 <SCPI_PwmFrequency>:
 80015e8:	b57f      	push	{r0, r1, r2, r3, r4, r5, r6, lr}
 80015ea:	490a      	ldr	r1, [pc, #40]	@ (8001614 <SCPI_PwmFrequency+0x2c>)
 80015ec:	2301      	movs	r3, #1
 80015ee:	466a      	mov	r2, sp
 80015f0:	f004 fd2a 	bl	8006048 <SCPI_ParamNumber>
 80015f4:	b158      	cbz	r0, 800160e <SCPI_PwmFrequency+0x26>
 80015f6:	e9dd 0102 	ldrd	r0, r1, [sp, #8]
 80015fa:	f7ff fa97 	bl	8000b2c <__aeabi_d2uiz>
 80015fe:	4b06      	ldr	r3, [pc, #24]	@ (8001618 <SCPI_PwmFrequency+0x30>)
 8001600:	6018      	str	r0, [r3, #0]
 8001602:	f7ff ffa3 	bl	800154c <SCPI_PwmReset>
 8001606:	2001      	movs	r0, #1
 8001608:	b007      	add	sp, #28
 800160a:	f85d fb04 	ldr.w	pc, [sp], #4
 800160e:	f04f 30ff 	mov.w	r0, #4294967295
 8001612:	e7f9      	b.n	8001608 <SCPI_PwmFrequency+0x20>
 8001614:	0800c270 	.word	0x0800c270
 8001618:	20000014 	.word	0x20000014

0800161c <UART_IsEmpty>:
 800161c:	4b06      	ldr	r3, [pc, #24]	@ (8001638 <UART_IsEmpty+0x1c>)
 800161e:	681b      	ldr	r3, [r3, #0]
 8001620:	6f5b      	ldr	r3, [r3, #116]	@ 0x74
 8001622:	681b      	ldr	r3, [r3, #0]
 8001624:	6858      	ldr	r0, [r3, #4]
 8001626:	4b05      	ldr	r3, [pc, #20]	@ (800163c <UART_IsEmpty+0x20>)
 8001628:	681b      	ldr	r3, [r3, #0]
 800162a:	4418      	add	r0, r3
 800162c:	f5a0 7380 	sub.w	r3, r0, #256	@ 0x100
 8001630:	4258      	negs	r0, r3
 8001632:	4158      	adcs	r0, r3
 8001634:	4770      	bx	lr
 8001636:	bf00      	nop
 8001638:	200005f4 	.word	0x200005f4
 800163c:	200004f0 	.word	0x200004f0

08001640 <HAL_UART_ErrorCallback>:
 8001640:	4b02      	ldr	r3, [pc, #8]	@ (800164c <HAL_UART_ErrorCallback+0xc>)
 8001642:	f8d0 2084 	ldr.w	r2, [r0, #132]	@ 0x84
 8001646:	601a      	str	r2, [r3, #0]
 8001648:	4770      	bx	lr
 800164a:	bf00      	nop
 800164c:	200004ec 	.word	0x200004ec

08001650 <UART_Read>:
 8001650:	4a0f      	ldr	r2, [pc, #60]	@ (8001690 <UART_Read+0x40>)
 8001652:	6813      	ldr	r3, [r2, #0]
 8001654:	b510      	push	{r4, lr}
 8001656:	b153      	cbz	r3, 800166e <UART_Read+0x1e>
 8001658:	2300      	movs	r3, #0
 800165a:	6013      	str	r3, [r2, #0]
 800165c:	4a0d      	ldr	r2, [pc, #52]	@ (8001694 <UART_Read+0x44>)
 800165e:	490e      	ldr	r1, [pc, #56]	@ (8001698 <UART_Read+0x48>)
 8001660:	6013      	str	r3, [r2, #0]
 8001662:	4b0e      	ldr	r3, [pc, #56]	@ (800169c <UART_Read+0x4c>)
 8001664:	f44f 7280 	mov.w	r2, #256	@ 0x100
 8001668:	6818      	ldr	r0, [r3, #0]
 800166a:	f003 f835 	bl	80046d8 <HAL_UART_Receive_DMA>
 800166e:	f7ff ffd5 	bl	800161c <UART_IsEmpty>
 8001672:	4603      	mov	r3, r0
 8001674:	b948      	cbnz	r0, 800168a <UART_Read+0x3a>
 8001676:	4a07      	ldr	r2, [pc, #28]	@ (8001694 <UART_Read+0x44>)
 8001678:	4c07      	ldr	r4, [pc, #28]	@ (8001698 <UART_Read+0x48>)
 800167a:	6810      	ldr	r0, [r2, #0]
 800167c:	1c41      	adds	r1, r0, #1
 800167e:	29ff      	cmp	r1, #255	@ 0xff
 8001680:	bfd8      	it	le
 8001682:	460b      	movle	r3, r1
 8001684:	5c20      	ldrb	r0, [r4, r0]
 8001686:	6013      	str	r3, [r2, #0]
 8001688:	bd10      	pop	{r4, pc}
 800168a:	f04f 30ff 	mov.w	r0, #4294967295
 800168e:	e7fb      	b.n	8001688 <UART_Read+0x38>
 8001690:	200004ec 	.word	0x200004ec
 8001694:	200004f0 	.word	0x200004f0
 8001698:	200004f4 	.word	0x200004f4
 800169c:	200005f4 	.word	0x200005f4

080016a0 <UART_Write>:
 80016a0:	b510      	push	{r4, lr}
 80016a2:	4b07      	ldr	r3, [pc, #28]	@ (80016c0 <UART_Write+0x20>)
 80016a4:	681a      	ldr	r2, [r3, #0]
 80016a6:	4401      	add	r1, r0
 80016a8:	4288      	cmp	r0, r1
 80016aa:	d101      	bne.n	80016b0 <UART_Write+0x10>
 80016ac:	2000      	movs	r0, #0
 80016ae:	bd10      	pop	{r4, pc}
 80016b0:	6813      	ldr	r3, [r2, #0]
 80016b2:	69dc      	ldr	r4, [r3, #28]
 80016b4:	0624      	lsls	r4, r4, #24
 80016b6:	d5fc      	bpl.n	80016b2 <UART_Write+0x12>
 80016b8:	f810 4b01 	ldrb.w	r4, [r0], #1
 80016bc:	851c      	strh	r4, [r3, #40]	@ 0x28
 80016be:	e7f3      	b.n	80016a8 <UART_Write+0x8>
 80016c0:	200005f4 	.word	0x200005f4

080016c4 <UART_Init>:
 80016c4:	4b03      	ldr	r3, [pc, #12]	@ (80016d4 <UART_Init+0x10>)
 80016c6:	4904      	ldr	r1, [pc, #16]	@ (80016d8 <UART_Init+0x14>)
 80016c8:	6018      	str	r0, [r3, #0]
 80016ca:	f44f 7280 	mov.w	r2, #256	@ 0x100
 80016ce:	f003 b803 	b.w	80046d8 <HAL_UART_Receive_DMA>
 80016d2:	bf00      	nop
 80016d4:	200005f4 	.word	0x200005f4
 80016d8:	200004f4 	.word	0x200004f4

080016dc <UART_EmergencyPrint>:
 80016dc:	b510      	push	{r4, lr}
 80016de:	4b06      	ldr	r3, [pc, #24]	@ (80016f8 <UART_EmergencyPrint+0x1c>)
 80016e0:	6819      	ldr	r1, [r3, #0]
 80016e2:	3801      	subs	r0, #1
 80016e4:	f810 3f01 	ldrb.w	r3, [r0, #1]!
 80016e8:	b903      	cbnz	r3, 80016ec <UART_EmergencyPrint+0x10>
 80016ea:	bd10      	pop	{r4, pc}
 80016ec:	680a      	ldr	r2, [r1, #0]
 80016ee:	69d4      	ldr	r4, [r2, #28]
 80016f0:	0624      	lsls	r4, r4, #24
 80016f2:	d5fb      	bpl.n	80016ec <UART_EmergencyPrint+0x10>
 80016f4:	8513      	strh	r3, [r2, #40]	@ 0x28
 80016f6:	e7f5      	b.n	80016e4 <UART_EmergencyPrint+0x8>
 80016f8:	200005f4 	.word	0x200005f4

080016fc <UART_Getc>:
 80016fc:	b508      	push	{r3, lr}
 80016fe:	f7ff ffa7 	bl	8001650 <UART_Read>
 8001702:	2800      	cmp	r0, #0
 8001704:	dbfb      	blt.n	80016fe <UART_Getc+0x2>
 8001706:	b2c0      	uxtb	r0, r0
 8001708:	bd08      	pop	{r3, pc}

0800170a <UART_Put>:
 800170a:	2900      	cmp	r1, #0
 800170c:	dd03      	ble.n	8001716 <UART_Put+0xc>
 800170e:	b110      	cbz	r0, 8001716 <UART_Put+0xc>
 8001710:	b289      	uxth	r1, r1
 8001712:	f7ff bfc5 	b.w	80016a0 <UART_Write>
 8001716:	4770      	bx	lr

08001718 <UART_Puts>:
 8001718:	b510      	push	{r4, lr}
 800171a:	4604      	mov	r4, r0
 800171c:	b138      	cbz	r0, 800172e <UART_Puts+0x16>
 800171e:	f7fe fd57 	bl	80001d0 <strlen>
 8001722:	b281      	uxth	r1, r0
 8001724:	4620      	mov	r0, r4
 8001726:	e8bd 4010 	ldmia.w	sp!, {r4, lr}
 800172a:	f7ff bfb9 	b.w	80016a0 <UART_Write>
 800172e:	bd10      	pop	{r4, pc}

08001730 <UART_Putc>:
 8001730:	b507      	push	{r0, r1, r2, lr}
 8001732:	2101      	movs	r1, #1
 8001734:	f88d 0007 	strb.w	r0, [sp, #7]
 8001738:	f10d 0007 	add.w	r0, sp, #7
 800173c:	f7ff ffb0 	bl	80016a0 <UART_Write>
 8001740:	b003      	add	sp, #12
 8001742:	f85d fb04 	ldr.w	pc, [sp], #4
	...

08001748 <UART_AssertionFailed>:
 8001748:	b500      	push	{lr}
 800174a:	4603      	mov	r3, r0
 800174c:	b0a3      	sub	sp, #140	@ 0x8c
 800174e:	b672      	cpsid	i
 8001750:	4a04      	ldr	r2, [pc, #16]	@ (8001764 <UART_AssertionFailed+0x1c>)
 8001752:	9100      	str	r1, [sp, #0]
 8001754:	a802      	add	r0, sp, #8
 8001756:	2180      	movs	r1, #128	@ 0x80
 8001758:	f007 ff20 	bl	800959c <sniprintf>
 800175c:	a802      	add	r0, sp, #8
 800175e:	f7ff ffbd 	bl	80016dc <UART_EmergencyPrint>
 8001762:	e7fe      	b.n	8001762 <UART_AssertionFailed+0x1a>
 8001764:	0800bc69 	.word	0x0800bc69

08001768 <MX_DMA_Init>:
 8001768:	4b0a      	ldr	r3, [pc, #40]	@ (8001794 <MX_DMA_Init+0x2c>)
 800176a:	b507      	push	{r0, r1, r2, lr}
 800176c:	6c9a      	ldr	r2, [r3, #72]	@ 0x48
 800176e:	f042 0201 	orr.w	r2, r2, #1
 8001772:	649a      	str	r2, [r3, #72]	@ 0x48
 8001774:	6c9b      	ldr	r3, [r3, #72]	@ 0x48
 8001776:	2200      	movs	r2, #0
 8001778:	f003 0301 	and.w	r3, r3, #1
 800177c:	9301      	str	r3, [sp, #4]
 800177e:	4611      	mov	r1, r2
 8001780:	2010      	movs	r0, #16
 8001782:	9b01      	ldr	r3, [sp, #4]
 8001784:	f000 fcec 	bl	8002160 <HAL_NVIC_SetPriority>
 8001788:	2010      	movs	r0, #16
 800178a:	b003      	add	sp, #12
 800178c:	f85d eb04 	ldr.w	lr, [sp], #4
 8001790:	f000 bd18 	b.w	80021c4 <HAL_NVIC_EnableIRQ>
 8001794:	40021000 	.word	0x40021000

08001798 <MX_GPIO_Init>:
 8001798:	b570      	push	{r4, r5, r6, lr}
 800179a:	b088      	sub	sp, #32
 800179c:	2214      	movs	r2, #20
 800179e:	2100      	movs	r1, #0
 80017a0:	a803      	add	r0, sp, #12
 80017a2:	f007 ff8e 	bl	80096c2 <memset>
 80017a6:	4b20      	ldr	r3, [pc, #128]	@ (8001828 <MX_GPIO_Init+0x90>)
 80017a8:	4d20      	ldr	r5, [pc, #128]	@ (800182c <MX_GPIO_Init+0x94>)
 80017aa:	6cda      	ldr	r2, [r3, #76]	@ 0x4c
 80017ac:	f042 0204 	orr.w	r2, r2, #4
 80017b0:	64da      	str	r2, [r3, #76]	@ 0x4c
 80017b2:	6cda      	ldr	r2, [r3, #76]	@ 0x4c
 80017b4:	f002 0204 	and.w	r2, r2, #4
 80017b8:	9200      	str	r2, [sp, #0]
 80017ba:	9a00      	ldr	r2, [sp, #0]
 80017bc:	6cda      	ldr	r2, [r3, #76]	@ 0x4c
 80017be:	f042 0201 	orr.w	r2, r2, #1
 80017c2:	64da      	str	r2, [r3, #76]	@ 0x4c
 80017c4:	6cda      	ldr	r2, [r3, #76]	@ 0x4c
 80017c6:	f002 0201 	and.w	r2, r2, #1
 80017ca:	9201      	str	r2, [sp, #4]
 80017cc:	9a01      	ldr	r2, [sp, #4]
 80017ce:	6cda      	ldr	r2, [r3, #76]	@ 0x4c
 80017d0:	f042 0202 	orr.w	r2, r2, #2
 80017d4:	64da      	str	r2, [r3, #76]	@ 0x4c
 80017d6:	6cdb      	ldr	r3, [r3, #76]	@ 0x4c
 80017d8:	f003 0302 	and.w	r3, r3, #2
 80017dc:	9302      	str	r3, [sp, #8]
 80017de:	2200      	movs	r2, #0
 80017e0:	2140      	movs	r1, #64	@ 0x40
 80017e2:	f04f 4090 	mov.w	r0, #1207959552	@ 0x48000000
 80017e6:	9b02      	ldr	r3, [sp, #8]
 80017e8:	f000 ff0e 	bl	8002608 <HAL_GPIO_WritePin>
 80017ec:	2200      	movs	r2, #0
 80017ee:	4628      	mov	r0, r5
 80017f0:	2108      	movs	r1, #8
 80017f2:	f000 ff09 	bl	8002608 <HAL_GPIO_WritePin>
 80017f6:	2601      	movs	r6, #1
 80017f8:	2340      	movs	r3, #64	@ 0x40
 80017fa:	e9cd 3603 	strd	r3, r6, [sp, #12]
 80017fe:	2400      	movs	r4, #0
 8001800:	2303      	movs	r3, #3
 8001802:	a903      	add	r1, sp, #12
 8001804:	f04f 4090 	mov.w	r0, #1207959552	@ 0x48000000
 8001808:	e9cd 4305 	strd	r4, r3, [sp, #20]
 800180c:	f000 fe3e 	bl	800248c <HAL_GPIO_Init>
 8001810:	2308      	movs	r3, #8
 8001812:	a903      	add	r1, sp, #12
 8001814:	4628      	mov	r0, r5
 8001816:	e9cd 3603 	strd	r3, r6, [sp, #12]
 800181a:	e9cd 4405 	strd	r4, r4, [sp, #20]
 800181e:	f000 fe35 	bl	800248c <HAL_GPIO_Init>
 8001822:	b008      	add	sp, #32
 8001824:	bd70      	pop	{r4, r5, r6, pc}
 8001826:	bf00      	nop
 8001828:	40021000 	.word	0x40021000
 800182c:	48000400 	.word	0x48000400

08001830 <SystemClock_Config>:
 8001830:	b530      	push	{r4, r5, lr}
 8001832:	b097      	sub	sp, #92	@ 0x5c
 8001834:	2244      	movs	r2, #68	@ 0x44
 8001836:	2100      	movs	r1, #0
 8001838:	a805      	add	r0, sp, #20
 800183a:	2514      	movs	r5, #20
 800183c:	f007 ff41 	bl	80096c2 <memset>
 8001840:	462a      	mov	r2, r5
 8001842:	2100      	movs	r1, #0
 8001844:	4668      	mov	r0, sp
 8001846:	f007 ff3c 	bl	80096c2 <memset>
 800184a:	f44f 7000 	mov.w	r0, #512	@ 0x200
 800184e:	f000 fef1 	bl	8002634 <HAL_PWREx_ControlVoltageScaling>
 8001852:	4604      	mov	r4, r0
 8001854:	b108      	cbz	r0, 800185a <SystemClock_Config+0x2a>
 8001856:	b672      	cpsid	i
 8001858:	e7fe      	b.n	8001858 <SystemClock_Config+0x28>
 800185a:	f000 fedb 	bl	8002614 <HAL_PWR_EnableBkUpAccess>
 800185e:	4a18      	ldr	r2, [pc, #96]	@ (80018c0 <SystemClock_Config+0x90>)
 8001860:	f8d2 3090 	ldr.w	r3, [r2, #144]	@ 0x90
 8001864:	f023 0318 	bic.w	r3, r3, #24
 8001868:	f8c2 3090 	str.w	r3, [r2, #144]	@ 0x90
 800186c:	2260      	movs	r2, #96	@ 0x60
 800186e:	2301      	movs	r3, #1
 8001870:	920d      	str	r2, [sp, #52]	@ 0x34
 8001872:	2202      	movs	r2, #2
 8001874:	2028      	movs	r0, #40	@ 0x28
 8001876:	e9cd 340b 	strd	r3, r4, [sp, #44]	@ 0x2c
 800187a:	e9cd 230f 	strd	r2, r3, [sp, #60]	@ 0x3c
 800187e:	9307      	str	r3, [sp, #28]
 8001880:	9311      	str	r3, [sp, #68]	@ 0x44
 8001882:	2307      	movs	r3, #7
 8001884:	e9cd 0312 	strd	r0, r3, [sp, #72]	@ 0x48
 8001888:	a805      	add	r0, sp, #20
 800188a:	e9cd 2214 	strd	r2, r2, [sp, #80]	@ 0x50
 800188e:	9505      	str	r5, [sp, #20]
 8001890:	f000 ff92 	bl	80027b8 <HAL_RCC_OscConfig>
 8001894:	b108      	cbz	r0, 800189a <SystemClock_Config+0x6a>
 8001896:	b672      	cpsid	i
 8001898:	e7fe      	b.n	8001898 <SystemClock_Config+0x68>
 800189a:	e9cd 0002 	strd	r0, r0, [sp, #8]
 800189e:	220f      	movs	r2, #15
 80018a0:	2303      	movs	r3, #3
 80018a2:	9004      	str	r0, [sp, #16]
 80018a4:	2104      	movs	r1, #4
 80018a6:	4668      	mov	r0, sp
 80018a8:	e9cd 2300 	strd	r2, r3, [sp]
 80018ac:	f001 fa26 	bl	8002cfc <HAL_RCC_ClockConfig>
 80018b0:	b108      	cbz	r0, 80018b6 <SystemClock_Config+0x86>
 80018b2:	b672      	cpsid	i
 80018b4:	e7fe      	b.n	80018b4 <SystemClock_Config+0x84>
 80018b6:	f001 fce3 	bl	8003280 <HAL_RCCEx_EnableMSIPLLMode>
 80018ba:	b017      	add	sp, #92	@ 0x5c
 80018bc:	bd30      	pop	{r4, r5, pc}
 80018be:	bf00      	nop
 80018c0:	40021000 	.word	0x40021000

080018c4 <main>:
 80018c4:	b508      	push	{r3, lr}
 80018c6:	f000 fc17 	bl	80020f8 <HAL_Init>
 80018ca:	f7ff ffb1 	bl	8001830 <SystemClock_Config>
 80018ce:	f7ff ff63 	bl	8001798 <MX_GPIO_Init>
 80018d2:	f7ff ff49 	bl	8001768 <MX_DMA_Init>
 80018d6:	f000 fb33 	bl	8001f40 <MX_USART2_UART_Init>
 80018da:	f000 f8cb 	bl	8001a74 <MX_TIM2_Init>
 80018de:	f000 fa43 	bl	8001d68 <MX_TIM1_Init>
 80018e2:	f7ff fb0f 	bl	8000f04 <app_main>
 80018e6:	e7fe      	b.n	80018e6 <main+0x22>

080018e8 <Error_Handler>:
 80018e8:	b672      	cpsid	i
 80018ea:	e7fe      	b.n	80018ea <Error_Handler+0x2>

080018ec <HAL_MspInit>:
 80018ec:	4b0a      	ldr	r3, [pc, #40]	@ (8001918 <HAL_MspInit+0x2c>)
 80018ee:	6e1a      	ldr	r2, [r3, #96]	@ 0x60
 80018f0:	f042 0201 	orr.w	r2, r2, #1
 80018f4:	b082      	sub	sp, #8
 80018f6:	661a      	str	r2, [r3, #96]	@ 0x60
 80018f8:	6e1a      	ldr	r2, [r3, #96]	@ 0x60
 80018fa:	f002 0201 	and.w	r2, r2, #1
 80018fe:	9200      	str	r2, [sp, #0]
 8001900:	9a00      	ldr	r2, [sp, #0]
 8001902:	6d9a      	ldr	r2, [r3, #88]	@ 0x58
 8001904:	f042 5280 	orr.w	r2, r2, #268435456	@ 0x10000000
 8001908:	659a      	str	r2, [r3, #88]	@ 0x58
 800190a:	6d9b      	ldr	r3, [r3, #88]	@ 0x58
 800190c:	f003 5380 	and.w	r3, r3, #268435456	@ 0x10000000
 8001910:	9301      	str	r3, [sp, #4]
 8001912:	9b01      	ldr	r3, [sp, #4]
 8001914:	b002      	add	sp, #8
 8001916:	4770      	bx	lr
 8001918:	40021000 	.word	0x40021000

0800191c <NMI_Handler>:
 800191c:	e7fe      	b.n	800191c <NMI_Handler>

0800191e <HardFault_Handler>:
 800191e:	e7fe      	b.n	800191e <HardFault_Handler>

08001920 <MemManage_Handler>:
 8001920:	e7fe      	b.n	8001920 <MemManage_Handler>

08001922 <BusFault_Handler>:
 8001922:	e7fe      	b.n	8001922 <BusFault_Handler>

08001924 <UsageFault_Handler>:
 8001924:	e7fe      	b.n	8001924 <UsageFault_Handler>

08001926 <SVC_Handler>:
 8001926:	4770      	bx	lr

08001928 <DebugMon_Handler>:
 8001928:	4770      	bx	lr

0800192a <PendSV_Handler>:
 800192a:	4770      	bx	lr

0800192c <SysTick_Handler>:
 800192c:	f000 bbf4 	b.w	8002118 <HAL_IncTick>

08001930 <DMA1_Channel6_IRQHandler>:
 8001930:	4801      	ldr	r0, [pc, #4]	@ (8001938 <DMA1_Channel6_IRQHandler+0x8>)
 8001932:	f000 bd60 	b.w	80023f6 <HAL_DMA_IRQHandler>
 8001936:	bf00      	nop
 8001938:	200006a0 	.word	0x200006a0

0800193c <TIM1_UP_TIM16_IRQHandler>:
 800193c:	4801      	ldr	r0, [pc, #4]	@ (8001944 <TIM1_UP_TIM16_IRQHandler+0x8>)
 800193e:	f001 be13 	b.w	8003568 <HAL_TIM_IRQHandler>
 8001942:	bf00      	nop
 8001944:	20000648 	.word	0x20000648

08001948 <TIM1_CC_IRQHandler>:
 8001948:	f7ff bff8 	b.w	800193c <TIM1_UP_TIM16_IRQHandler>

0800194c <TIM2_IRQHandler>:
 800194c:	4801      	ldr	r0, [pc, #4]	@ (8001954 <TIM2_IRQHandler+0x8>)
 800194e:	f001 be0b 	b.w	8003568 <HAL_TIM_IRQHandler>
 8001952:	bf00      	nop
 8001954:	200005fc 	.word	0x200005fc

08001958 <USART2_IRQHandler>:
 8001958:	4801      	ldr	r0, [pc, #4]	@ (8001960 <USART2_IRQHandler+0x8>)
 800195a:	f002 bac9 	b.w	8003ef0 <HAL_UART_IRQHandler>
 800195e:	bf00      	nop
 8001960:	200006e8 	.word	0x200006e8

08001964 <_getpid>:
 8001964:	2001      	movs	r0, #1
 8001966:	4770      	bx	lr

08001968 <_kill>:
 8001968:	b508      	push	{r3, lr}
 800196a:	f007 ff37 	bl	80097dc <__errno>
 800196e:	2316      	movs	r3, #22
 8001970:	6003      	str	r3, [r0, #0]
 8001972:	f04f 30ff 	mov.w	r0, #4294967295
 8001976:	bd08      	pop	{r3, pc}

08001978 <_exit>:
 8001978:	b508      	push	{r3, lr}
 800197a:	f007 ff2f 	bl	80097dc <__errno>
 800197e:	2316      	movs	r3, #22
 8001980:	6003      	str	r3, [r0, #0]
 8001982:	e7fe      	b.n	8001982 <_exit+0xa>

08001984 <_read>:
 8001984:	b570      	push	{r4, r5, r6, lr}
 8001986:	460d      	mov	r5, r1
 8001988:	4614      	mov	r4, r2
 800198a:	460e      	mov	r6, r1
 800198c:	1b73      	subs	r3, r6, r5
 800198e:	429c      	cmp	r4, r3
 8001990:	dc01      	bgt.n	8001996 <_read+0x12>
 8001992:	4620      	mov	r0, r4
 8001994:	bd70      	pop	{r4, r5, r6, pc}
 8001996:	f3af 8000 	nop.w
 800199a:	f806 0b01 	strb.w	r0, [r6], #1
 800199e:	e7f5      	b.n	800198c <_read+0x8>

080019a0 <_write>:
 80019a0:	b570      	push	{r4, r5, r6, lr}
 80019a2:	460d      	mov	r5, r1
 80019a4:	4614      	mov	r4, r2
 80019a6:	460e      	mov	r6, r1
 80019a8:	1b73      	subs	r3, r6, r5
 80019aa:	429c      	cmp	r4, r3
 80019ac:	dc01      	bgt.n	80019b2 <_write+0x12>
 80019ae:	4620      	mov	r0, r4
 80019b0:	bd70      	pop	{r4, r5, r6, pc}
 80019b2:	f816 0b01 	ldrb.w	r0, [r6], #1
 80019b6:	f3af 8000 	nop.w
 80019ba:	e7f5      	b.n	80019a8 <_write+0x8>

080019bc <_close>:
 80019bc:	f04f 30ff 	mov.w	r0, #4294967295
 80019c0:	4770      	bx	lr

080019c2 <_fstat>:
 80019c2:	f44f 5300 	mov.w	r3, #8192	@ 0x2000
 80019c6:	604b      	str	r3, [r1, #4]
 80019c8:	2000      	movs	r0, #0
 80019ca:	4770      	bx	lr

080019cc <_isatty>:
 80019cc:	2001      	movs	r0, #1
 80019ce:	4770      	bx	lr

080019d0 <_lseek>:
 80019d0:	2000      	movs	r0, #0
 80019d2:	4770      	bx	lr

080019d4 <_sbrk>:
 80019d4:	4a0b      	ldr	r2, [pc, #44]	@ (8001a04 <_sbrk+0x30>)
 80019d6:	6811      	ldr	r1, [r2, #0]
 80019d8:	b510      	push	{r4, lr}
 80019da:	4603      	mov	r3, r0
 80019dc:	b909      	cbnz	r1, 80019e2 <_sbrk+0xe>
 80019de:	490a      	ldr	r1, [pc, #40]	@ (8001a08 <_sbrk+0x34>)
 80019e0:	6011      	str	r1, [r2, #0]
 80019e2:	6810      	ldr	r0, [r2, #0]
 80019e4:	4909      	ldr	r1, [pc, #36]	@ (8001a0c <_sbrk+0x38>)
 80019e6:	4c0a      	ldr	r4, [pc, #40]	@ (8001a10 <_sbrk+0x3c>)
 80019e8:	4403      	add	r3, r0
 80019ea:	1b09      	subs	r1, r1, r4
 80019ec:	428b      	cmp	r3, r1
 80019ee:	d906      	bls.n	80019fe <_sbrk+0x2a>
 80019f0:	f007 fef4 	bl	80097dc <__errno>
 80019f4:	230c      	movs	r3, #12
 80019f6:	6003      	str	r3, [r0, #0]
 80019f8:	f04f 30ff 	mov.w	r0, #4294967295
 80019fc:	bd10      	pop	{r4, pc}
 80019fe:	6013      	str	r3, [r2, #0]
 8001a00:	e7fc      	b.n	80019fc <_sbrk+0x28>
 8001a02:	bf00      	nop
 8001a04:	200005f8 	.word	0x200005f8
 8001a08:	200008c0 	.word	0x200008c0
 8001a0c:	20010000 	.word	0x20010000
 8001a10:	00000400 	.word	0x00000400

08001a14 <SystemInit>:
 8001a14:	4a03      	ldr	r2, [pc, #12]	@ (8001a24 <SystemInit+0x10>)
 8001a16:	f8d2 3088 	ldr.w	r3, [r2, #136]	@ 0x88
 8001a1a:	f443 0370 	orr.w	r3, r3, #15728640	@ 0xf00000
 8001a1e:	f8c2 3088 	str.w	r3, [r2, #136]	@ 0x88
 8001a22:	4770      	bx	lr
 8001a24:	e000ed00 	.word	0xe000ed00

08001a28 <pwm_numbers_set>:
 8001a28:	4b03      	ldr	r3, [pc, #12]	@ (8001a38 <pwm_numbers_set+0x10>)
 8001a2a:	2801      	cmp	r0, #1
 8001a2c:	bf88      	it	hi
 8001a2e:	f100 30ff 	addhi.w	r0, r0, #4294967295
 8001a32:	6018      	str	r0, [r3, #0]
 8001a34:	4770      	bx	lr
 8001a36:	bf00      	nop
 8001a38:	2000069c 	.word	0x2000069c

08001a3c <pwm_shot_count_reset>:
 8001a3c:	4a03      	ldr	r2, [pc, #12]	@ (8001a4c <pwm_shot_count_reset+0x10>)
 8001a3e:	2300      	movs	r3, #0
 8001a40:	6013      	str	r3, [r2, #0]
 8001a42:	4a03      	ldr	r2, [pc, #12]	@ (8001a50 <pwm_shot_count_reset+0x14>)
 8001a44:	7013      	strb	r3, [r2, #0]
 8001a46:	4a03      	ldr	r2, [pc, #12]	@ (8001a54 <pwm_shot_count_reset+0x18>)
 8001a48:	7013      	strb	r3, [r2, #0]
 8001a4a:	4770      	bx	lr
 8001a4c:	20000698 	.word	0x20000698
 8001a50:	20000694 	.word	0x20000694
 8001a54:	20000695 	.word	0x20000695

08001a58 <pwm_run_state_set>:
 8001a58:	4b03      	ldr	r3, [pc, #12]	@ (8001a68 <pwm_run_state_set+0x10>)
 8001a5a:	7018      	strb	r0, [r3, #0]
 8001a5c:	b918      	cbnz	r0, 8001a66 <pwm_run_state_set+0xe>
 8001a5e:	4b03      	ldr	r3, [pc, #12]	@ (8001a6c <pwm_run_state_set+0x14>)
 8001a60:	7018      	strb	r0, [r3, #0]
 8001a62:	4b03      	ldr	r3, [pc, #12]	@ (8001a70 <pwm_run_state_set+0x18>)
 8001a64:	7018      	strb	r0, [r3, #0]
 8001a66:	4770      	bx	lr
 8001a68:	20000696 	.word	0x20000696
 8001a6c:	20000694 	.word	0x20000694
 8001a70:	20000695 	.word	0x20000695

08001a74 <MX_TIM2_Init>:
 8001a74:	b510      	push	{r4, lr}
 8001a76:	b088      	sub	sp, #32
 8001a78:	2214      	movs	r2, #20
 8001a7a:	2100      	movs	r1, #0
 8001a7c:	a803      	add	r0, sp, #12
 8001a7e:	f007 fe20 	bl	80096c2 <memset>
 8001a82:	4816      	ldr	r0, [pc, #88]	@ (8001adc <MX_TIM2_Init+0x68>)
 8001a84:	2300      	movs	r3, #0
 8001a86:	f04f 4280 	mov.w	r2, #1073741824	@ 0x40000000
 8001a8a:	e9c0 2300 	strd	r2, r3, [r0]
 8001a8e:	f04f 32ff 	mov.w	r2, #4294967295
 8001a92:	e9cd 3300 	strd	r3, r3, [sp]
 8001a96:	e9c0 2303 	strd	r2, r3, [r0, #12]
 8001a9a:	9302      	str	r3, [sp, #8]
 8001a9c:	6083      	str	r3, [r0, #8]
 8001a9e:	6183      	str	r3, [r0, #24]
 8001aa0:	f001 fe3e 	bl	8003720 <HAL_TIM_Base_Init>
 8001aa4:	b108      	cbz	r0, 8001aaa <MX_TIM2_Init+0x36>
 8001aa6:	f7ff ff1f 	bl	80018e8 <Error_Handler>
 8001aaa:	2400      	movs	r4, #0
 8001aac:	2207      	movs	r2, #7
 8001aae:	2360      	movs	r3, #96	@ 0x60
 8001ab0:	480a      	ldr	r0, [pc, #40]	@ (8001adc <MX_TIM2_Init+0x68>)
 8001ab2:	9405      	str	r4, [sp, #20]
 8001ab4:	a903      	add	r1, sp, #12
 8001ab6:	e9cd 2303 	strd	r2, r3, [sp, #12]
 8001aba:	9407      	str	r4, [sp, #28]
 8001abc:	f002 f84a 	bl	8003b54 <HAL_TIM_SlaveConfigSynchro>
 8001ac0:	b108      	cbz	r0, 8001ac6 <MX_TIM2_Init+0x52>
 8001ac2:	f7ff ff11 	bl	80018e8 <Error_Handler>
 8001ac6:	4805      	ldr	r0, [pc, #20]	@ (8001adc <MX_TIM2_Init+0x68>)
 8001ac8:	9400      	str	r4, [sp, #0]
 8001aca:	4669      	mov	r1, sp
 8001acc:	9402      	str	r4, [sp, #8]
 8001ace:	f002 f93b 	bl	8003d48 <HAL_TIMEx_MasterConfigSynchronization>
 8001ad2:	b108      	cbz	r0, 8001ad8 <MX_TIM2_Init+0x64>
 8001ad4:	f7ff ff08 	bl	80018e8 <Error_Handler>
 8001ad8:	b008      	add	sp, #32
 8001ada:	bd10      	pop	{r4, pc}
 8001adc:	200005fc 	.word	0x200005fc

08001ae0 <HAL_TIM_Base_MspInit>:
 8001ae0:	b510      	push	{r4, lr}
 8001ae2:	4604      	mov	r4, r0
 8001ae4:	b088      	sub	sp, #32
 8001ae6:	2214      	movs	r2, #20
 8001ae8:	2100      	movs	r1, #0
 8001aea:	a803      	add	r0, sp, #12
 8001aec:	f007 fde9 	bl	80096c2 <memset>
 8001af0:	6823      	ldr	r3, [r4, #0]
 8001af2:	4a23      	ldr	r2, [pc, #140]	@ (8001b80 <HAL_TIM_Base_MspInit+0xa0>)
 8001af4:	4293      	cmp	r3, r2
 8001af6:	d11b      	bne.n	8001b30 <HAL_TIM_Base_MspInit+0x50>
 8001af8:	4b22      	ldr	r3, [pc, #136]	@ (8001b84 <HAL_TIM_Base_MspInit+0xa4>)
 8001afa:	6e1a      	ldr	r2, [r3, #96]	@ 0x60
 8001afc:	f442 6200 	orr.w	r2, r2, #2048	@ 0x800
 8001b00:	661a      	str	r2, [r3, #96]	@ 0x60
 8001b02:	6e1b      	ldr	r3, [r3, #96]	@ 0x60
 8001b04:	f403 6300 	and.w	r3, r3, #2048	@ 0x800
 8001b08:	2200      	movs	r2, #0
 8001b0a:	2101      	movs	r1, #1
 8001b0c:	9300      	str	r3, [sp, #0]
 8001b0e:	2019      	movs	r0, #25
 8001b10:	9b00      	ldr	r3, [sp, #0]
 8001b12:	f000 fb25 	bl	8002160 <HAL_NVIC_SetPriority>
 8001b16:	2019      	movs	r0, #25
 8001b18:	f000 fb54 	bl	80021c4 <HAL_NVIC_EnableIRQ>
 8001b1c:	2201      	movs	r2, #1
 8001b1e:	201b      	movs	r0, #27
 8001b20:	4611      	mov	r1, r2
 8001b22:	f000 fb1d 	bl	8002160 <HAL_NVIC_SetPriority>
 8001b26:	201b      	movs	r0, #27
 8001b28:	f000 fb4c 	bl	80021c4 <HAL_NVIC_EnableIRQ>
 8001b2c:	b008      	add	sp, #32
 8001b2e:	bd10      	pop	{r4, pc}
 8001b30:	f1b3 4f80 	cmp.w	r3, #1073741824	@ 0x40000000
 8001b34:	d1fa      	bne.n	8001b2c <HAL_TIM_Base_MspInit+0x4c>
 8001b36:	f503 3304 	add.w	r3, r3, #135168	@ 0x21000
 8001b3a:	2402      	movs	r4, #2
 8001b3c:	6d9a      	ldr	r2, [r3, #88]	@ 0x58
 8001b3e:	f042 0201 	orr.w	r2, r2, #1
 8001b42:	659a      	str	r2, [r3, #88]	@ 0x58
 8001b44:	6d9a      	ldr	r2, [r3, #88]	@ 0x58
 8001b46:	f002 0201 	and.w	r2, r2, #1
 8001b4a:	9201      	str	r2, [sp, #4]
 8001b4c:	9a01      	ldr	r2, [sp, #4]
 8001b4e:	6cda      	ldr	r2, [r3, #76]	@ 0x4c
 8001b50:	f042 0201 	orr.w	r2, r2, #1
 8001b54:	64da      	str	r2, [r3, #76]	@ 0x4c
 8001b56:	6cdb      	ldr	r3, [r3, #76]	@ 0x4c
 8001b58:	f003 0301 	and.w	r3, r3, #1
 8001b5c:	9302      	str	r3, [sp, #8]
 8001b5e:	9b02      	ldr	r3, [sp, #8]
 8001b60:	a903      	add	r1, sp, #12
 8001b62:	2301      	movs	r3, #1
 8001b64:	f04f 4090 	mov.w	r0, #1207959552	@ 0x48000000
 8001b68:	9307      	str	r3, [sp, #28]
 8001b6a:	e9cd 4403 	strd	r4, r4, [sp, #12]
 8001b6e:	f000 fc8d 	bl	800248c <HAL_GPIO_Init>
 8001b72:	201c      	movs	r0, #28
 8001b74:	2200      	movs	r2, #0
 8001b76:	4621      	mov	r1, r4
 8001b78:	f000 faf2 	bl	8002160 <HAL_NVIC_SetPriority>
 8001b7c:	201c      	movs	r0, #28
 8001b7e:	e7d3      	b.n	8001b28 <HAL_TIM_Base_MspInit+0x48>
 8001b80:	40012c00 	.word	0x40012c00
 8001b84:	40021000 	.word	0x40021000

08001b88 <HAL_TIM_MspPostInit>:
 8001b88:	b510      	push	{r4, lr}
 8001b8a:	4604      	mov	r4, r0
 8001b8c:	b086      	sub	sp, #24
 8001b8e:	2214      	movs	r2, #20
 8001b90:	2100      	movs	r1, #0
 8001b92:	a801      	add	r0, sp, #4
 8001b94:	f007 fd95 	bl	80096c2 <memset>
 8001b98:	6822      	ldr	r2, [r4, #0]
 8001b9a:	4b0e      	ldr	r3, [pc, #56]	@ (8001bd4 <HAL_TIM_MspPostInit+0x4c>)
 8001b9c:	429a      	cmp	r2, r3
 8001b9e:	d116      	bne.n	8001bce <HAL_TIM_MspPostInit+0x46>
 8001ba0:	f503 4364 	add.w	r3, r3, #58368	@ 0xe400
 8001ba4:	a901      	add	r1, sp, #4
 8001ba6:	6cda      	ldr	r2, [r3, #76]	@ 0x4c
 8001ba8:	f042 0201 	orr.w	r2, r2, #1
 8001bac:	64da      	str	r2, [r3, #76]	@ 0x4c
 8001bae:	6cdb      	ldr	r3, [r3, #76]	@ 0x4c
 8001bb0:	f003 0301 	and.w	r3, r3, #1
 8001bb4:	9300      	str	r3, [sp, #0]
 8001bb6:	9b00      	ldr	r3, [sp, #0]
 8001bb8:	f44f 7280 	mov.w	r2, #256	@ 0x100
 8001bbc:	2302      	movs	r3, #2
 8001bbe:	e9cd 2301 	strd	r2, r3, [sp, #4]
 8001bc2:	f04f 4090 	mov.w	r0, #1207959552	@ 0x48000000
 8001bc6:	2301      	movs	r3, #1
 8001bc8:	9305      	str	r3, [sp, #20]
 8001bca:	f000 fc5f 	bl	800248c <HAL_GPIO_Init>
 8001bce:	b006      	add	sp, #24
 8001bd0:	bd10      	pop	{r4, pc}
 8001bd2:	bf00      	nop
 8001bd4:	40012c00 	.word	0x40012c00

08001bd8 <pwm_setup>:
 8001bd8:	e92d 4ff0 	stmdb	sp!, {r4, r5, r6, r7, r8, r9, sl, fp, lr}
 8001bdc:	b097      	sub	sp, #92	@ 0x5c
 8001bde:	4606      	mov	r6, r0
 8001be0:	9102      	str	r1, [sp, #8]
 8001be2:	9207      	str	r2, [sp, #28]
 8001be4:	2100      	movs	r1, #0
 8001be6:	221c      	movs	r2, #28
 8001be8:	a80f      	add	r0, sp, #60	@ 0x3c
 8001bea:	f007 fd6a 	bl	80096c2 <memset>
 8001bee:	2e00      	cmp	r6, #0
 8001bf0:	f000 80ad 	beq.w	8001d4e <pwm_setup+0x176>
 8001bf4:	9b02      	ldr	r3, [sp, #8]
 8001bf6:	2b00      	cmp	r3, #0
 8001bf8:	f000 80a9 	beq.w	8001d4e <pwm_setup+0x176>
 8001bfc:	9a02      	ldr	r2, [sp, #8]
 8001bfe:	4b56      	ldr	r3, [pc, #344]	@ (8001d58 <pwm_setup+0x180>)
 8001c00:	fbb3 f3f6 	udiv	r3, r3, r6
 8001c04:	4293      	cmp	r3, r2
 8001c06:	f240 80a2 	bls.w	8001d4e <pwm_setup+0x176>
 8001c0a:	f001 f933 	bl	8002e74 <HAL_RCC_GetPCLK2Freq>
 8001c0e:	2300      	movs	r3, #0
 8001c10:	4680      	mov	r8, r0
 8001c12:	a909      	add	r1, sp, #36	@ 0x24
 8001c14:	a80a      	add	r0, sp, #40	@ 0x28
 8001c16:	9309      	str	r3, [sp, #36]	@ 0x24
 8001c18:	f001 f93e 	bl	8002e98 <HAL_RCC_GetClockConfig>
 8001c1c:	9b0e      	ldr	r3, [sp, #56]	@ 0x38
 8001c1e:	b10b      	cbz	r3, 8001c24 <pwm_setup+0x4c>
 8001c20:	ea4f 0848 	mov.w	r8, r8, lsl #1
 8001c24:	2500      	movs	r5, #0
 8001c26:	e9cd 5504 	strd	r5, r5, [sp, #16]
 8001c2a:	f04f 33ff 	mov.w	r3, #4294967295
 8001c2e:	4637      	mov	r7, r6
 8001c30:	2401      	movs	r4, #1
 8001c32:	46ab      	mov	fp, r5
 8001c34:	9501      	str	r5, [sp, #4]
 8001c36:	46aa      	mov	sl, r5
 8001c38:	9303      	str	r3, [sp, #12]
 8001c3a:	9306      	str	r3, [sp, #24]
 8001c3c:	0878      	lsrs	r0, r7, #1
 8001c3e:	ea40 70c5 	orr.w	r0, r0, r5, lsl #31
 8001c42:	eb10 0008 	adds.w	r0, r0, r8
 8001c46:	ea4f 0155 	mov.w	r1, r5, lsr #1
 8001c4a:	462b      	mov	r3, r5
 8001c4c:	f141 0100 	adc.w	r1, r1, #0
 8001c50:	463a      	mov	r2, r7
 8001c52:	f7fe ff8b 	bl	8000b6c <__aeabi_uldivmod>
 8001c56:	4681      	mov	r9, r0
 8001c58:	3801      	subs	r0, #1
 8001c5a:	f161 0300 	sbc.w	r3, r1, #0
 8001c5e:	f5b0 3f80 	cmp.w	r0, #65536	@ 0x10000
 8001c62:	f173 0300 	sbcs.w	r3, r3, #0
 8001c66:	d223      	bcs.n	8001cb0 <pwm_setup+0xd8>
 8001c68:	fb0b f309 	mul.w	r3, fp, r9
 8001c6c:	fb04 3301 	mla	r3, r4, r1, r3
 8001c70:	fba9 2104 	umull	r2, r1, r9, r4
 8001c74:	440b      	add	r3, r1
 8001c76:	4640      	mov	r0, r8
 8001c78:	2100      	movs	r1, #0
 8001c7a:	f7fe ff77 	bl	8000b6c <__aeabi_uldivmod>
 8001c7e:	9a03      	ldr	r2, [sp, #12]
 8001c80:	4286      	cmp	r6, r0
 8001c82:	bf34      	ite	cc
 8001c84:	1b83      	subcc	r3, r0, r6
 8001c86:	1a33      	subcs	r3, r6, r0
 8001c88:	4293      	cmp	r3, r2
 8001c8a:	9a06      	ldr	r2, [sp, #24]
 8001c8c:	f04f 0100 	mov.w	r1, #0
 8001c90:	eb71 0202 	sbcs.w	r2, r1, r2
 8001c94:	d20c      	bcs.n	8001cb0 <pwm_setup+0xd8>
 8001c96:	1e62      	subs	r2, r4, #1
 8001c98:	b292      	uxth	r2, r2
 8001c9a:	f109 39ff 	add.w	r9, r9, #4294967295
 8001c9e:	9205      	str	r2, [sp, #20]
 8001ca0:	fa1f fa89 	uxth.w	sl, r9
 8001ca4:	9001      	str	r0, [sp, #4]
 8001ca6:	b18b      	cbz	r3, 8001ccc <pwm_setup+0xf4>
 8001ca8:	9303      	str	r3, [sp, #12]
 8001caa:	2301      	movs	r3, #1
 8001cac:	9106      	str	r1, [sp, #24]
 8001cae:	9304      	str	r3, [sp, #16]
 8001cb0:	19f7      	adds	r7, r6, r7
 8001cb2:	f145 0500 	adc.w	r5, r5, #0
 8001cb6:	3401      	adds	r4, #1
 8001cb8:	f14b 0b00 	adc.w	fp, fp, #0
 8001cbc:	f1a4 1301 	sub.w	r3, r4, #65537	@ 0x10001
 8001cc0:	ea53 030b 	orrs.w	r3, r3, fp
 8001cc4:	d1ba      	bne.n	8001c3c <pwm_setup+0x64>
 8001cc6:	9b04      	ldr	r3, [sp, #16]
 8001cc8:	2b00      	cmp	r3, #0
 8001cca:	d040      	beq.n	8001d4e <pwm_setup+0x176>
 8001ccc:	e9dd 1201 	ldrd	r1, r2, [sp, #4]
 8001cd0:	f10a 0401 	add.w	r4, sl, #1
 8001cd4:	fba2 0101 	umull	r0, r1, r2, r1
 8001cd8:	4a20      	ldr	r2, [pc, #128]	@ (8001d5c <pwm_setup+0x184>)
 8001cda:	fba0 0504 	umull	r0, r5, r0, r4
 8001cde:	1880      	adds	r0, r0, r2
 8001ce0:	4a1f      	ldr	r2, [pc, #124]	@ (8001d60 <pwm_setup+0x188>)
 8001ce2:	fb0a 1101 	mla	r1, sl, r1, r1
 8001ce6:	eb41 0105 	adc.w	r1, r1, r5
 8001cea:	2300      	movs	r3, #0
 8001cec:	4282      	cmp	r2, r0
 8001cee:	eb73 0201 	sbcs.w	r2, r3, r1
 8001cf2:	d22f      	bcs.n	8001d54 <pwm_setup+0x17c>
 8001cf4:	2300      	movs	r3, #0
 8001cf6:	4a18      	ldr	r2, [pc, #96]	@ (8001d58 <pwm_setup+0x180>)
 8001cf8:	f7fe ff38 	bl	8000b6c <__aeabi_uldivmod>
 8001cfc:	460b      	mov	r3, r1
 8001cfe:	42a0      	cmp	r0, r4
 8001d00:	f173 0300 	sbcs.w	r3, r3, #0
 8001d04:	bf38      	it	cc
 8001d06:	4604      	movcc	r4, r0
 8001d08:	4816      	ldr	r0, [pc, #88]	@ (8001d64 <pwm_setup+0x18c>)
 8001d0a:	9b05      	ldr	r3, [sp, #20]
 8001d0c:	6043      	str	r3, [r0, #4]
 8001d0e:	b2a4      	uxth	r4, r4
 8001d10:	f8c0 a00c 	str.w	sl, [r0, #12]
 8001d14:	f001 fd34 	bl	8003780 <HAL_TIM_PWM_Init>
 8001d18:	b108      	cbz	r0, 8001d1e <pwm_setup+0x146>
 8001d1a:	f7ff fde5 	bl	80018e8 <Error_Handler>
 8001d1e:	2360      	movs	r3, #96	@ 0x60
 8001d20:	e9cd 340f 	strd	r3, r4, [sp, #60]	@ 0x3c
 8001d24:	9b07      	ldr	r3, [sp, #28]
 8001d26:	480f      	ldr	r0, [pc, #60]	@ (8001d64 <pwm_setup+0x18c>)
 8001d28:	fab3 f383 	clz	r3, r3
 8001d2c:	095b      	lsrs	r3, r3, #5
 8001d2e:	2200      	movs	r2, #0
 8001d30:	005b      	lsls	r3, r3, #1
 8001d32:	a90f      	add	r1, sp, #60	@ 0x3c
 8001d34:	e9cd 2212 	strd	r2, r2, [sp, #72]	@ 0x48
 8001d38:	e9cd 2214 	strd	r2, r2, [sp, #80]	@ 0x50
 8001d3c:	9311      	str	r3, [sp, #68]	@ 0x44
 8001d3e:	f001 fd87 	bl	8003850 <HAL_TIM_PWM_ConfigChannel>
 8001d42:	b108      	cbz	r0, 8001d48 <pwm_setup+0x170>
 8001d44:	f7ff fdd0 	bl	80018e8 <Error_Handler>
 8001d48:	4806      	ldr	r0, [pc, #24]	@ (8001d64 <pwm_setup+0x18c>)
 8001d4a:	f7ff ff1d 	bl	8001b88 <HAL_TIM_MspPostInit>
 8001d4e:	b017      	add	sp, #92	@ 0x5c
 8001d50:	e8bd 8ff0 	ldmia.w	sp!, {r4, r5, r6, r7, r8, r9, sl, fp, pc}
 8001d54:	2001      	movs	r0, #1
 8001d56:	e7d2      	b.n	8001cfe <pwm_setup+0x126>
 8001d58:	000f4240 	.word	0x000f4240
 8001d5c:	0007a120 	.word	0x0007a120
 8001d60:	000f423f 	.word	0x000f423f
 8001d64:	20000648 	.word	0x20000648

08001d68 <MX_TIM1_Init>:
 8001d68:	b510      	push	{r4, lr}
 8001d6a:	2210      	movs	r2, #16
 8001d6c:	b09a      	sub	sp, #104	@ 0x68
 8001d6e:	2400      	movs	r4, #0
 8001d70:	2100      	movs	r1, #0
 8001d72:	eb0d 0002 	add.w	r0, sp, r2
 8001d76:	f007 fca4 	bl	80096c2 <memset>
 8001d7a:	221c      	movs	r2, #28
 8001d7c:	4621      	mov	r1, r4
 8001d7e:	a808      	add	r0, sp, #32
 8001d80:	e9cd 4401 	strd	r4, r4, [sp, #4]
 8001d84:	9403      	str	r4, [sp, #12]
 8001d86:	f007 fc9c 	bl	80096c2 <memset>
 8001d8a:	4621      	mov	r1, r4
 8001d8c:	222c      	movs	r2, #44	@ 0x2c
 8001d8e:	a80f      	add	r0, sp, #60	@ 0x3c
 8001d90:	f007 fc97 	bl	80096c2 <memset>
 8001d94:	482d      	ldr	r0, [pc, #180]	@ (8001e4c <MX_TIM1_Init+0xe4>)
 8001d96:	492e      	ldr	r1, [pc, #184]	@ (8001e50 <MX_TIM1_Init+0xe8>)
 8001d98:	6084      	str	r4, [r0, #8]
 8001d9a:	234f      	movs	r3, #79	@ 0x4f
 8001d9c:	e9c0 1300 	strd	r1, r3, [r0]
 8001da0:	f240 33e7 	movw	r3, #999	@ 0x3e7
 8001da4:	e9c0 3403 	strd	r3, r4, [r0, #12]
 8001da8:	2380      	movs	r3, #128	@ 0x80
 8001daa:	6144      	str	r4, [r0, #20]
 8001dac:	6183      	str	r3, [r0, #24]
 8001dae:	f001 fcb7 	bl	8003720 <HAL_TIM_Base_Init>
 8001db2:	b108      	cbz	r0, 8001db8 <MX_TIM1_Init+0x50>
 8001db4:	f7ff fd98 	bl	80018e8 <Error_Handler>
 8001db8:	f44f 5380 	mov.w	r3, #4096	@ 0x1000
 8001dbc:	4823      	ldr	r0, [pc, #140]	@ (8001e4c <MX_TIM1_Init+0xe4>)
 8001dbe:	9304      	str	r3, [sp, #16]
 8001dc0:	a904      	add	r1, sp, #16
 8001dc2:	f001 fdcb 	bl	800395c <HAL_TIM_ConfigClockSource>
 8001dc6:	b108      	cbz	r0, 8001dcc <MX_TIM1_Init+0x64>
 8001dc8:	f7ff fd8e 	bl	80018e8 <Error_Handler>
 8001dcc:	481f      	ldr	r0, [pc, #124]	@ (8001e4c <MX_TIM1_Init+0xe4>)
 8001dce:	f001 fcd7 	bl	8003780 <HAL_TIM_PWM_Init>
 8001dd2:	b108      	cbz	r0, 8001dd8 <MX_TIM1_Init+0x70>
 8001dd4:	f7ff fd88 	bl	80018e8 <Error_Handler>
 8001dd8:	2300      	movs	r3, #0
 8001dda:	481c      	ldr	r0, [pc, #112]	@ (8001e4c <MX_TIM1_Init+0xe4>)
 8001ddc:	9303      	str	r3, [sp, #12]
 8001dde:	a901      	add	r1, sp, #4
 8001de0:	e9cd 3301 	strd	r3, r3, [sp, #4]
 8001de4:	f001 ffb0 	bl	8003d48 <HAL_TIMEx_MasterConfigSynchronization>
 8001de8:	b108      	cbz	r0, 8001dee <MX_TIM1_Init+0x86>
 8001dea:	f7ff fd7d 	bl	80018e8 <Error_Handler>
 8001dee:	2400      	movs	r4, #0
 8001df0:	2260      	movs	r2, #96	@ 0x60
 8001df2:	f44f 73fa 	mov.w	r3, #500	@ 0x1f4
 8001df6:	e9cd 2308 	strd	r2, r3, [sp, #32]
 8001dfa:	4814      	ldr	r0, [pc, #80]	@ (8001e4c <MX_TIM1_Init+0xe4>)
 8001dfc:	940e      	str	r4, [sp, #56]	@ 0x38
 8001dfe:	4622      	mov	r2, r4
 8001e00:	a908      	add	r1, sp, #32
 8001e02:	e9cd 440a 	strd	r4, r4, [sp, #40]	@ 0x28
 8001e06:	e9cd 440c 	strd	r4, r4, [sp, #48]	@ 0x30
 8001e0a:	f001 fd21 	bl	8003850 <HAL_TIM_PWM_ConfigChannel>
 8001e0e:	b108      	cbz	r0, 8001e14 <MX_TIM1_Init+0xac>
 8001e10:	f7ff fd6a 	bl	80018e8 <Error_Handler>
 8001e14:	f44f 5300 	mov.w	r3, #8192	@ 0x2000
 8001e18:	e9cd 3414 	strd	r3, r4, [sp, #80]	@ 0x50
 8001e1c:	480b      	ldr	r0, [pc, #44]	@ (8001e4c <MX_TIM1_Init+0xe4>)
 8001e1e:	9413      	str	r4, [sp, #76]	@ 0x4c
 8001e20:	f04f 7300 	mov.w	r3, #33554432	@ 0x2000000
 8001e24:	a90f      	add	r1, sp, #60	@ 0x3c
 8001e26:	e9cd 440f 	strd	r4, r4, [sp, #60]	@ 0x3c
 8001e2a:	e9cd 4411 	strd	r4, r4, [sp, #68]	@ 0x44
 8001e2e:	e9cd 3417 	strd	r3, r4, [sp, #92]	@ 0x5c
 8001e32:	9416      	str	r4, [sp, #88]	@ 0x58
 8001e34:	9419      	str	r4, [sp, #100]	@ 0x64
 8001e36:	f001 ffb9 	bl	8003dac <HAL_TIMEx_ConfigBreakDeadTime>
 8001e3a:	b108      	cbz	r0, 8001e40 <MX_TIM1_Init+0xd8>
 8001e3c:	f7ff fd54 	bl	80018e8 <Error_Handler>
 8001e40:	4802      	ldr	r0, [pc, #8]	@ (8001e4c <MX_TIM1_Init+0xe4>)
 8001e42:	f7ff fea1 	bl	8001b88 <HAL_TIM_MspPostInit>
 8001e46:	b01a      	add	sp, #104	@ 0x68
 8001e48:	bd10      	pop	{r4, pc}
 8001e4a:	bf00      	nop
 8001e4c:	20000648 	.word	0x20000648
 8001e50:	40012c00 	.word	0x40012c00

08001e54 <pwm_service>:
 8001e54:	4770      	bx	lr
	...

08001e58 <HAL_TIM_PeriodElapsedCallback>:
 8001e58:	6802      	ldr	r2, [r0, #0]
 8001e5a:	4b15      	ldr	r3, [pc, #84]	@ (8001eb0 <HAL_TIM_PeriodElapsedCallback+0x58>)
 8001e5c:	429a      	cmp	r2, r3
 8001e5e:	b510      	push	{r4, lr}
 8001e60:	d125      	bne.n	8001eae <HAL_TIM_PeriodElapsedCallback+0x56>
 8001e62:	4b14      	ldr	r3, [pc, #80]	@ (8001eb4 <HAL_TIM_PeriodElapsedCallback+0x5c>)
 8001e64:	781b      	ldrb	r3, [r3, #0]
 8001e66:	b313      	cbz	r3, 8001eae <HAL_TIM_PeriodElapsedCallback+0x56>
 8001e68:	4913      	ldr	r1, [pc, #76]	@ (8001eb8 <HAL_TIM_PeriodElapsedCallback+0x60>)
 8001e6a:	780b      	ldrb	r3, [r1, #0]
 8001e6c:	b9fb      	cbnz	r3, 8001eae <HAL_TIM_PeriodElapsedCallback+0x56>
 8001e6e:	4b13      	ldr	r3, [pc, #76]	@ (8001ebc <HAL_TIM_PeriodElapsedCallback+0x64>)
 8001e70:	681a      	ldr	r2, [r3, #0]
 8001e72:	3201      	adds	r2, #1
 8001e74:	601a      	str	r2, [r3, #0]
 8001e76:	4a12      	ldr	r2, [pc, #72]	@ (8001ec0 <HAL_TIM_PeriodElapsedCallback+0x68>)
 8001e78:	6810      	ldr	r0, [r2, #0]
 8001e7a:	b1c0      	cbz	r0, 8001eae <HAL_TIM_PeriodElapsedCallback+0x56>
 8001e7c:	6818      	ldr	r0, [r3, #0]
 8001e7e:	6813      	ldr	r3, [r2, #0]
 8001e80:	4298      	cmp	r0, r3
 8001e82:	d314      	bcc.n	8001eae <HAL_TIM_PeriodElapsedCallback+0x56>
 8001e84:	4a0f      	ldr	r2, [pc, #60]	@ (8001ec4 <HAL_TIM_PeriodElapsedCallback+0x6c>)
 8001e86:	4c10      	ldr	r4, [pc, #64]	@ (8001ec8 <HAL_TIM_PeriodElapsedCallback+0x70>)
 8001e88:	2301      	movs	r3, #1
 8001e8a:	700b      	strb	r3, [r1, #0]
 8001e8c:	7013      	strb	r3, [r2, #0]
 8001e8e:	6823      	ldr	r3, [r4, #0]
 8001e90:	68da      	ldr	r2, [r3, #12]
 8001e92:	f022 0201 	bic.w	r2, r2, #1
 8001e96:	60da      	str	r2, [r3, #12]
 8001e98:	f06f 0202 	mvn.w	r2, #2
 8001e9c:	611a      	str	r2, [r3, #16]
 8001e9e:	201b      	movs	r0, #27
 8001ea0:	f000 f9b2 	bl	8002208 <HAL_NVIC_ClearPendingIRQ>
 8001ea4:	6822      	ldr	r2, [r4, #0]
 8001ea6:	68d3      	ldr	r3, [r2, #12]
 8001ea8:	f043 0302 	orr.w	r3, r3, #2
 8001eac:	60d3      	str	r3, [r2, #12]
 8001eae:	bd10      	pop	{r4, pc}
 8001eb0:	40012c00 	.word	0x40012c00
 8001eb4:	20000696 	.word	0x20000696
 8001eb8:	20000694 	.word	0x20000694
 8001ebc:	20000698 	.word	0x20000698
 8001ec0:	2000069c 	.word	0x2000069c
 8001ec4:	20000695 	.word	0x20000695
 8001ec8:	20000648 	.word	0x20000648

08001ecc <HAL_TIM_PWM_PulseFinishedCallback>:
 8001ecc:	b538      	push	{r3, r4, r5, lr}
 8001ece:	6802      	ldr	r2, [r0, #0]
 8001ed0:	4b16      	ldr	r3, [pc, #88]	@ (8001f2c <HAL_TIM_PWM_PulseFinishedCallback+0x60>)
 8001ed2:	429a      	cmp	r2, r3
 8001ed4:	d129      	bne.n	8001f2a <HAL_TIM_PWM_PulseFinishedCallback+0x5e>
 8001ed6:	7f03      	ldrb	r3, [r0, #28]
 8001ed8:	2b01      	cmp	r3, #1
 8001eda:	d126      	bne.n	8001f2a <HAL_TIM_PWM_PulseFinishedCallback+0x5e>
 8001edc:	4d14      	ldr	r5, [pc, #80]	@ (8001f30 <HAL_TIM_PWM_PulseFinishedCallback+0x64>)
 8001ede:	782b      	ldrb	r3, [r5, #0]
 8001ee0:	b31b      	cbz	r3, 8001f2a <HAL_TIM_PWM_PulseFinishedCallback+0x5e>
 8001ee2:	4c14      	ldr	r4, [pc, #80]	@ (8001f34 <HAL_TIM_PWM_PulseFinishedCallback+0x68>)
 8001ee4:	6822      	ldr	r2, [r4, #0]
 8001ee6:	68d3      	ldr	r3, [r2, #12]
 8001ee8:	f023 0302 	bic.w	r3, r3, #2
 8001eec:	60d3      	str	r3, [r2, #12]
 8001eee:	4620      	mov	r0, r4
 8001ef0:	f001 fb1e 	bl	8003530 <HAL_TIM_Base_Stop_IT>
 8001ef4:	2100      	movs	r1, #0
 8001ef6:	4620      	mov	r0, r4
 8001ef8:	f001 ff24 	bl	8003d44 <HAL_TIM_PWM_Stop>
 8001efc:	6823      	ldr	r3, [r4, #0]
 8001efe:	f06f 0201 	mvn.w	r2, #1
 8001f02:	611a      	str	r2, [r3, #16]
 8001f04:	f06f 0202 	mvn.w	r2, #2
 8001f08:	611a      	str	r2, [r3, #16]
 8001f0a:	2019      	movs	r0, #25
 8001f0c:	f000 f97c 	bl	8002208 <HAL_NVIC_ClearPendingIRQ>
 8001f10:	201b      	movs	r0, #27
 8001f12:	f000 f979 	bl	8002208 <HAL_NVIC_ClearPendingIRQ>
 8001f16:	4b08      	ldr	r3, [pc, #32]	@ (8001f38 <HAL_TIM_PWM_PulseFinishedCallback+0x6c>)
 8001f18:	2000      	movs	r0, #0
 8001f1a:	7018      	strb	r0, [r3, #0]
 8001f1c:	4b07      	ldr	r3, [pc, #28]	@ (8001f3c <HAL_TIM_PWM_PulseFinishedCallback+0x70>)
 8001f1e:	7028      	strb	r0, [r5, #0]
 8001f20:	7018      	strb	r0, [r3, #0]
 8001f22:	e8bd 4038 	ldmia.w	sp!, {r3, r4, r5, lr}
 8001f26:	f7ff bb0b 	b.w	8001540 <pwm_start_state_set>
 8001f2a:	bd38      	pop	{r3, r4, r5, pc}
 8001f2c:	40012c00 	.word	0x40012c00
 8001f30:	20000694 	.word	0x20000694
 8001f34:	20000648 	.word	0x20000648
 8001f38:	20000696 	.word	0x20000696
 8001f3c:	20000695 	.word	0x20000695

08001f40 <MX_USART2_UART_Init>:
 8001f40:	480c      	ldr	r0, [pc, #48]	@ (8001f74 <MX_USART2_UART_Init+0x34>)
 8001f42:	4a0d      	ldr	r2, [pc, #52]	@ (8001f78 <MX_USART2_UART_Init+0x38>)
 8001f44:	b508      	push	{r3, lr}
 8001f46:	f44f 33e1 	mov.w	r3, #115200	@ 0x1c200
 8001f4a:	e9c0 2300 	strd	r2, r3, [r0]
 8001f4e:	2300      	movs	r3, #0
 8001f50:	220c      	movs	r2, #12
 8001f52:	e9c0 3302 	strd	r3, r3, [r0, #8]
 8001f56:	e9c0 2305 	strd	r2, r3, [r0, #20]
 8001f5a:	e9c0 3307 	strd	r3, r3, [r0, #28]
 8001f5e:	6103      	str	r3, [r0, #16]
 8001f60:	6243      	str	r3, [r0, #36]	@ 0x24
 8001f62:	f002 fb3c 	bl	80045de <HAL_UART_Init>
 8001f66:	b118      	cbz	r0, 8001f70 <MX_USART2_UART_Init+0x30>
 8001f68:	e8bd 4008 	ldmia.w	sp!, {r3, lr}
 8001f6c:	f7ff bcbc 	b.w	80018e8 <Error_Handler>
 8001f70:	bd08      	pop	{r3, pc}
 8001f72:	bf00      	nop
 8001f74:	200006e8 	.word	0x200006e8
 8001f78:	40004400 	.word	0x40004400

08001f7c <HAL_UART_MspInit>:
 8001f7c:	b5f0      	push	{r4, r5, r6, r7, lr}
 8001f7e:	b09d      	sub	sp, #116	@ 0x74
 8001f80:	4606      	mov	r6, r0
 8001f82:	2214      	movs	r2, #20
 8001f84:	2100      	movs	r1, #0
 8001f86:	a802      	add	r0, sp, #8
 8001f88:	f007 fb9b 	bl	80096c2 <memset>
 8001f8c:	2254      	movs	r2, #84	@ 0x54
 8001f8e:	2100      	movs	r1, #0
 8001f90:	a807      	add	r0, sp, #28
 8001f92:	f007 fb96 	bl	80096c2 <memset>
 8001f96:	6832      	ldr	r2, [r6, #0]
 8001f98:	4b2b      	ldr	r3, [pc, #172]	@ (8002048 <HAL_UART_MspInit+0xcc>)
 8001f9a:	429a      	cmp	r2, r3
 8001f9c:	d152      	bne.n	8002044 <HAL_UART_MspInit+0xc8>
 8001f9e:	2302      	movs	r3, #2
 8001fa0:	a807      	add	r0, sp, #28
 8001fa2:	9307      	str	r3, [sp, #28]
 8001fa4:	f001 f81c 	bl	8002fe0 <HAL_RCCEx_PeriphCLKConfig>
 8001fa8:	b108      	cbz	r0, 8001fae <HAL_UART_MspInit+0x32>
 8001faa:	f7ff fc9d 	bl	80018e8 <Error_Handler>
 8001fae:	4b27      	ldr	r3, [pc, #156]	@ (800204c <HAL_UART_MspInit+0xd0>)
 8001fb0:	6d9a      	ldr	r2, [r3, #88]	@ 0x58
 8001fb2:	f442 3200 	orr.w	r2, r2, #131072	@ 0x20000
 8001fb6:	659a      	str	r2, [r3, #88]	@ 0x58
 8001fb8:	6d9a      	ldr	r2, [r3, #88]	@ 0x58
 8001fba:	f402 3200 	and.w	r2, r2, #131072	@ 0x20000
 8001fbe:	9200      	str	r2, [sp, #0]
 8001fc0:	9a00      	ldr	r2, [sp, #0]
 8001fc2:	6cda      	ldr	r2, [r3, #76]	@ 0x4c
 8001fc4:	f042 0201 	orr.w	r2, r2, #1
 8001fc8:	64da      	str	r2, [r3, #76]	@ 0x4c
 8001fca:	6cdb      	ldr	r3, [r3, #76]	@ 0x4c
 8001fcc:	f003 0301 	and.w	r3, r3, #1
 8001fd0:	9301      	str	r3, [sp, #4]
 8001fd2:	2702      	movs	r7, #2
 8001fd4:	9b01      	ldr	r3, [sp, #4]
 8001fd6:	2304      	movs	r3, #4
 8001fd8:	2500      	movs	r5, #0
 8001fda:	2403      	movs	r4, #3
 8001fdc:	e9cd 3702 	strd	r3, r7, [sp, #8]
 8001fe0:	a902      	add	r1, sp, #8
 8001fe2:	2307      	movs	r3, #7
 8001fe4:	f04f 4090 	mov.w	r0, #1207959552	@ 0x48000000
 8001fe8:	e9cd 5404 	strd	r5, r4, [sp, #16]
 8001fec:	9306      	str	r3, [sp, #24]
 8001fee:	f000 fa4d 	bl	800248c <HAL_GPIO_Init>
 8001ff2:	f44f 4300 	mov.w	r3, #32768	@ 0x8000
 8001ff6:	f04f 4090 	mov.w	r0, #1207959552	@ 0x48000000
 8001ffa:	a902      	add	r1, sp, #8
 8001ffc:	e9cd 3702 	strd	r3, r7, [sp, #8]
 8002000:	e9cd 5404 	strd	r5, r4, [sp, #16]
 8002004:	9406      	str	r4, [sp, #24]
 8002006:	f000 fa41 	bl	800248c <HAL_GPIO_Init>
 800200a:	4c11      	ldr	r4, [pc, #68]	@ (8002050 <HAL_UART_MspInit+0xd4>)
 800200c:	4b11      	ldr	r3, [pc, #68]	@ (8002054 <HAL_UART_MspInit+0xd8>)
 800200e:	61a5      	str	r5, [r4, #24]
 8002010:	e9c4 3700 	strd	r3, r7, [r4]
 8002014:	2380      	movs	r3, #128	@ 0x80
 8002016:	e9c4 3504 	strd	r3, r5, [r4, #16]
 800201a:	4620      	mov	r0, r4
 800201c:	2320      	movs	r3, #32
 800201e:	e9c4 5502 	strd	r5, r5, [r4, #8]
 8002022:	e9c4 3507 	strd	r3, r5, [r4, #28]
 8002026:	f000 f8fd 	bl	8002224 <HAL_DMA_Init>
 800202a:	b108      	cbz	r0, 8002030 <HAL_UART_MspInit+0xb4>
 800202c:	f7ff fc5c 	bl	80018e8 <Error_Handler>
 8002030:	2200      	movs	r2, #0
 8002032:	2026      	movs	r0, #38	@ 0x26
 8002034:	6774      	str	r4, [r6, #116]	@ 0x74
 8002036:	4611      	mov	r1, r2
 8002038:	62a6      	str	r6, [r4, #40]	@ 0x28
 800203a:	f000 f891 	bl	8002160 <HAL_NVIC_SetPriority>
 800203e:	2026      	movs	r0, #38	@ 0x26
 8002040:	f000 f8c0 	bl	80021c4 <HAL_NVIC_EnableIRQ>
 8002044:	b01d      	add	sp, #116	@ 0x74
 8002046:	bdf0      	pop	{r4, r5, r6, r7, pc}
 8002048:	40004400 	.word	0x40004400
 800204c:	40021000 	.word	0x40021000
 8002050:	200006a0 	.word	0x200006a0
 8002054:	4002006c 	.word	0x4002006c

08002058 <Reset_Handler>:
 8002058:	f8df d034 	ldr.w	sp, [pc, #52]	@ 8002090 <LoopForever+0x2>
 800205c:	f7ff fcda 	bl	8001a14 <SystemInit>
 8002060:	480c      	ldr	r0, [pc, #48]	@ (8002094 <LoopForever+0x6>)
 8002062:	490d      	ldr	r1, [pc, #52]	@ (8002098 <LoopForever+0xa>)
 8002064:	4a0d      	ldr	r2, [pc, #52]	@ (800209c <LoopForever+0xe>)
 8002066:	2300      	movs	r3, #0
 8002068:	e002      	b.n	8002070 <LoopCopyDataInit>

0800206a <CopyDataInit>:
 800206a:	58d4      	ldr	r4, [r2, r3]
 800206c:	50c4      	str	r4, [r0, r3]
 800206e:	3304      	adds	r3, #4

08002070 <LoopCopyDataInit>:
 8002070:	18c4      	adds	r4, r0, r3
 8002072:	428c      	cmp	r4, r1
 8002074:	d3f9      	bcc.n	800206a <CopyDataInit>
 8002076:	4a0a      	ldr	r2, [pc, #40]	@ (80020a0 <LoopForever+0x12>)
 8002078:	4c0a      	ldr	r4, [pc, #40]	@ (80020a4 <LoopForever+0x16>)
 800207a:	2300      	movs	r3, #0
 800207c:	e001      	b.n	8002082 <LoopFillZerobss>

0800207e <FillZerobss>:
 800207e:	6013      	str	r3, [r2, #0]
 8002080:	3204      	adds	r2, #4

08002082 <LoopFillZerobss>:
 8002082:	42a2      	cmp	r2, r4
 8002084:	d3fb      	bcc.n	800207e <FillZerobss>
 8002086:	f007 fbaf 	bl	80097e8 <__libc_init_array>
 800208a:	f7ff fc1b 	bl	80018c4 <main>

0800208e <LoopForever>:
 800208e:	e7fe      	b.n	800208e <LoopForever>
 8002090:	20010000 	.word	0x20010000
 8002094:	20000000 	.word	0x20000000
 8002098:	20000210 	.word	0x20000210
 800209c:	0800c558 	.word	0x0800c558
 80020a0:	20000210 	.word	0x20000210
 80020a4:	200008c0 	.word	0x200008c0

080020a8 <ADC1_IRQHandler>:
 80020a8:	e7fe      	b.n	80020a8 <ADC1_IRQHandler>
	...

080020ac <HAL_InitTick>:
 80020ac:	b538      	push	{r3, r4, r5, lr}
 80020ae:	4b0f      	ldr	r3, [pc, #60]	@ (80020ec <HAL_InitTick+0x40>)
 80020b0:	781a      	ldrb	r2, [r3, #0]
 80020b2:	4605      	mov	r5, r0
 80020b4:	b90a      	cbnz	r2, 80020ba <HAL_InitTick+0xe>
 80020b6:	2001      	movs	r0, #1
 80020b8:	bd38      	pop	{r3, r4, r5, pc}
 80020ba:	f44f 737a 	mov.w	r3, #1000	@ 0x3e8
 80020be:	fbb3 f3f2 	udiv	r3, r3, r2
 80020c2:	4a0b      	ldr	r2, [pc, #44]	@ (80020f0 <HAL_InitTick+0x44>)
 80020c4:	6810      	ldr	r0, [r2, #0]
 80020c6:	fbb0 f0f3 	udiv	r0, r0, r3
 80020ca:	f000 f889 	bl	80021e0 <HAL_SYSTICK_Config>
 80020ce:	4604      	mov	r4, r0
 80020d0:	2800      	cmp	r0, #0
 80020d2:	d1f0      	bne.n	80020b6 <HAL_InitTick+0xa>
 80020d4:	2d0f      	cmp	r5, #15
 80020d6:	d8ee      	bhi.n	80020b6 <HAL_InitTick+0xa>
 80020d8:	4602      	mov	r2, r0
 80020da:	4629      	mov	r1, r5
 80020dc:	f04f 30ff 	mov.w	r0, #4294967295
 80020e0:	f000 f83e 	bl	8002160 <HAL_NVIC_SetPriority>
 80020e4:	4b03      	ldr	r3, [pc, #12]	@ (80020f4 <HAL_InitTick+0x48>)
 80020e6:	4620      	mov	r0, r4
 80020e8:	601d      	str	r5, [r3, #0]
 80020ea:	e7e5      	b.n	80020b8 <HAL_InitTick+0xc>
 80020ec:	20000040 	.word	0x20000040
 80020f0:	2000003c 	.word	0x2000003c
 80020f4:	20000044 	.word	0x20000044

080020f8 <HAL_Init>:
 80020f8:	b510      	push	{r4, lr}
 80020fa:	2003      	movs	r0, #3
 80020fc:	f000 f81e 	bl	800213c <HAL_NVIC_SetPriorityGrouping>
 8002100:	2000      	movs	r0, #0
 8002102:	f7ff ffd3 	bl	80020ac <HAL_InitTick>
 8002106:	4604      	mov	r4, r0
 8002108:	b918      	cbnz	r0, 8002112 <HAL_Init+0x1a>
 800210a:	f7ff fbef 	bl	80018ec <HAL_MspInit>
 800210e:	4620      	mov	r0, r4
 8002110:	bd10      	pop	{r4, pc}
 8002112:	2401      	movs	r4, #1
 8002114:	e7fb      	b.n	800210e <HAL_Init+0x16>
	...

08002118 <HAL_IncTick>:
 8002118:	4a03      	ldr	r2, [pc, #12]	@ (8002128 <HAL_IncTick+0x10>)
 800211a:	4b04      	ldr	r3, [pc, #16]	@ (800212c <HAL_IncTick+0x14>)
 800211c:	6811      	ldr	r1, [r2, #0]
 800211e:	781b      	ldrb	r3, [r3, #0]
 8002120:	440b      	add	r3, r1
 8002122:	6013      	str	r3, [r2, #0]
 8002124:	4770      	bx	lr
 8002126:	bf00      	nop
 8002128:	20000770 	.word	0x20000770
 800212c:	20000040 	.word	0x20000040

08002130 <HAL_GetTick>:
 8002130:	4b01      	ldr	r3, [pc, #4]	@ (8002138 <HAL_GetTick+0x8>)
 8002132:	6818      	ldr	r0, [r3, #0]
 8002134:	4770      	bx	lr
 8002136:	bf00      	nop
 8002138:	20000770 	.word	0x20000770

0800213c <HAL_NVIC_SetPriorityGrouping>:
 800213c:	4907      	ldr	r1, [pc, #28]	@ (800215c <HAL_NVIC_SetPriorityGrouping+0x20>)
 800213e:	68ca      	ldr	r2, [r1, #12]
 8002140:	f422 62e0 	bic.w	r2, r2, #1792	@ 0x700
 8002144:	0203      	lsls	r3, r0, #8
 8002146:	0412      	lsls	r2, r2, #16
 8002148:	f403 63e0 	and.w	r3, r3, #1792	@ 0x700
 800214c:	0c12      	lsrs	r2, r2, #16
 800214e:	4313      	orrs	r3, r2
 8002150:	f043 63bf 	orr.w	r3, r3, #100139008	@ 0x5f80000
 8002154:	f443 3300 	orr.w	r3, r3, #131072	@ 0x20000
 8002158:	60cb      	str	r3, [r1, #12]
 800215a:	4770      	bx	lr
 800215c:	e000ed00 	.word	0xe000ed00

08002160 <HAL_NVIC_SetPriority>:
 8002160:	4b16      	ldr	r3, [pc, #88]	@ (80021bc <HAL_NVIC_SetPriority+0x5c>)
 8002162:	b530      	push	{r4, r5, lr}
 8002164:	68dc      	ldr	r4, [r3, #12]
 8002166:	f3c4 2402 	ubfx	r4, r4, #8, #3
 800216a:	f1c4 0307 	rsb	r3, r4, #7
 800216e:	1d25      	adds	r5, r4, #4
 8002170:	2b04      	cmp	r3, #4
 8002172:	bf28      	it	cs
 8002174:	2304      	movcs	r3, #4
 8002176:	2d06      	cmp	r5, #6
 8002178:	f04f 35ff 	mov.w	r5, #4294967295
 800217c:	bf8c      	ite	hi
 800217e:	3c03      	subhi	r4, #3
 8002180:	2400      	movls	r4, #0
 8002182:	fa05 f303 	lsl.w	r3, r5, r3
 8002186:	ea21 0303 	bic.w	r3, r1, r3
 800218a:	40a5      	lsls	r5, r4
 800218c:	ea22 0205 	bic.w	r2, r2, r5
 8002190:	40a3      	lsls	r3, r4
 8002192:	2800      	cmp	r0, #0
 8002194:	ea43 0302 	orr.w	r3, r3, r2
 8002198:	bfac      	ite	ge
 800219a:	f100 4060 	addge.w	r0, r0, #3758096384	@ 0xe0000000
 800219e:	4a08      	ldrlt	r2, [pc, #32]	@ (80021c0 <HAL_NVIC_SetPriority+0x60>)
 80021a0:	ea4f 1303 	mov.w	r3, r3, lsl #4
 80021a4:	bfb8      	it	lt
 80021a6:	f000 000f 	andlt.w	r0, r0, #15
 80021aa:	b2db      	uxtb	r3, r3
 80021ac:	bfaa      	itet	ge
 80021ae:	f500 4061 	addge.w	r0, r0, #57600	@ 0xe100
 80021b2:	5413      	strblt	r3, [r2, r0]
 80021b4:	f880 3300 	strbge.w	r3, [r0, #768]	@ 0x300
 80021b8:	bd30      	pop	{r4, r5, pc}
 80021ba:	bf00      	nop
 80021bc:	e000ed00 	.word	0xe000ed00
 80021c0:	e000ed14 	.word	0xe000ed14

080021c4 <HAL_NVIC_EnableIRQ>:
 80021c4:	2800      	cmp	r0, #0
 80021c6:	db07      	blt.n	80021d8 <HAL_NVIC_EnableIRQ+0x14>
 80021c8:	4a04      	ldr	r2, [pc, #16]	@ (80021dc <HAL_NVIC_EnableIRQ+0x18>)
 80021ca:	0941      	lsrs	r1, r0, #5
 80021cc:	2301      	movs	r3, #1
 80021ce:	f000 001f 	and.w	r0, r0, #31
 80021d2:	4083      	lsls	r3, r0
 80021d4:	f842 3021 	str.w	r3, [r2, r1, lsl #2]
 80021d8:	4770      	bx	lr
 80021da:	bf00      	nop
 80021dc:	e000e100 	.word	0xe000e100

080021e0 <HAL_SYSTICK_Config>:
 80021e0:	3801      	subs	r0, #1
 80021e2:	f1b0 7f80 	cmp.w	r0, #16777216	@ 0x1000000
 80021e6:	d20b      	bcs.n	8002200 <HAL_SYSTICK_Config+0x20>
 80021e8:	f04f 23e0 	mov.w	r3, #3758153728	@ 0xe000e000
 80021ec:	4a05      	ldr	r2, [pc, #20]	@ (8002204 <HAL_SYSTICK_Config+0x24>)
 80021ee:	6158      	str	r0, [r3, #20]
 80021f0:	21f0      	movs	r1, #240	@ 0xf0
 80021f2:	f882 1023 	strb.w	r1, [r2, #35]	@ 0x23
 80021f6:	2000      	movs	r0, #0
 80021f8:	2207      	movs	r2, #7
 80021fa:	6198      	str	r0, [r3, #24]
 80021fc:	611a      	str	r2, [r3, #16]
 80021fe:	4770      	bx	lr
 8002200:	2001      	movs	r0, #1
 8002202:	4770      	bx	lr
 8002204:	e000ed00 	.word	0xe000ed00

08002208 <HAL_NVIC_ClearPendingIRQ>:
 8002208:	2800      	cmp	r0, #0
 800220a:	db08      	blt.n	800221e <HAL_NVIC_ClearPendingIRQ+0x16>
 800220c:	0943      	lsrs	r3, r0, #5
 800220e:	4904      	ldr	r1, [pc, #16]	@ (8002220 <HAL_NVIC_ClearPendingIRQ+0x18>)
 8002210:	f000 001f 	and.w	r0, r0, #31
 8002214:	2201      	movs	r2, #1
 8002216:	3360      	adds	r3, #96	@ 0x60
 8002218:	4082      	lsls	r2, r0
 800221a:	f841 2023 	str.w	r2, [r1, r3, lsl #2]
 800221e:	4770      	bx	lr
 8002220:	e000e100 	.word	0xe000e100

08002224 <HAL_DMA_Init>:
 8002224:	b5f0      	push	{r4, r5, r6, r7, lr}
 8002226:	4603      	mov	r3, r0
 8002228:	2800      	cmp	r0, #0
 800222a:	d054      	beq.n	80022d6 <HAL_DMA_Init+0xb2>
 800222c:	6804      	ldr	r4, [r0, #0]
 800222e:	4a2b      	ldr	r2, [pc, #172]	@ (80022dc <HAL_DMA_Init+0xb8>)
 8002230:	4294      	cmp	r4, r2
 8002232:	f04f 0114 	mov.w	r1, #20
 8002236:	d83c      	bhi.n	80022b2 <HAL_DMA_Init+0x8e>
 8002238:	4a29      	ldr	r2, [pc, #164]	@ (80022e0 <HAL_DMA_Init+0xbc>)
 800223a:	482a      	ldr	r0, [pc, #168]	@ (80022e4 <HAL_DMA_Init+0xc0>)
 800223c:	4422      	add	r2, r4
 800223e:	fbb2 f2f1 	udiv	r2, r2, r1
 8002242:	0092      	lsls	r2, r2, #2
 8002244:	2102      	movs	r1, #2
 8002246:	f883 1025 	strb.w	r1, [r3, #37]	@ 0x25
 800224a:	e9d3 6102 	ldrd	r6, r1, [r3, #8]
 800224e:	691f      	ldr	r7, [r3, #16]
 8002250:	6825      	ldr	r5, [r4, #0]
 8002252:	4331      	orrs	r1, r6
 8002254:	4339      	orrs	r1, r7
 8002256:	695f      	ldr	r7, [r3, #20]
 8002258:	4339      	orrs	r1, r7
 800225a:	699f      	ldr	r7, [r3, #24]
 800225c:	4339      	orrs	r1, r7
 800225e:	69df      	ldr	r7, [r3, #28]
 8002260:	4339      	orrs	r1, r7
 8002262:	6a1f      	ldr	r7, [r3, #32]
 8002264:	f36f 150e 	bfc	r5, #4, #11
 8002268:	4339      	orrs	r1, r7
 800226a:	4329      	orrs	r1, r5
 800226c:	f5b6 4f80 	cmp.w	r6, #16384	@ 0x4000
 8002270:	e9c3 0210 	strd	r0, r2, [r3, #64]	@ 0x40
 8002274:	6021      	str	r1, [r4, #0]
 8002276:	d014      	beq.n	80022a2 <HAL_DMA_Init+0x7e>
 8002278:	685c      	ldr	r4, [r3, #4]
 800227a:	f002 021c 	and.w	r2, r2, #28
 800227e:	210f      	movs	r1, #15
 8002280:	4091      	lsls	r1, r2
 8002282:	4094      	lsls	r4, r2
 8002284:	4a17      	ldr	r2, [pc, #92]	@ (80022e4 <HAL_DMA_Init+0xc0>)
 8002286:	4290      	cmp	r0, r2
 8002288:	ea6f 0101 	mvn.w	r1, r1
 800228c:	d118      	bne.n	80022c0 <HAL_DMA_Init+0x9c>
 800228e:	f8d0 20a8 	ldr.w	r2, [r0, #168]	@ 0xa8
 8002292:	400a      	ands	r2, r1
 8002294:	f8c0 20a8 	str.w	r2, [r0, #168]	@ 0xa8
 8002298:	f8d0 20a8 	ldr.w	r2, [r0, #168]	@ 0xa8
 800229c:	4322      	orrs	r2, r4
 800229e:	f8c0 20a8 	str.w	r2, [r0, #168]	@ 0xa8
 80022a2:	2000      	movs	r0, #0
 80022a4:	2201      	movs	r2, #1
 80022a6:	63d8      	str	r0, [r3, #60]	@ 0x3c
 80022a8:	f883 0024 	strb.w	r0, [r3, #36]	@ 0x24
 80022ac:	f883 2025 	strb.w	r2, [r3, #37]	@ 0x25
 80022b0:	bdf0      	pop	{r4, r5, r6, r7, pc}
 80022b2:	4a0d      	ldr	r2, [pc, #52]	@ (80022e8 <HAL_DMA_Init+0xc4>)
 80022b4:	480d      	ldr	r0, [pc, #52]	@ (80022ec <HAL_DMA_Init+0xc8>)
 80022b6:	4422      	add	r2, r4
 80022b8:	fbb2 f2f1 	udiv	r2, r2, r1
 80022bc:	0092      	lsls	r2, r2, #2
 80022be:	e7c1      	b.n	8002244 <HAL_DMA_Init+0x20>
 80022c0:	f8d2 04a8 	ldr.w	r0, [r2, #1192]	@ 0x4a8
 80022c4:	4001      	ands	r1, r0
 80022c6:	f8c2 14a8 	str.w	r1, [r2, #1192]	@ 0x4a8
 80022ca:	f8d2 14a8 	ldr.w	r1, [r2, #1192]	@ 0x4a8
 80022ce:	4321      	orrs	r1, r4
 80022d0:	f8c2 14a8 	str.w	r1, [r2, #1192]	@ 0x4a8
 80022d4:	e7e5      	b.n	80022a2 <HAL_DMA_Init+0x7e>
 80022d6:	2001      	movs	r0, #1
 80022d8:	e7ea      	b.n	80022b0 <HAL_DMA_Init+0x8c>
 80022da:	bf00      	nop
 80022dc:	40020407 	.word	0x40020407
 80022e0:	bffdfff8 	.word	0xbffdfff8
 80022e4:	40020000 	.word	0x40020000
 80022e8:	bffdfbf8 	.word	0xbffdfbf8
 80022ec:	40020400 	.word	0x40020400

080022f0 <HAL_DMA_Start_IT>:
 80022f0:	b5f0      	push	{r4, r5, r6, r7, lr}
 80022f2:	f890 4024 	ldrb.w	r4, [r0, #36]	@ 0x24
 80022f6:	2c01      	cmp	r4, #1
 80022f8:	d036      	beq.n	8002368 <HAL_DMA_Start_IT+0x78>
 80022fa:	2401      	movs	r4, #1
 80022fc:	f880 4024 	strb.w	r4, [r0, #36]	@ 0x24
 8002300:	f890 4025 	ldrb.w	r4, [r0, #37]	@ 0x25
 8002304:	2c01      	cmp	r4, #1
 8002306:	b2e5      	uxtb	r5, r4
 8002308:	f04f 0400 	mov.w	r4, #0
 800230c:	d12a      	bne.n	8002364 <HAL_DMA_Start_IT+0x74>
 800230e:	2602      	movs	r6, #2
 8002310:	f880 6025 	strb.w	r6, [r0, #37]	@ 0x25
 8002314:	63c4      	str	r4, [r0, #60]	@ 0x3c
 8002316:	6804      	ldr	r4, [r0, #0]
 8002318:	6826      	ldr	r6, [r4, #0]
 800231a:	f026 0601 	bic.w	r6, r6, #1
 800231e:	6026      	str	r6, [r4, #0]
 8002320:	e9d0 6710 	ldrd	r6, r7, [r0, #64]	@ 0x40
 8002324:	f007 071c 	and.w	r7, r7, #28
 8002328:	40bd      	lsls	r5, r7
 800232a:	6075      	str	r5, [r6, #4]
 800232c:	6063      	str	r3, [r4, #4]
 800232e:	6883      	ldr	r3, [r0, #8]
 8002330:	2b10      	cmp	r3, #16
 8002332:	6b03      	ldr	r3, [r0, #48]	@ 0x30
 8002334:	bf0b      	itete	eq
 8002336:	60a2      	streq	r2, [r4, #8]
 8002338:	60a1      	strne	r1, [r4, #8]
 800233a:	60e1      	streq	r1, [r4, #12]
 800233c:	60e2      	strne	r2, [r4, #12]
 800233e:	b14b      	cbz	r3, 8002354 <HAL_DMA_Start_IT+0x64>
 8002340:	6823      	ldr	r3, [r4, #0]
 8002342:	f043 030e 	orr.w	r3, r3, #14
 8002346:	6023      	str	r3, [r4, #0]
 8002348:	6823      	ldr	r3, [r4, #0]
 800234a:	f043 0301 	orr.w	r3, r3, #1
 800234e:	6023      	str	r3, [r4, #0]
 8002350:	2000      	movs	r0, #0
 8002352:	bdf0      	pop	{r4, r5, r6, r7, pc}
 8002354:	6823      	ldr	r3, [r4, #0]
 8002356:	f023 0304 	bic.w	r3, r3, #4
 800235a:	6023      	str	r3, [r4, #0]
 800235c:	6823      	ldr	r3, [r4, #0]
 800235e:	f043 030a 	orr.w	r3, r3, #10
 8002362:	e7f0      	b.n	8002346 <HAL_DMA_Start_IT+0x56>
 8002364:	f880 4024 	strb.w	r4, [r0, #36]	@ 0x24
 8002368:	2002      	movs	r0, #2
 800236a:	e7f2      	b.n	8002352 <HAL_DMA_Start_IT+0x62>

0800236c <HAL_DMA_Abort>:
 800236c:	f890 2025 	ldrb.w	r2, [r0, #37]	@ 0x25
 8002370:	2a02      	cmp	r2, #2
 8002372:	4603      	mov	r3, r0
 8002374:	d006      	beq.n	8002384 <HAL_DMA_Abort+0x18>
 8002376:	2204      	movs	r2, #4
 8002378:	63c2      	str	r2, [r0, #60]	@ 0x3c
 800237a:	2001      	movs	r0, #1
 800237c:	2200      	movs	r2, #0
 800237e:	f883 2024 	strb.w	r2, [r3, #36]	@ 0x24
 8002382:	4770      	bx	lr
 8002384:	6802      	ldr	r2, [r0, #0]
 8002386:	6811      	ldr	r1, [r2, #0]
 8002388:	f021 010e 	bic.w	r1, r1, #14
 800238c:	6011      	str	r1, [r2, #0]
 800238e:	6811      	ldr	r1, [r2, #0]
 8002390:	f021 0101 	bic.w	r1, r1, #1
 8002394:	6011      	str	r1, [r2, #0]
 8002396:	e9d0 0210 	ldrd	r0, r2, [r0, #64]	@ 0x40
 800239a:	2101      	movs	r1, #1
 800239c:	f002 021c 	and.w	r2, r2, #28
 80023a0:	fa01 f202 	lsl.w	r2, r1, r2
 80023a4:	6042      	str	r2, [r0, #4]
 80023a6:	f883 1025 	strb.w	r1, [r3, #37]	@ 0x25
 80023aa:	2000      	movs	r0, #0
 80023ac:	e7e6      	b.n	800237c <HAL_DMA_Abort+0x10>

080023ae <HAL_DMA_Abort_IT>:
 80023ae:	b510      	push	{r4, lr}
 80023b0:	f890 2025 	ldrb.w	r2, [r0, #37]	@ 0x25
 80023b4:	2a02      	cmp	r2, #2
 80023b6:	d003      	beq.n	80023c0 <HAL_DMA_Abort_IT+0x12>
 80023b8:	2204      	movs	r2, #4
 80023ba:	63c2      	str	r2, [r0, #60]	@ 0x3c
 80023bc:	2001      	movs	r0, #1
 80023be:	bd10      	pop	{r4, pc}
 80023c0:	6802      	ldr	r2, [r0, #0]
 80023c2:	6b83      	ldr	r3, [r0, #56]	@ 0x38
 80023c4:	6811      	ldr	r1, [r2, #0]
 80023c6:	f021 010e 	bic.w	r1, r1, #14
 80023ca:	6011      	str	r1, [r2, #0]
 80023cc:	6811      	ldr	r1, [r2, #0]
 80023ce:	f021 0101 	bic.w	r1, r1, #1
 80023d2:	6011      	str	r1, [r2, #0]
 80023d4:	e9d0 4210 	ldrd	r4, r2, [r0, #64]	@ 0x40
 80023d8:	2101      	movs	r1, #1
 80023da:	f002 021c 	and.w	r2, r2, #28
 80023de:	fa01 f202 	lsl.w	r2, r1, r2
 80023e2:	6062      	str	r2, [r4, #4]
 80023e4:	2200      	movs	r2, #0
 80023e6:	f880 1025 	strb.w	r1, [r0, #37]	@ 0x25
 80023ea:	f880 2024 	strb.w	r2, [r0, #36]	@ 0x24
 80023ee:	b103      	cbz	r3, 80023f2 <HAL_DMA_Abort_IT+0x44>
 80023f0:	4798      	blx	r3
 80023f2:	2000      	movs	r0, #0
 80023f4:	e7e3      	b.n	80023be <HAL_DMA_Abort_IT+0x10>

080023f6 <HAL_DMA_IRQHandler>:
 80023f6:	6c01      	ldr	r1, [r0, #64]	@ 0x40
 80023f8:	6c42      	ldr	r2, [r0, #68]	@ 0x44
 80023fa:	6803      	ldr	r3, [r0, #0]
 80023fc:	b470      	push	{r4, r5, r6}
 80023fe:	f002 021c 	and.w	r2, r2, #28
 8002402:	680e      	ldr	r6, [r1, #0]
 8002404:	681d      	ldr	r5, [r3, #0]
 8002406:	2404      	movs	r4, #4
 8002408:	4094      	lsls	r4, r2
 800240a:	4234      	tst	r4, r6
 800240c:	d00e      	beq.n	800242c <HAL_DMA_IRQHandler+0x36>
 800240e:	f015 0f04 	tst.w	r5, #4
 8002412:	d00b      	beq.n	800242c <HAL_DMA_IRQHandler+0x36>
 8002414:	681a      	ldr	r2, [r3, #0]
 8002416:	0692      	lsls	r2, r2, #26
 8002418:	bf5e      	ittt	pl
 800241a:	681a      	ldrpl	r2, [r3, #0]
 800241c:	f022 0204 	bicpl.w	r2, r2, #4
 8002420:	601a      	strpl	r2, [r3, #0]
 8002422:	6b03      	ldr	r3, [r0, #48]	@ 0x30
 8002424:	604c      	str	r4, [r1, #4]
 8002426:	b373      	cbz	r3, 8002486 <HAL_DMA_IRQHandler+0x90>
 8002428:	bc70      	pop	{r4, r5, r6}
 800242a:	4718      	bx	r3
 800242c:	2402      	movs	r4, #2
 800242e:	4094      	lsls	r4, r2
 8002430:	4234      	tst	r4, r6
 8002432:	d012      	beq.n	800245a <HAL_DMA_IRQHandler+0x64>
 8002434:	f015 0f02 	tst.w	r5, #2
 8002438:	d00f      	beq.n	800245a <HAL_DMA_IRQHandler+0x64>
 800243a:	681a      	ldr	r2, [r3, #0]
 800243c:	0695      	lsls	r5, r2, #26
 800243e:	d406      	bmi.n	800244e <HAL_DMA_IRQHandler+0x58>
 8002440:	681a      	ldr	r2, [r3, #0]
 8002442:	f022 020a 	bic.w	r2, r2, #10
 8002446:	601a      	str	r2, [r3, #0]
 8002448:	2301      	movs	r3, #1
 800244a:	f880 3025 	strb.w	r3, [r0, #37]	@ 0x25
 800244e:	2300      	movs	r3, #0
 8002450:	604c      	str	r4, [r1, #4]
 8002452:	f880 3024 	strb.w	r3, [r0, #36]	@ 0x24
 8002456:	6ac3      	ldr	r3, [r0, #44]	@ 0x2c
 8002458:	e7e5      	b.n	8002426 <HAL_DMA_IRQHandler+0x30>
 800245a:	2408      	movs	r4, #8
 800245c:	4094      	lsls	r4, r2
 800245e:	4234      	tst	r4, r6
 8002460:	d011      	beq.n	8002486 <HAL_DMA_IRQHandler+0x90>
 8002462:	072c      	lsls	r4, r5, #28
 8002464:	d50f      	bpl.n	8002486 <HAL_DMA_IRQHandler+0x90>
 8002466:	681c      	ldr	r4, [r3, #0]
 8002468:	f024 040e 	bic.w	r4, r4, #14
 800246c:	601c      	str	r4, [r3, #0]
 800246e:	2301      	movs	r3, #1
 8002470:	fa03 f202 	lsl.w	r2, r3, r2
 8002474:	604a      	str	r2, [r1, #4]
 8002476:	63c3      	str	r3, [r0, #60]	@ 0x3c
 8002478:	f880 3025 	strb.w	r3, [r0, #37]	@ 0x25
 800247c:	2300      	movs	r3, #0
 800247e:	f880 3024 	strb.w	r3, [r0, #36]	@ 0x24
 8002482:	6b43      	ldr	r3, [r0, #52]	@ 0x34
 8002484:	e7cf      	b.n	8002426 <HAL_DMA_IRQHandler+0x30>
 8002486:	bc70      	pop	{r4, r5, r6}
 8002488:	4770      	bx	lr
	...

0800248c <HAL_GPIO_Init>:
 800248c:	e92d 4ff7 	stmdb	sp!, {r0, r1, r2, r4, r5, r6, r7, r8, r9, sl, fp, lr}
 8002490:	f8df 9164 	ldr.w	r9, [pc, #356]	@ 80025f8 <HAL_GPIO_Init+0x16c>
 8002494:	4c56      	ldr	r4, [pc, #344]	@ (80025f0 <HAL_GPIO_Init+0x164>)
 8002496:	2300      	movs	r3, #0
 8002498:	680a      	ldr	r2, [r1, #0]
 800249a:	fa32 f503 	lsrs.w	r5, r2, r3
 800249e:	d102      	bne.n	80024a6 <HAL_GPIO_Init+0x1a>
 80024a0:	b003      	add	sp, #12
 80024a2:	e8bd 8ff0 	ldmia.w	sp!, {r4, r5, r6, r7, r8, r9, sl, fp, pc}
 80024a6:	2501      	movs	r5, #1
 80024a8:	fa05 f803 	lsl.w	r8, r5, r3
 80024ac:	ea18 0202 	ands.w	r2, r8, r2
 80024b0:	f000 8098 	beq.w	80025e4 <HAL_GPIO_Init+0x158>
 80024b4:	684e      	ldr	r6, [r1, #4]
 80024b6:	2703      	movs	r7, #3
 80024b8:	f006 0503 	and.w	r5, r6, #3
 80024bc:	ea4f 0e43 	mov.w	lr, r3, lsl #1
 80024c0:	fa07 fc0e 	lsl.w	ip, r7, lr
 80024c4:	1e6f      	subs	r7, r5, #1
 80024c6:	2f01      	cmp	r7, #1
 80024c8:	ea6f 0c0c 	mvn.w	ip, ip
 80024cc:	d834      	bhi.n	8002538 <HAL_GPIO_Init+0xac>
 80024ce:	6887      	ldr	r7, [r0, #8]
 80024d0:	ea07 0a0c 	and.w	sl, r7, ip
 80024d4:	68cf      	ldr	r7, [r1, #12]
 80024d6:	fa07 f70e 	lsl.w	r7, r7, lr
 80024da:	ea47 070a 	orr.w	r7, r7, sl
 80024de:	6087      	str	r7, [r0, #8]
 80024e0:	6847      	ldr	r7, [r0, #4]
 80024e2:	ea27 0808 	bic.w	r8, r7, r8
 80024e6:	f3c6 1700 	ubfx	r7, r6, #4, #1
 80024ea:	409f      	lsls	r7, r3
 80024ec:	ea47 0708 	orr.w	r7, r7, r8
 80024f0:	6047      	str	r7, [r0, #4]
 80024f2:	68c7      	ldr	r7, [r0, #12]
 80024f4:	ea07 080c 	and.w	r8, r7, ip
 80024f8:	688f      	ldr	r7, [r1, #8]
 80024fa:	fa07 f70e 	lsl.w	r7, r7, lr
 80024fe:	ea47 0708 	orr.w	r7, r7, r8
 8002502:	2d02      	cmp	r5, #2
 8002504:	60c7      	str	r7, [r0, #12]
 8002506:	d119      	bne.n	800253c <HAL_GPIO_Init+0xb0>
 8002508:	ea4f 08d3 	mov.w	r8, r3, lsr #3
 800250c:	eb00 0888 	add.w	r8, r0, r8, lsl #2
 8002510:	f003 0a07 	and.w	sl, r3, #7
 8002514:	f8d8 7020 	ldr.w	r7, [r8, #32]
 8002518:	ea4f 0a8a 	mov.w	sl, sl, lsl #2
 800251c:	f04f 0b0f 	mov.w	fp, #15
 8002520:	fa0b fb0a 	lsl.w	fp, fp, sl
 8002524:	ea27 0b0b 	bic.w	fp, r7, fp
 8002528:	690f      	ldr	r7, [r1, #16]
 800252a:	fa07 f70a 	lsl.w	r7, r7, sl
 800252e:	ea47 070b 	orr.w	r7, r7, fp
 8002532:	f8c8 7020 	str.w	r7, [r8, #32]
 8002536:	e001      	b.n	800253c <HAL_GPIO_Init+0xb0>
 8002538:	2d03      	cmp	r5, #3
 800253a:	d1da      	bne.n	80024f2 <HAL_GPIO_Init+0x66>
 800253c:	6807      	ldr	r7, [r0, #0]
 800253e:	fa05 f50e 	lsl.w	r5, r5, lr
 8002542:	ea07 070c 	and.w	r7, r7, ip
 8002546:	433d      	orrs	r5, r7
 8002548:	f416 3f40 	tst.w	r6, #196608	@ 0x30000
 800254c:	6005      	str	r5, [r0, #0]
 800254e:	d049      	beq.n	80025e4 <HAL_GPIO_Init+0x158>
 8002550:	f8d9 5060 	ldr.w	r5, [r9, #96]	@ 0x60
 8002554:	f045 0501 	orr.w	r5, r5, #1
 8002558:	f8c9 5060 	str.w	r5, [r9, #96]	@ 0x60
 800255c:	f8d9 5060 	ldr.w	r5, [r9, #96]	@ 0x60
 8002560:	f023 0703 	bic.w	r7, r3, #3
 8002564:	f107 4780 	add.w	r7, r7, #1073741824	@ 0x40000000
 8002568:	f005 0501 	and.w	r5, r5, #1
 800256c:	f507 3780 	add.w	r7, r7, #65536	@ 0x10000
 8002570:	9501      	str	r5, [sp, #4]
 8002572:	f003 0c03 	and.w	ip, r3, #3
 8002576:	9d01      	ldr	r5, [sp, #4]
 8002578:	68bd      	ldr	r5, [r7, #8]
 800257a:	ea4f 0c8c 	mov.w	ip, ip, lsl #2
 800257e:	f04f 0e0f 	mov.w	lr, #15
 8002582:	fa0e fe0c 	lsl.w	lr, lr, ip
 8002586:	f1b0 4f90 	cmp.w	r0, #1207959552	@ 0x48000000
 800258a:	ea25 0e0e 	bic.w	lr, r5, lr
 800258e:	d02b      	beq.n	80025e8 <HAL_GPIO_Init+0x15c>
 8002590:	4d18      	ldr	r5, [pc, #96]	@ (80025f4 <HAL_GPIO_Init+0x168>)
 8002592:	42a8      	cmp	r0, r5
 8002594:	d02a      	beq.n	80025ec <HAL_GPIO_Init+0x160>
 8002596:	f505 6580 	add.w	r5, r5, #1024	@ 0x400
 800259a:	42a8      	cmp	r0, r5
 800259c:	bf14      	ite	ne
 800259e:	2507      	movne	r5, #7
 80025a0:	2502      	moveq	r5, #2
 80025a2:	fa05 f50c 	lsl.w	r5, r5, ip
 80025a6:	ea45 050e 	orr.w	r5, r5, lr
 80025aa:	60bd      	str	r5, [r7, #8]
 80025ac:	68a5      	ldr	r5, [r4, #8]
 80025ae:	43d7      	mvns	r7, r2
 80025b0:	f416 1f80 	tst.w	r6, #1048576	@ 0x100000
 80025b4:	bf0c      	ite	eq
 80025b6:	403d      	andeq	r5, r7
 80025b8:	4315      	orrne	r5, r2
 80025ba:	60a5      	str	r5, [r4, #8]
 80025bc:	68e5      	ldr	r5, [r4, #12]
 80025be:	f416 1f00 	tst.w	r6, #2097152	@ 0x200000
 80025c2:	bf0c      	ite	eq
 80025c4:	403d      	andeq	r5, r7
 80025c6:	4315      	orrne	r5, r2
 80025c8:	60e5      	str	r5, [r4, #12]
 80025ca:	6865      	ldr	r5, [r4, #4]
 80025cc:	f416 3f00 	tst.w	r6, #131072	@ 0x20000
 80025d0:	bf0c      	ite	eq
 80025d2:	403d      	andeq	r5, r7
 80025d4:	4315      	orrne	r5, r2
 80025d6:	6065      	str	r5, [r4, #4]
 80025d8:	6825      	ldr	r5, [r4, #0]
 80025da:	03f6      	lsls	r6, r6, #15
 80025dc:	bf54      	ite	pl
 80025de:	403d      	andpl	r5, r7
 80025e0:	4315      	orrmi	r5, r2
 80025e2:	6025      	str	r5, [r4, #0]
 80025e4:	3301      	adds	r3, #1
 80025e6:	e757      	b.n	8002498 <HAL_GPIO_Init+0xc>
 80025e8:	2500      	movs	r5, #0
 80025ea:	e7da      	b.n	80025a2 <HAL_GPIO_Init+0x116>
 80025ec:	2501      	movs	r5, #1
 80025ee:	e7d8      	b.n	80025a2 <HAL_GPIO_Init+0x116>
 80025f0:	40010400 	.word	0x40010400
 80025f4:	48000400 	.word	0x48000400
 80025f8:	40021000 	.word	0x40021000

080025fc <HAL_GPIO_ReadPin>:
 80025fc:	6903      	ldr	r3, [r0, #16]
 80025fe:	4219      	tst	r1, r3
 8002600:	bf14      	ite	ne
 8002602:	2001      	movne	r0, #1
 8002604:	2000      	moveq	r0, #0
 8002606:	4770      	bx	lr

08002608 <HAL_GPIO_WritePin>:
 8002608:	b10a      	cbz	r2, 800260e <HAL_GPIO_WritePin+0x6>
 800260a:	6181      	str	r1, [r0, #24]
 800260c:	4770      	bx	lr
 800260e:	6281      	str	r1, [r0, #40]	@ 0x28
 8002610:	4770      	bx	lr
	...

08002614 <HAL_PWR_EnableBkUpAccess>:
 8002614:	4a02      	ldr	r2, [pc, #8]	@ (8002620 <HAL_PWR_EnableBkUpAccess+0xc>)
 8002616:	6813      	ldr	r3, [r2, #0]
 8002618:	f443 7380 	orr.w	r3, r3, #256	@ 0x100
 800261c:	6013      	str	r3, [r2, #0]
 800261e:	4770      	bx	lr
 8002620:	40007000 	.word	0x40007000

08002624 <HAL_PWREx_GetVoltageRange>:
 8002624:	4b02      	ldr	r3, [pc, #8]	@ (8002630 <HAL_PWREx_GetVoltageRange+0xc>)
 8002626:	6818      	ldr	r0, [r3, #0]
 8002628:	f400 60c0 	and.w	r0, r0, #1536	@ 0x600
 800262c:	4770      	bx	lr
 800262e:	bf00      	nop
 8002630:	40007000 	.word	0x40007000

08002634 <HAL_PWREx_ControlVoltageScaling>:
 8002634:	4a17      	ldr	r2, [pc, #92]	@ (8002694 <HAL_PWREx_ControlVoltageScaling+0x60>)
 8002636:	6813      	ldr	r3, [r2, #0]
 8002638:	f5b0 7f00 	cmp.w	r0, #512	@ 0x200
 800263c:	f403 63c0 	and.w	r3, r3, #1536	@ 0x600
 8002640:	d11b      	bne.n	800267a <HAL_PWREx_ControlVoltageScaling+0x46>
 8002642:	f5b3 7f00 	cmp.w	r3, #512	@ 0x200
 8002646:	d01b      	beq.n	8002680 <HAL_PWREx_ControlVoltageScaling+0x4c>
 8002648:	6813      	ldr	r3, [r2, #0]
 800264a:	f423 63c0 	bic.w	r3, r3, #1536	@ 0x600
 800264e:	f443 7300 	orr.w	r3, r3, #512	@ 0x200
 8002652:	6013      	str	r3, [r2, #0]
 8002654:	4b10      	ldr	r3, [pc, #64]	@ (8002698 <HAL_PWREx_ControlVoltageScaling+0x64>)
 8002656:	681b      	ldr	r3, [r3, #0]
 8002658:	2132      	movs	r1, #50	@ 0x32
 800265a:	434b      	muls	r3, r1
 800265c:	490f      	ldr	r1, [pc, #60]	@ (800269c <HAL_PWREx_ControlVoltageScaling+0x68>)
 800265e:	fbb3 f3f1 	udiv	r3, r3, r1
 8002662:	3301      	adds	r3, #1
 8002664:	6951      	ldr	r1, [r2, #20]
 8002666:	0549      	lsls	r1, r1, #21
 8002668:	d500      	bpl.n	800266c <HAL_PWREx_ControlVoltageScaling+0x38>
 800266a:	b923      	cbnz	r3, 8002676 <HAL_PWREx_ControlVoltageScaling+0x42>
 800266c:	6953      	ldr	r3, [r2, #20]
 800266e:	055b      	lsls	r3, r3, #21
 8002670:	d506      	bpl.n	8002680 <HAL_PWREx_ControlVoltageScaling+0x4c>
 8002672:	2003      	movs	r0, #3
 8002674:	4770      	bx	lr
 8002676:	3b01      	subs	r3, #1
 8002678:	e7f4      	b.n	8002664 <HAL_PWREx_ControlVoltageScaling+0x30>
 800267a:	f5b3 6f80 	cmp.w	r3, #1024	@ 0x400
 800267e:	d101      	bne.n	8002684 <HAL_PWREx_ControlVoltageScaling+0x50>
 8002680:	2000      	movs	r0, #0
 8002682:	4770      	bx	lr
 8002684:	6813      	ldr	r3, [r2, #0]
 8002686:	f423 63c0 	bic.w	r3, r3, #1536	@ 0x600
 800268a:	f443 6380 	orr.w	r3, r3, #1024	@ 0x400
 800268e:	6013      	str	r3, [r2, #0]
 8002690:	e7f6      	b.n	8002680 <HAL_PWREx_ControlVoltageScaling+0x4c>
 8002692:	bf00      	nop
 8002694:	40007000 	.word	0x40007000
 8002698:	2000003c 	.word	0x2000003c
 800269c:	000f4240 	.word	0x000f4240

080026a0 <RCC_SetFlashLatencyFromMSIRange>:
 80026a0:	b537      	push	{r0, r1, r2, r4, r5, lr}
 80026a2:	4d1e      	ldr	r5, [pc, #120]	@ (800271c <RCC_SetFlashLatencyFromMSIRange+0x7c>)
 80026a4:	6dab      	ldr	r3, [r5, #88]	@ 0x58
 80026a6:	00da      	lsls	r2, r3, #3
 80026a8:	4604      	mov	r4, r0
 80026aa:	d518      	bpl.n	80026de <RCC_SetFlashLatencyFromMSIRange+0x3e>
 80026ac:	f7ff ffba 	bl	8002624 <HAL_PWREx_GetVoltageRange>
 80026b0:	f5b0 7f00 	cmp.w	r0, #512	@ 0x200
 80026b4:	d123      	bne.n	80026fe <RCC_SetFlashLatencyFromMSIRange+0x5e>
 80026b6:	2c80      	cmp	r4, #128	@ 0x80
 80026b8:	d929      	bls.n	800270e <RCC_SetFlashLatencyFromMSIRange+0x6e>
 80026ba:	2ca0      	cmp	r4, #160	@ 0xa0
 80026bc:	bf8c      	ite	hi
 80026be:	2402      	movhi	r4, #2
 80026c0:	2401      	movls	r4, #1
 80026c2:	4917      	ldr	r1, [pc, #92]	@ (8002720 <RCC_SetFlashLatencyFromMSIRange+0x80>)
 80026c4:	680a      	ldr	r2, [r1, #0]
 80026c6:	f022 0207 	bic.w	r2, r2, #7
 80026ca:	4322      	orrs	r2, r4
 80026cc:	600a      	str	r2, [r1, #0]
 80026ce:	6808      	ldr	r0, [r1, #0]
 80026d0:	f000 0007 	and.w	r0, r0, #7
 80026d4:	1b00      	subs	r0, r0, r4
 80026d6:	bf18      	it	ne
 80026d8:	2001      	movne	r0, #1
 80026da:	b003      	add	sp, #12
 80026dc:	bd30      	pop	{r4, r5, pc}
 80026de:	6dab      	ldr	r3, [r5, #88]	@ 0x58
 80026e0:	f043 5380 	orr.w	r3, r3, #268435456	@ 0x10000000
 80026e4:	65ab      	str	r3, [r5, #88]	@ 0x58
 80026e6:	6dab      	ldr	r3, [r5, #88]	@ 0x58
 80026e8:	f003 5380 	and.w	r3, r3, #268435456	@ 0x10000000
 80026ec:	9301      	str	r3, [sp, #4]
 80026ee:	9b01      	ldr	r3, [sp, #4]
 80026f0:	f7ff ff98 	bl	8002624 <HAL_PWREx_GetVoltageRange>
 80026f4:	6dab      	ldr	r3, [r5, #88]	@ 0x58
 80026f6:	f023 5380 	bic.w	r3, r3, #268435456	@ 0x10000000
 80026fa:	65ab      	str	r3, [r5, #88]	@ 0x58
 80026fc:	e7d8      	b.n	80026b0 <RCC_SetFlashLatencyFromMSIRange+0x10>
 80026fe:	2c80      	cmp	r4, #128	@ 0x80
 8002700:	d807      	bhi.n	8002712 <RCC_SetFlashLatencyFromMSIRange+0x72>
 8002702:	d008      	beq.n	8002716 <RCC_SetFlashLatencyFromMSIRange+0x76>
 8002704:	f1a4 0370 	sub.w	r3, r4, #112	@ 0x70
 8002708:	425c      	negs	r4, r3
 800270a:	415c      	adcs	r4, r3
 800270c:	e7d9      	b.n	80026c2 <RCC_SetFlashLatencyFromMSIRange+0x22>
 800270e:	2400      	movs	r4, #0
 8002710:	e7d7      	b.n	80026c2 <RCC_SetFlashLatencyFromMSIRange+0x22>
 8002712:	2403      	movs	r4, #3
 8002714:	e7d5      	b.n	80026c2 <RCC_SetFlashLatencyFromMSIRange+0x22>
 8002716:	2402      	movs	r4, #2
 8002718:	e7d3      	b.n	80026c2 <RCC_SetFlashLatencyFromMSIRange+0x22>
 800271a:	bf00      	nop
 800271c:	40021000 	.word	0x40021000
 8002720:	40022000 	.word	0x40022000

08002724 <HAL_RCC_GetSysClockFreq>:
 8002724:	4b20      	ldr	r3, [pc, #128]	@ (80027a8 <HAL_RCC_GetSysClockFreq+0x84>)
 8002726:	689a      	ldr	r2, [r3, #8]
 8002728:	68d9      	ldr	r1, [r3, #12]
 800272a:	f012 020c 	ands.w	r2, r2, #12
 800272e:	d005      	beq.n	800273c <HAL_RCC_GetSysClockFreq+0x18>
 8002730:	2a0c      	cmp	r2, #12
 8002732:	d12c      	bne.n	800278e <HAL_RCC_GetSysClockFreq+0x6a>
 8002734:	f001 0103 	and.w	r1, r1, #3
 8002738:	2901      	cmp	r1, #1
 800273a:	d12f      	bne.n	800279c <HAL_RCC_GetSysClockFreq+0x78>
 800273c:	6819      	ldr	r1, [r3, #0]
 800273e:	481b      	ldr	r0, [pc, #108]	@ (80027ac <HAL_RCC_GetSysClockFreq+0x88>)
 8002740:	0709      	lsls	r1, r1, #28
 8002742:	bf55      	itete	pl
 8002744:	f8d3 1094 	ldrpl.w	r1, [r3, #148]	@ 0x94
 8002748:	6819      	ldrmi	r1, [r3, #0]
 800274a:	f3c1 2103 	ubfxpl	r1, r1, #8, #4
 800274e:	f3c1 1103 	ubfxmi	r1, r1, #4, #4
 8002752:	f850 0021 	ldr.w	r0, [r0, r1, lsl #2]
 8002756:	b332      	cbz	r2, 80027a6 <HAL_RCC_GetSysClockFreq+0x82>
 8002758:	68da      	ldr	r2, [r3, #12]
 800275a:	f002 0203 	and.w	r2, r2, #3
 800275e:	2a02      	cmp	r2, #2
 8002760:	d01e      	beq.n	80027a0 <HAL_RCC_GetSysClockFreq+0x7c>
 8002762:	4913      	ldr	r1, [pc, #76]	@ (80027b0 <HAL_RCC_GetSysClockFreq+0x8c>)
 8002764:	2a03      	cmp	r2, #3
 8002766:	bf08      	it	eq
 8002768:	4608      	moveq	r0, r1
 800276a:	68d9      	ldr	r1, [r3, #12]
 800276c:	68da      	ldr	r2, [r3, #12]
 800276e:	f3c2 2206 	ubfx	r2, r2, #8, #7
 8002772:	4342      	muls	r2, r0
 8002774:	68d8      	ldr	r0, [r3, #12]
 8002776:	f3c0 6041 	ubfx	r0, r0, #25, #2
 800277a:	f3c1 1102 	ubfx	r1, r1, #4, #3
 800277e:	3001      	adds	r0, #1
 8002780:	3101      	adds	r1, #1
 8002782:	0040      	lsls	r0, r0, #1
 8002784:	fbb2 f2f1 	udiv	r2, r2, r1
 8002788:	fbb2 f0f0 	udiv	r0, r2, r0
 800278c:	4770      	bx	lr
 800278e:	2a04      	cmp	r2, #4
 8002790:	d008      	beq.n	80027a4 <HAL_RCC_GetSysClockFreq+0x80>
 8002792:	2a08      	cmp	r2, #8
 8002794:	4806      	ldr	r0, [pc, #24]	@ (80027b0 <HAL_RCC_GetSysClockFreq+0x8c>)
 8002796:	bf18      	it	ne
 8002798:	2000      	movne	r0, #0
 800279a:	4770      	bx	lr
 800279c:	2000      	movs	r0, #0
 800279e:	e7db      	b.n	8002758 <HAL_RCC_GetSysClockFreq+0x34>
 80027a0:	4804      	ldr	r0, [pc, #16]	@ (80027b4 <HAL_RCC_GetSysClockFreq+0x90>)
 80027a2:	e7e2      	b.n	800276a <HAL_RCC_GetSysClockFreq+0x46>
 80027a4:	4803      	ldr	r0, [pc, #12]	@ (80027b4 <HAL_RCC_GetSysClockFreq+0x90>)
 80027a6:	4770      	bx	lr
 80027a8:	40021000 	.word	0x40021000
 80027ac:	0800c060 	.word	0x0800c060
 80027b0:	007a1200 	.word	0x007a1200
 80027b4:	00f42400 	.word	0x00f42400

080027b8 <HAL_RCC_OscConfig>:
 80027b8:	e92d 43f7 	stmdb	sp!, {r0, r1, r2, r4, r5, r6, r7, r8, r9, lr}
 80027bc:	4605      	mov	r5, r0
 80027be:	2800      	cmp	r0, #0
 80027c0:	d060      	beq.n	8002884 <HAL_RCC_OscConfig+0xcc>
 80027c2:	4c95      	ldr	r4, [pc, #596]	@ (8002a18 <HAL_RCC_OscConfig+0x260>)
 80027c4:	6803      	ldr	r3, [r0, #0]
 80027c6:	68a6      	ldr	r6, [r4, #8]
 80027c8:	68e7      	ldr	r7, [r4, #12]
 80027ca:	06db      	lsls	r3, r3, #27
 80027cc:	f006 060c 	and.w	r6, r6, #12
 80027d0:	f007 0703 	and.w	r7, r7, #3
 80027d4:	d576      	bpl.n	80028c4 <HAL_RCC_OscConfig+0x10c>
 80027d6:	b11e      	cbz	r6, 80027e0 <HAL_RCC_OscConfig+0x28>
 80027d8:	2e0c      	cmp	r6, #12
 80027da:	d155      	bne.n	8002888 <HAL_RCC_OscConfig+0xd0>
 80027dc:	2f01      	cmp	r7, #1
 80027de:	d153      	bne.n	8002888 <HAL_RCC_OscConfig+0xd0>
 80027e0:	6823      	ldr	r3, [r4, #0]
 80027e2:	0798      	lsls	r0, r3, #30
 80027e4:	d502      	bpl.n	80027ec <HAL_RCC_OscConfig+0x34>
 80027e6:	69ab      	ldr	r3, [r5, #24]
 80027e8:	2b00      	cmp	r3, #0
 80027ea:	d04b      	beq.n	8002884 <HAL_RCC_OscConfig+0xcc>
 80027ec:	6823      	ldr	r3, [r4, #0]
 80027ee:	6a28      	ldr	r0, [r5, #32]
 80027f0:	0719      	lsls	r1, r3, #28
 80027f2:	bf56      	itet	pl
 80027f4:	f8d4 3094 	ldrpl.w	r3, [r4, #148]	@ 0x94
 80027f8:	6823      	ldrmi	r3, [r4, #0]
 80027fa:	091b      	lsrpl	r3, r3, #4
 80027fc:	f003 03f0 	and.w	r3, r3, #240	@ 0xf0
 8002800:	4298      	cmp	r0, r3
 8002802:	d929      	bls.n	8002858 <HAL_RCC_OscConfig+0xa0>
 8002804:	f7ff ff4c 	bl	80026a0 <RCC_SetFlashLatencyFromMSIRange>
 8002808:	2800      	cmp	r0, #0
 800280a:	d13b      	bne.n	8002884 <HAL_RCC_OscConfig+0xcc>
 800280c:	6823      	ldr	r3, [r4, #0]
 800280e:	f043 0308 	orr.w	r3, r3, #8
 8002812:	6023      	str	r3, [r4, #0]
 8002814:	6823      	ldr	r3, [r4, #0]
 8002816:	6a2a      	ldr	r2, [r5, #32]
 8002818:	f023 03f0 	bic.w	r3, r3, #240	@ 0xf0
 800281c:	4313      	orrs	r3, r2
 800281e:	6023      	str	r3, [r4, #0]
 8002820:	6863      	ldr	r3, [r4, #4]
 8002822:	69ea      	ldr	r2, [r5, #28]
 8002824:	f423 437f 	bic.w	r3, r3, #65280	@ 0xff00
 8002828:	ea43 2302 	orr.w	r3, r3, r2, lsl #8
 800282c:	6063      	str	r3, [r4, #4]
 800282e:	f7ff ff79 	bl	8002724 <HAL_RCC_GetSysClockFreq>
 8002832:	68a3      	ldr	r3, [r4, #8]
 8002834:	4a79      	ldr	r2, [pc, #484]	@ (8002a1c <HAL_RCC_OscConfig+0x264>)
 8002836:	f3c3 1303 	ubfx	r3, r3, #4, #4
 800283a:	5cd3      	ldrb	r3, [r2, r3]
 800283c:	f003 031f 	and.w	r3, r3, #31
 8002840:	40d8      	lsrs	r0, r3
 8002842:	4b77      	ldr	r3, [pc, #476]	@ (8002a20 <HAL_RCC_OscConfig+0x268>)
 8002844:	6018      	str	r0, [r3, #0]
 8002846:	4b77      	ldr	r3, [pc, #476]	@ (8002a24 <HAL_RCC_OscConfig+0x26c>)
 8002848:	6818      	ldr	r0, [r3, #0]
 800284a:	f7ff fc2f 	bl	80020ac <HAL_InitTick>
 800284e:	2800      	cmp	r0, #0
 8002850:	d038      	beq.n	80028c4 <HAL_RCC_OscConfig+0x10c>
 8002852:	b003      	add	sp, #12
 8002854:	e8bd 83f0 	ldmia.w	sp!, {r4, r5, r6, r7, r8, r9, pc}
 8002858:	6823      	ldr	r3, [r4, #0]
 800285a:	f043 0308 	orr.w	r3, r3, #8
 800285e:	6023      	str	r3, [r4, #0]
 8002860:	6823      	ldr	r3, [r4, #0]
 8002862:	f023 03f0 	bic.w	r3, r3, #240	@ 0xf0
 8002866:	4303      	orrs	r3, r0
 8002868:	6023      	str	r3, [r4, #0]
 800286a:	6863      	ldr	r3, [r4, #4]
 800286c:	69ea      	ldr	r2, [r5, #28]
 800286e:	f423 437f 	bic.w	r3, r3, #65280	@ 0xff00
 8002872:	ea43 2302 	orr.w	r3, r3, r2, lsl #8
 8002876:	6063      	str	r3, [r4, #4]
 8002878:	2e00      	cmp	r6, #0
 800287a:	d1d8      	bne.n	800282e <HAL_RCC_OscConfig+0x76>
 800287c:	f7ff ff10 	bl	80026a0 <RCC_SetFlashLatencyFromMSIRange>
 8002880:	2800      	cmp	r0, #0
 8002882:	d0d4      	beq.n	800282e <HAL_RCC_OscConfig+0x76>
 8002884:	2001      	movs	r0, #1
 8002886:	e7e4      	b.n	8002852 <HAL_RCC_OscConfig+0x9a>
 8002888:	69ab      	ldr	r3, [r5, #24]
 800288a:	2b00      	cmp	r3, #0
 800288c:	d03a      	beq.n	8002904 <HAL_RCC_OscConfig+0x14c>
 800288e:	6823      	ldr	r3, [r4, #0]
 8002890:	f043 0301 	orr.w	r3, r3, #1
 8002894:	6023      	str	r3, [r4, #0]
 8002896:	f7ff fc4b 	bl	8002130 <HAL_GetTick>
 800289a:	4680      	mov	r8, r0
 800289c:	6823      	ldr	r3, [r4, #0]
 800289e:	079a      	lsls	r2, r3, #30
 80028a0:	d528      	bpl.n	80028f4 <HAL_RCC_OscConfig+0x13c>
 80028a2:	6823      	ldr	r3, [r4, #0]
 80028a4:	f043 0308 	orr.w	r3, r3, #8
 80028a8:	6023      	str	r3, [r4, #0]
 80028aa:	6823      	ldr	r3, [r4, #0]
 80028ac:	6a2a      	ldr	r2, [r5, #32]
 80028ae:	f023 03f0 	bic.w	r3, r3, #240	@ 0xf0
 80028b2:	4313      	orrs	r3, r2
 80028b4:	6023      	str	r3, [r4, #0]
 80028b6:	6863      	ldr	r3, [r4, #4]
 80028b8:	69ea      	ldr	r2, [r5, #28]
 80028ba:	f423 437f 	bic.w	r3, r3, #65280	@ 0xff00
 80028be:	ea43 2302 	orr.w	r3, r3, r2, lsl #8
 80028c2:	6063      	str	r3, [r4, #4]
 80028c4:	682b      	ldr	r3, [r5, #0]
 80028c6:	07d8      	lsls	r0, r3, #31
 80028c8:	d42d      	bmi.n	8002926 <HAL_RCC_OscConfig+0x16e>
 80028ca:	682b      	ldr	r3, [r5, #0]
 80028cc:	0799      	lsls	r1, r3, #30
 80028ce:	d46b      	bmi.n	80029a8 <HAL_RCC_OscConfig+0x1f0>
 80028d0:	682b      	ldr	r3, [r5, #0]
 80028d2:	0718      	lsls	r0, r3, #28
 80028d4:	f100 80a8 	bmi.w	8002a28 <HAL_RCC_OscConfig+0x270>
 80028d8:	682b      	ldr	r3, [r5, #0]
 80028da:	0759      	lsls	r1, r3, #29
 80028dc:	f100 80ce 	bmi.w	8002a7c <HAL_RCC_OscConfig+0x2c4>
 80028e0:	682b      	ldr	r3, [r5, #0]
 80028e2:	0698      	lsls	r0, r3, #26
 80028e4:	f100 8137 	bmi.w	8002b56 <HAL_RCC_OscConfig+0x39e>
 80028e8:	6aab      	ldr	r3, [r5, #40]	@ 0x28
 80028ea:	2b00      	cmp	r3, #0
 80028ec:	f040 815d 	bne.w	8002baa <HAL_RCC_OscConfig+0x3f2>
 80028f0:	2000      	movs	r0, #0
 80028f2:	e7ae      	b.n	8002852 <HAL_RCC_OscConfig+0x9a>
 80028f4:	f7ff fc1c 	bl	8002130 <HAL_GetTick>
 80028f8:	eba0 0008 	sub.w	r0, r0, r8
 80028fc:	2802      	cmp	r0, #2
 80028fe:	d9cd      	bls.n	800289c <HAL_RCC_OscConfig+0xe4>
 8002900:	2003      	movs	r0, #3
 8002902:	e7a6      	b.n	8002852 <HAL_RCC_OscConfig+0x9a>
 8002904:	6823      	ldr	r3, [r4, #0]
 8002906:	f023 0301 	bic.w	r3, r3, #1
 800290a:	6023      	str	r3, [r4, #0]
 800290c:	f7ff fc10 	bl	8002130 <HAL_GetTick>
 8002910:	4680      	mov	r8, r0
 8002912:	6823      	ldr	r3, [r4, #0]
 8002914:	079b      	lsls	r3, r3, #30
 8002916:	d5d5      	bpl.n	80028c4 <HAL_RCC_OscConfig+0x10c>
 8002918:	f7ff fc0a 	bl	8002130 <HAL_GetTick>
 800291c:	eba0 0008 	sub.w	r0, r0, r8
 8002920:	2802      	cmp	r0, #2
 8002922:	d9f6      	bls.n	8002912 <HAL_RCC_OscConfig+0x15a>
 8002924:	e7ec      	b.n	8002900 <HAL_RCC_OscConfig+0x148>
 8002926:	2e08      	cmp	r6, #8
 8002928:	d003      	beq.n	8002932 <HAL_RCC_OscConfig+0x17a>
 800292a:	2e0c      	cmp	r6, #12
 800292c:	d108      	bne.n	8002940 <HAL_RCC_OscConfig+0x188>
 800292e:	2f03      	cmp	r7, #3
 8002930:	d106      	bne.n	8002940 <HAL_RCC_OscConfig+0x188>
 8002932:	6823      	ldr	r3, [r4, #0]
 8002934:	039a      	lsls	r2, r3, #14
 8002936:	d5c8      	bpl.n	80028ca <HAL_RCC_OscConfig+0x112>
 8002938:	686b      	ldr	r3, [r5, #4]
 800293a:	2b00      	cmp	r3, #0
 800293c:	d1c5      	bne.n	80028ca <HAL_RCC_OscConfig+0x112>
 800293e:	e7a1      	b.n	8002884 <HAL_RCC_OscConfig+0xcc>
 8002940:	686b      	ldr	r3, [r5, #4]
 8002942:	f5b3 3f80 	cmp.w	r3, #65536	@ 0x10000
 8002946:	d110      	bne.n	800296a <HAL_RCC_OscConfig+0x1b2>
 8002948:	6823      	ldr	r3, [r4, #0]
 800294a:	f443 3380 	orr.w	r3, r3, #65536	@ 0x10000
 800294e:	6023      	str	r3, [r4, #0]
 8002950:	f7ff fbee 	bl	8002130 <HAL_GetTick>
 8002954:	4680      	mov	r8, r0
 8002956:	6823      	ldr	r3, [r4, #0]
 8002958:	039b      	lsls	r3, r3, #14
 800295a:	d4b6      	bmi.n	80028ca <HAL_RCC_OscConfig+0x112>
 800295c:	f7ff fbe8 	bl	8002130 <HAL_GetTick>
 8002960:	eba0 0008 	sub.w	r0, r0, r8
 8002964:	2864      	cmp	r0, #100	@ 0x64
 8002966:	d9f6      	bls.n	8002956 <HAL_RCC_OscConfig+0x19e>
 8002968:	e7ca      	b.n	8002900 <HAL_RCC_OscConfig+0x148>
 800296a:	f5b3 2fa0 	cmp.w	r3, #327680	@ 0x50000
 800296e:	d104      	bne.n	800297a <HAL_RCC_OscConfig+0x1c2>
 8002970:	6823      	ldr	r3, [r4, #0]
 8002972:	f443 2380 	orr.w	r3, r3, #262144	@ 0x40000
 8002976:	6023      	str	r3, [r4, #0]
 8002978:	e7e6      	b.n	8002948 <HAL_RCC_OscConfig+0x190>
 800297a:	6822      	ldr	r2, [r4, #0]
 800297c:	f422 3280 	bic.w	r2, r2, #65536	@ 0x10000
 8002980:	6022      	str	r2, [r4, #0]
 8002982:	6822      	ldr	r2, [r4, #0]
 8002984:	f422 2280 	bic.w	r2, r2, #262144	@ 0x40000
 8002988:	6022      	str	r2, [r4, #0]
 800298a:	2b00      	cmp	r3, #0
 800298c:	d1e0      	bne.n	8002950 <HAL_RCC_OscConfig+0x198>
 800298e:	f7ff fbcf 	bl	8002130 <HAL_GetTick>
 8002992:	4680      	mov	r8, r0
 8002994:	6823      	ldr	r3, [r4, #0]
 8002996:	0398      	lsls	r0, r3, #14
 8002998:	d597      	bpl.n	80028ca <HAL_RCC_OscConfig+0x112>
 800299a:	f7ff fbc9 	bl	8002130 <HAL_GetTick>
 800299e:	eba0 0008 	sub.w	r0, r0, r8
 80029a2:	2864      	cmp	r0, #100	@ 0x64
 80029a4:	d9f6      	bls.n	8002994 <HAL_RCC_OscConfig+0x1dc>
 80029a6:	e7ab      	b.n	8002900 <HAL_RCC_OscConfig+0x148>
 80029a8:	2e04      	cmp	r6, #4
 80029aa:	d003      	beq.n	80029b4 <HAL_RCC_OscConfig+0x1fc>
 80029ac:	2e0c      	cmp	r6, #12
 80029ae:	d110      	bne.n	80029d2 <HAL_RCC_OscConfig+0x21a>
 80029b0:	2f02      	cmp	r7, #2
 80029b2:	d10e      	bne.n	80029d2 <HAL_RCC_OscConfig+0x21a>
 80029b4:	6823      	ldr	r3, [r4, #0]
 80029b6:	0559      	lsls	r1, r3, #21
 80029b8:	d503      	bpl.n	80029c2 <HAL_RCC_OscConfig+0x20a>
 80029ba:	68eb      	ldr	r3, [r5, #12]
 80029bc:	2b00      	cmp	r3, #0
 80029be:	f43f af61 	beq.w	8002884 <HAL_RCC_OscConfig+0xcc>
 80029c2:	6863      	ldr	r3, [r4, #4]
 80029c4:	692a      	ldr	r2, [r5, #16]
 80029c6:	f023 53f8 	bic.w	r3, r3, #520093696	@ 0x1f000000
 80029ca:	ea43 6302 	orr.w	r3, r3, r2, lsl #24
 80029ce:	6063      	str	r3, [r4, #4]
 80029d0:	e77e      	b.n	80028d0 <HAL_RCC_OscConfig+0x118>
 80029d2:	68eb      	ldr	r3, [r5, #12]
 80029d4:	b17b      	cbz	r3, 80029f6 <HAL_RCC_OscConfig+0x23e>
 80029d6:	6823      	ldr	r3, [r4, #0]
 80029d8:	f443 7380 	orr.w	r3, r3, #256	@ 0x100
 80029dc:	6023      	str	r3, [r4, #0]
 80029de:	f7ff fba7 	bl	8002130 <HAL_GetTick>
 80029e2:	4607      	mov	r7, r0
 80029e4:	6823      	ldr	r3, [r4, #0]
 80029e6:	055a      	lsls	r2, r3, #21
 80029e8:	d4eb      	bmi.n	80029c2 <HAL_RCC_OscConfig+0x20a>
 80029ea:	f7ff fba1 	bl	8002130 <HAL_GetTick>
 80029ee:	1bc0      	subs	r0, r0, r7
 80029f0:	2802      	cmp	r0, #2
 80029f2:	d9f7      	bls.n	80029e4 <HAL_RCC_OscConfig+0x22c>
 80029f4:	e784      	b.n	8002900 <HAL_RCC_OscConfig+0x148>
 80029f6:	6823      	ldr	r3, [r4, #0]
 80029f8:	f423 7380 	bic.w	r3, r3, #256	@ 0x100
 80029fc:	6023      	str	r3, [r4, #0]
 80029fe:	f7ff fb97 	bl	8002130 <HAL_GetTick>
 8002a02:	4607      	mov	r7, r0
 8002a04:	6823      	ldr	r3, [r4, #0]
 8002a06:	055b      	lsls	r3, r3, #21
 8002a08:	f57f af62 	bpl.w	80028d0 <HAL_RCC_OscConfig+0x118>
 8002a0c:	f7ff fb90 	bl	8002130 <HAL_GetTick>
 8002a10:	1bc0      	subs	r0, r0, r7
 8002a12:	2802      	cmp	r0, #2
 8002a14:	d9f6      	bls.n	8002a04 <HAL_RCC_OscConfig+0x24c>
 8002a16:	e773      	b.n	8002900 <HAL_RCC_OscConfig+0x148>
 8002a18:	40021000 	.word	0x40021000
 8002a1c:	0800c098 	.word	0x0800c098
 8002a20:	2000003c 	.word	0x2000003c
 8002a24:	20000044 	.word	0x20000044
 8002a28:	696b      	ldr	r3, [r5, #20]
 8002a2a:	b19b      	cbz	r3, 8002a54 <HAL_RCC_OscConfig+0x29c>
 8002a2c:	f8d4 3094 	ldr.w	r3, [r4, #148]	@ 0x94
 8002a30:	f043 0301 	orr.w	r3, r3, #1
 8002a34:	f8c4 3094 	str.w	r3, [r4, #148]	@ 0x94
 8002a38:	f7ff fb7a 	bl	8002130 <HAL_GetTick>
 8002a3c:	4607      	mov	r7, r0
 8002a3e:	f8d4 3094 	ldr.w	r3, [r4, #148]	@ 0x94
 8002a42:	079a      	lsls	r2, r3, #30
 8002a44:	f53f af48 	bmi.w	80028d8 <HAL_RCC_OscConfig+0x120>
 8002a48:	f7ff fb72 	bl	8002130 <HAL_GetTick>
 8002a4c:	1bc0      	subs	r0, r0, r7
 8002a4e:	2802      	cmp	r0, #2
 8002a50:	d9f5      	bls.n	8002a3e <HAL_RCC_OscConfig+0x286>
 8002a52:	e755      	b.n	8002900 <HAL_RCC_OscConfig+0x148>
 8002a54:	f8d4 3094 	ldr.w	r3, [r4, #148]	@ 0x94
 8002a58:	f023 0301 	bic.w	r3, r3, #1
 8002a5c:	f8c4 3094 	str.w	r3, [r4, #148]	@ 0x94
 8002a60:	f7ff fb66 	bl	8002130 <HAL_GetTick>
 8002a64:	4607      	mov	r7, r0
 8002a66:	f8d4 3094 	ldr.w	r3, [r4, #148]	@ 0x94
 8002a6a:	079b      	lsls	r3, r3, #30
 8002a6c:	f57f af34 	bpl.w	80028d8 <HAL_RCC_OscConfig+0x120>
 8002a70:	f7ff fb5e 	bl	8002130 <HAL_GetTick>
 8002a74:	1bc0      	subs	r0, r0, r7
 8002a76:	2802      	cmp	r0, #2
 8002a78:	d9f5      	bls.n	8002a66 <HAL_RCC_OscConfig+0x2ae>
 8002a7a:	e741      	b.n	8002900 <HAL_RCC_OscConfig+0x148>
 8002a7c:	6da3      	ldr	r3, [r4, #88]	@ 0x58
 8002a7e:	00df      	lsls	r7, r3, #3
 8002a80:	d429      	bmi.n	8002ad6 <HAL_RCC_OscConfig+0x31e>
 8002a82:	6da3      	ldr	r3, [r4, #88]	@ 0x58
 8002a84:	f043 5380 	orr.w	r3, r3, #268435456	@ 0x10000000
 8002a88:	65a3      	str	r3, [r4, #88]	@ 0x58
 8002a8a:	6da3      	ldr	r3, [r4, #88]	@ 0x58
 8002a8c:	f003 5380 	and.w	r3, r3, #268435456	@ 0x10000000
 8002a90:	9301      	str	r3, [sp, #4]
 8002a92:	9b01      	ldr	r3, [sp, #4]
 8002a94:	f04f 0801 	mov.w	r8, #1
 8002a98:	4f95      	ldr	r7, [pc, #596]	@ (8002cf0 <HAL_RCC_OscConfig+0x538>)
 8002a9a:	683b      	ldr	r3, [r7, #0]
 8002a9c:	05d8      	lsls	r0, r3, #23
 8002a9e:	d51d      	bpl.n	8002adc <HAL_RCC_OscConfig+0x324>
 8002aa0:	68ab      	ldr	r3, [r5, #8]
 8002aa2:	2b01      	cmp	r3, #1
 8002aa4:	d12b      	bne.n	8002afe <HAL_RCC_OscConfig+0x346>
 8002aa6:	f8d4 3090 	ldr.w	r3, [r4, #144]	@ 0x90
 8002aaa:	f043 0301 	orr.w	r3, r3, #1
 8002aae:	f8c4 3090 	str.w	r3, [r4, #144]	@ 0x90
 8002ab2:	f7ff fb3d 	bl	8002130 <HAL_GetTick>
 8002ab6:	f241 3988 	movw	r9, #5000	@ 0x1388
 8002aba:	4607      	mov	r7, r0
 8002abc:	f8d4 3090 	ldr.w	r3, [r4, #144]	@ 0x90
 8002ac0:	079a      	lsls	r2, r3, #30
 8002ac2:	d542      	bpl.n	8002b4a <HAL_RCC_OscConfig+0x392>
 8002ac4:	f1b8 0f00 	cmp.w	r8, #0
 8002ac8:	f43f af0a 	beq.w	80028e0 <HAL_RCC_OscConfig+0x128>
 8002acc:	6da3      	ldr	r3, [r4, #88]	@ 0x58
 8002ace:	f023 5380 	bic.w	r3, r3, #268435456	@ 0x10000000
 8002ad2:	65a3      	str	r3, [r4, #88]	@ 0x58
 8002ad4:	e704      	b.n	80028e0 <HAL_RCC_OscConfig+0x128>
 8002ad6:	f04f 0800 	mov.w	r8, #0
 8002ada:	e7dd      	b.n	8002a98 <HAL_RCC_OscConfig+0x2e0>
 8002adc:	683b      	ldr	r3, [r7, #0]
 8002ade:	f443 7380 	orr.w	r3, r3, #256	@ 0x100
 8002ae2:	603b      	str	r3, [r7, #0]
 8002ae4:	f7ff fb24 	bl	8002130 <HAL_GetTick>
 8002ae8:	4681      	mov	r9, r0
 8002aea:	683b      	ldr	r3, [r7, #0]
 8002aec:	05d9      	lsls	r1, r3, #23
 8002aee:	d4d7      	bmi.n	8002aa0 <HAL_RCC_OscConfig+0x2e8>
 8002af0:	f7ff fb1e 	bl	8002130 <HAL_GetTick>
 8002af4:	eba0 0009 	sub.w	r0, r0, r9
 8002af8:	2802      	cmp	r0, #2
 8002afa:	d9f6      	bls.n	8002aea <HAL_RCC_OscConfig+0x332>
 8002afc:	e700      	b.n	8002900 <HAL_RCC_OscConfig+0x148>
 8002afe:	2b05      	cmp	r3, #5
 8002b00:	d106      	bne.n	8002b10 <HAL_RCC_OscConfig+0x358>
 8002b02:	f8d4 3090 	ldr.w	r3, [r4, #144]	@ 0x90
 8002b06:	f043 0304 	orr.w	r3, r3, #4
 8002b0a:	f8c4 3090 	str.w	r3, [r4, #144]	@ 0x90
 8002b0e:	e7ca      	b.n	8002aa6 <HAL_RCC_OscConfig+0x2ee>
 8002b10:	f8d4 2090 	ldr.w	r2, [r4, #144]	@ 0x90
 8002b14:	f022 0201 	bic.w	r2, r2, #1
 8002b18:	f8c4 2090 	str.w	r2, [r4, #144]	@ 0x90
 8002b1c:	f8d4 2090 	ldr.w	r2, [r4, #144]	@ 0x90
 8002b20:	f022 0204 	bic.w	r2, r2, #4
 8002b24:	f8c4 2090 	str.w	r2, [r4, #144]	@ 0x90
 8002b28:	2b00      	cmp	r3, #0
 8002b2a:	d1c2      	bne.n	8002ab2 <HAL_RCC_OscConfig+0x2fa>
 8002b2c:	f7ff fb00 	bl	8002130 <HAL_GetTick>
 8002b30:	f241 3988 	movw	r9, #5000	@ 0x1388
 8002b34:	4607      	mov	r7, r0
 8002b36:	f8d4 3090 	ldr.w	r3, [r4, #144]	@ 0x90
 8002b3a:	079b      	lsls	r3, r3, #30
 8002b3c:	d5c2      	bpl.n	8002ac4 <HAL_RCC_OscConfig+0x30c>
 8002b3e:	f7ff faf7 	bl	8002130 <HAL_GetTick>
 8002b42:	1bc0      	subs	r0, r0, r7
 8002b44:	4548      	cmp	r0, r9
 8002b46:	d9f6      	bls.n	8002b36 <HAL_RCC_OscConfig+0x37e>
 8002b48:	e6da      	b.n	8002900 <HAL_RCC_OscConfig+0x148>
 8002b4a:	f7ff faf1 	bl	8002130 <HAL_GetTick>
 8002b4e:	1bc0      	subs	r0, r0, r7
 8002b50:	4548      	cmp	r0, r9
 8002b52:	d9b3      	bls.n	8002abc <HAL_RCC_OscConfig+0x304>
 8002b54:	e6d4      	b.n	8002900 <HAL_RCC_OscConfig+0x148>
 8002b56:	6a6b      	ldr	r3, [r5, #36]	@ 0x24
 8002b58:	b19b      	cbz	r3, 8002b82 <HAL_RCC_OscConfig+0x3ca>
 8002b5a:	f8d4 3098 	ldr.w	r3, [r4, #152]	@ 0x98
 8002b5e:	f043 0301 	orr.w	r3, r3, #1
 8002b62:	f8c4 3098 	str.w	r3, [r4, #152]	@ 0x98
 8002b66:	f7ff fae3 	bl	8002130 <HAL_GetTick>
 8002b6a:	4607      	mov	r7, r0
 8002b6c:	f8d4 3098 	ldr.w	r3, [r4, #152]	@ 0x98
 8002b70:	0799      	lsls	r1, r3, #30
 8002b72:	f53f aeb9 	bmi.w	80028e8 <HAL_RCC_OscConfig+0x130>
 8002b76:	f7ff fadb 	bl	8002130 <HAL_GetTick>
 8002b7a:	1bc0      	subs	r0, r0, r7
 8002b7c:	2802      	cmp	r0, #2
 8002b7e:	d9f5      	bls.n	8002b6c <HAL_RCC_OscConfig+0x3b4>
 8002b80:	e6be      	b.n	8002900 <HAL_RCC_OscConfig+0x148>
 8002b82:	f8d4 3098 	ldr.w	r3, [r4, #152]	@ 0x98
 8002b86:	f023 0301 	bic.w	r3, r3, #1
 8002b8a:	f8c4 3098 	str.w	r3, [r4, #152]	@ 0x98
 8002b8e:	f7ff facf 	bl	8002130 <HAL_GetTick>
 8002b92:	4607      	mov	r7, r0
 8002b94:	f8d4 3098 	ldr.w	r3, [r4, #152]	@ 0x98
 8002b98:	079a      	lsls	r2, r3, #30
 8002b9a:	f57f aea5 	bpl.w	80028e8 <HAL_RCC_OscConfig+0x130>
 8002b9e:	f7ff fac7 	bl	8002130 <HAL_GetTick>
 8002ba2:	1bc0      	subs	r0, r0, r7
 8002ba4:	2802      	cmp	r0, #2
 8002ba6:	d9f5      	bls.n	8002b94 <HAL_RCC_OscConfig+0x3dc>
 8002ba8:	e6aa      	b.n	8002900 <HAL_RCC_OscConfig+0x148>
 8002baa:	2b02      	cmp	r3, #2
 8002bac:	f040 8088 	bne.w	8002cc0 <HAL_RCC_OscConfig+0x508>
 8002bb0:	68e3      	ldr	r3, [r4, #12]
 8002bb2:	6aea      	ldr	r2, [r5, #44]	@ 0x2c
 8002bb4:	f003 0103 	and.w	r1, r3, #3
 8002bb8:	4291      	cmp	r1, r2
 8002bba:	d122      	bne.n	8002c02 <HAL_RCC_OscConfig+0x44a>
 8002bbc:	6b29      	ldr	r1, [r5, #48]	@ 0x30
 8002bbe:	f003 0270 	and.w	r2, r3, #112	@ 0x70
 8002bc2:	3901      	subs	r1, #1
 8002bc4:	ebb2 1f01 	cmp.w	r2, r1, lsl #4
 8002bc8:	d11b      	bne.n	8002c02 <HAL_RCC_OscConfig+0x44a>
 8002bca:	6b69      	ldr	r1, [r5, #52]	@ 0x34
 8002bcc:	f403 42fe 	and.w	r2, r3, #32512	@ 0x7f00
 8002bd0:	ebb2 2f01 	cmp.w	r2, r1, lsl #8
 8002bd4:	d115      	bne.n	8002c02 <HAL_RCC_OscConfig+0x44a>
 8002bd6:	6ba9      	ldr	r1, [r5, #56]	@ 0x38
 8002bd8:	f003 4278 	and.w	r2, r3, #4160749568	@ 0xf8000000
 8002bdc:	ebb2 6fc1 	cmp.w	r2, r1, lsl #27
 8002be0:	d10f      	bne.n	8002c02 <HAL_RCC_OscConfig+0x44a>
 8002be2:	6bea      	ldr	r2, [r5, #60]	@ 0x3c
 8002be4:	0852      	lsrs	r2, r2, #1
 8002be6:	f403 01c0 	and.w	r1, r3, #6291456	@ 0x600000
 8002bea:	3a01      	subs	r2, #1
 8002bec:	ebb1 5f42 	cmp.w	r1, r2, lsl #21
 8002bf0:	d107      	bne.n	8002c02 <HAL_RCC_OscConfig+0x44a>
 8002bf2:	6c2a      	ldr	r2, [r5, #64]	@ 0x40
 8002bf4:	0852      	lsrs	r2, r2, #1
 8002bf6:	f003 63c0 	and.w	r3, r3, #100663296	@ 0x6000000
 8002bfa:	3a01      	subs	r2, #1
 8002bfc:	ebb3 6f42 	cmp.w	r3, r2, lsl #25
 8002c00:	d045      	beq.n	8002c8e <HAL_RCC_OscConfig+0x4d6>
 8002c02:	2e0c      	cmp	r6, #12
 8002c04:	f43f ae3e 	beq.w	8002884 <HAL_RCC_OscConfig+0xcc>
 8002c08:	6823      	ldr	r3, [r4, #0]
 8002c0a:	015b      	lsls	r3, r3, #5
 8002c0c:	f53f ae3a 	bmi.w	8002884 <HAL_RCC_OscConfig+0xcc>
 8002c10:	6823      	ldr	r3, [r4, #0]
 8002c12:	f023 7380 	bic.w	r3, r3, #16777216	@ 0x1000000
 8002c16:	6023      	str	r3, [r4, #0]
 8002c18:	f7ff fa8a 	bl	8002130 <HAL_GetTick>
 8002c1c:	4606      	mov	r6, r0
 8002c1e:	6823      	ldr	r3, [r4, #0]
 8002c20:	019f      	lsls	r7, r3, #6
 8002c22:	d42e      	bmi.n	8002c82 <HAL_RCC_OscConfig+0x4ca>
 8002c24:	68e2      	ldr	r2, [r4, #12]
 8002c26:	4b33      	ldr	r3, [pc, #204]	@ (8002cf4 <HAL_RCC_OscConfig+0x53c>)
 8002c28:	4013      	ands	r3, r2
 8002c2a:	6aea      	ldr	r2, [r5, #44]	@ 0x2c
 8002c2c:	4313      	orrs	r3, r2
 8002c2e:	6b6a      	ldr	r2, [r5, #52]	@ 0x34
 8002c30:	ea43 2302 	orr.w	r3, r3, r2, lsl #8
 8002c34:	6baa      	ldr	r2, [r5, #56]	@ 0x38
 8002c36:	ea43 63c2 	orr.w	r3, r3, r2, lsl #27
 8002c3a:	6b2a      	ldr	r2, [r5, #48]	@ 0x30
 8002c3c:	3a01      	subs	r2, #1
 8002c3e:	ea43 1302 	orr.w	r3, r3, r2, lsl #4
 8002c42:	6bea      	ldr	r2, [r5, #60]	@ 0x3c
 8002c44:	0852      	lsrs	r2, r2, #1
 8002c46:	3a01      	subs	r2, #1
 8002c48:	ea43 5342 	orr.w	r3, r3, r2, lsl #21
 8002c4c:	6c2a      	ldr	r2, [r5, #64]	@ 0x40
 8002c4e:	0852      	lsrs	r2, r2, #1
 8002c50:	3a01      	subs	r2, #1
 8002c52:	ea43 6342 	orr.w	r3, r3, r2, lsl #25
 8002c56:	60e3      	str	r3, [r4, #12]
 8002c58:	6823      	ldr	r3, [r4, #0]
 8002c5a:	f043 7380 	orr.w	r3, r3, #16777216	@ 0x1000000
 8002c5e:	6023      	str	r3, [r4, #0]
 8002c60:	68e3      	ldr	r3, [r4, #12]
 8002c62:	f043 7380 	orr.w	r3, r3, #16777216	@ 0x1000000
 8002c66:	60e3      	str	r3, [r4, #12]
 8002c68:	f7ff fa62 	bl	8002130 <HAL_GetTick>
 8002c6c:	4605      	mov	r5, r0
 8002c6e:	6823      	ldr	r3, [r4, #0]
 8002c70:	0198      	lsls	r0, r3, #6
 8002c72:	f53f ae3d 	bmi.w	80028f0 <HAL_RCC_OscConfig+0x138>
 8002c76:	f7ff fa5b 	bl	8002130 <HAL_GetTick>
 8002c7a:	1b40      	subs	r0, r0, r5
 8002c7c:	2802      	cmp	r0, #2
 8002c7e:	d9f6      	bls.n	8002c6e <HAL_RCC_OscConfig+0x4b6>
 8002c80:	e63e      	b.n	8002900 <HAL_RCC_OscConfig+0x148>
 8002c82:	f7ff fa55 	bl	8002130 <HAL_GetTick>
 8002c86:	1b80      	subs	r0, r0, r6
 8002c88:	2802      	cmp	r0, #2
 8002c8a:	d9c8      	bls.n	8002c1e <HAL_RCC_OscConfig+0x466>
 8002c8c:	e638      	b.n	8002900 <HAL_RCC_OscConfig+0x148>
 8002c8e:	6823      	ldr	r3, [r4, #0]
 8002c90:	0199      	lsls	r1, r3, #6
 8002c92:	f53f ae2d 	bmi.w	80028f0 <HAL_RCC_OscConfig+0x138>
 8002c96:	6823      	ldr	r3, [r4, #0]
 8002c98:	f043 7380 	orr.w	r3, r3, #16777216	@ 0x1000000
 8002c9c:	6023      	str	r3, [r4, #0]
 8002c9e:	68e3      	ldr	r3, [r4, #12]
 8002ca0:	f043 7380 	orr.w	r3, r3, #16777216	@ 0x1000000
 8002ca4:	60e3      	str	r3, [r4, #12]
 8002ca6:	f7ff fa43 	bl	8002130 <HAL_GetTick>
 8002caa:	4605      	mov	r5, r0
 8002cac:	6823      	ldr	r3, [r4, #0]
 8002cae:	019a      	lsls	r2, r3, #6
 8002cb0:	f53f ae1e 	bmi.w	80028f0 <HAL_RCC_OscConfig+0x138>
 8002cb4:	f7ff fa3c 	bl	8002130 <HAL_GetTick>
 8002cb8:	1b40      	subs	r0, r0, r5
 8002cba:	2802      	cmp	r0, #2
 8002cbc:	d9f6      	bls.n	8002cac <HAL_RCC_OscConfig+0x4f4>
 8002cbe:	e61f      	b.n	8002900 <HAL_RCC_OscConfig+0x148>
 8002cc0:	2e0c      	cmp	r6, #12
 8002cc2:	f43f addf 	beq.w	8002884 <HAL_RCC_OscConfig+0xcc>
 8002cc6:	6823      	ldr	r3, [r4, #0]
 8002cc8:	f023 7380 	bic.w	r3, r3, #16777216	@ 0x1000000
 8002ccc:	6023      	str	r3, [r4, #0]
 8002cce:	f7ff fa2f 	bl	8002130 <HAL_GetTick>
 8002cd2:	4605      	mov	r5, r0
 8002cd4:	6823      	ldr	r3, [r4, #0]
 8002cd6:	019b      	lsls	r3, r3, #6
 8002cd8:	d404      	bmi.n	8002ce4 <HAL_RCC_OscConfig+0x52c>
 8002cda:	68e2      	ldr	r2, [r4, #12]
 8002cdc:	4b06      	ldr	r3, [pc, #24]	@ (8002cf8 <HAL_RCC_OscConfig+0x540>)
 8002cde:	4013      	ands	r3, r2
 8002ce0:	60e3      	str	r3, [r4, #12]
 8002ce2:	e605      	b.n	80028f0 <HAL_RCC_OscConfig+0x138>
 8002ce4:	f7ff fa24 	bl	8002130 <HAL_GetTick>
 8002ce8:	1b40      	subs	r0, r0, r5
 8002cea:	2802      	cmp	r0, #2
 8002cec:	d9f2      	bls.n	8002cd4 <HAL_RCC_OscConfig+0x51c>
 8002cee:	e607      	b.n	8002900 <HAL_RCC_OscConfig+0x148>
 8002cf0:	40007000 	.word	0x40007000
 8002cf4:	019d808c 	.word	0x019d808c
 8002cf8:	feeefffc 	.word	0xfeeefffc

08002cfc <HAL_RCC_ClockConfig>:
 8002cfc:	e92d 41f0 	stmdb	sp!, {r4, r5, r6, r7, r8, lr}
 8002d00:	460d      	mov	r5, r1
 8002d02:	4604      	mov	r4, r0
 8002d04:	b910      	cbnz	r0, 8002d0c <HAL_RCC_ClockConfig+0x10>
 8002d06:	2001      	movs	r0, #1
 8002d08:	e8bd 81f0 	ldmia.w	sp!, {r4, r5, r6, r7, r8, pc}
 8002d0c:	4a4b      	ldr	r2, [pc, #300]	@ (8002e3c <HAL_RCC_ClockConfig+0x140>)
 8002d0e:	6813      	ldr	r3, [r2, #0]
 8002d10:	f003 0307 	and.w	r3, r3, #7
 8002d14:	428b      	cmp	r3, r1
 8002d16:	d32c      	bcc.n	8002d72 <HAL_RCC_ClockConfig+0x76>
 8002d18:	6821      	ldr	r1, [r4, #0]
 8002d1a:	0788      	lsls	r0, r1, #30
 8002d1c:	d434      	bmi.n	8002d88 <HAL_RCC_ClockConfig+0x8c>
 8002d1e:	07c9      	lsls	r1, r1, #31
 8002d20:	d43f      	bmi.n	8002da2 <HAL_RCC_ClockConfig+0xa6>
 8002d22:	6821      	ldr	r1, [r4, #0]
 8002d24:	078a      	lsls	r2, r1, #30
 8002d26:	d468      	bmi.n	8002dfa <HAL_RCC_ClockConfig+0xfe>
 8002d28:	4a44      	ldr	r2, [pc, #272]	@ (8002e3c <HAL_RCC_ClockConfig+0x140>)
 8002d2a:	6813      	ldr	r3, [r2, #0]
 8002d2c:	f003 0307 	and.w	r3, r3, #7
 8002d30:	42ab      	cmp	r3, r5
 8002d32:	d86f      	bhi.n	8002e14 <HAL_RCC_ClockConfig+0x118>
 8002d34:	f011 0f04 	tst.w	r1, #4
 8002d38:	4d41      	ldr	r5, [pc, #260]	@ (8002e40 <HAL_RCC_ClockConfig+0x144>)
 8002d3a:	d177      	bne.n	8002e2c <HAL_RCC_ClockConfig+0x130>
 8002d3c:	070b      	lsls	r3, r1, #28
 8002d3e:	d506      	bpl.n	8002d4e <HAL_RCC_ClockConfig+0x52>
 8002d40:	68ab      	ldr	r3, [r5, #8]
 8002d42:	6922      	ldr	r2, [r4, #16]
 8002d44:	f423 5360 	bic.w	r3, r3, #14336	@ 0x3800
 8002d48:	ea43 03c2 	orr.w	r3, r3, r2, lsl #3
 8002d4c:	60ab      	str	r3, [r5, #8]
 8002d4e:	f7ff fce9 	bl	8002724 <HAL_RCC_GetSysClockFreq>
 8002d52:	68ab      	ldr	r3, [r5, #8]
 8002d54:	4a3b      	ldr	r2, [pc, #236]	@ (8002e44 <HAL_RCC_ClockConfig+0x148>)
 8002d56:	f3c3 1303 	ubfx	r3, r3, #4, #4
 8002d5a:	e8bd 41f0 	ldmia.w	sp!, {r4, r5, r6, r7, r8, lr}
 8002d5e:	5cd3      	ldrb	r3, [r2, r3]
 8002d60:	f003 031f 	and.w	r3, r3, #31
 8002d64:	40d8      	lsrs	r0, r3
 8002d66:	4b38      	ldr	r3, [pc, #224]	@ (8002e48 <HAL_RCC_ClockConfig+0x14c>)
 8002d68:	6018      	str	r0, [r3, #0]
 8002d6a:	4b38      	ldr	r3, [pc, #224]	@ (8002e4c <HAL_RCC_ClockConfig+0x150>)
 8002d6c:	6818      	ldr	r0, [r3, #0]
 8002d6e:	f7ff b99d 	b.w	80020ac <HAL_InitTick>
 8002d72:	6813      	ldr	r3, [r2, #0]
 8002d74:	f023 0307 	bic.w	r3, r3, #7
 8002d78:	430b      	orrs	r3, r1
 8002d7a:	6013      	str	r3, [r2, #0]
 8002d7c:	6813      	ldr	r3, [r2, #0]
 8002d7e:	f003 0307 	and.w	r3, r3, #7
 8002d82:	428b      	cmp	r3, r1
 8002d84:	d1bf      	bne.n	8002d06 <HAL_RCC_ClockConfig+0xa>
 8002d86:	e7c7      	b.n	8002d18 <HAL_RCC_ClockConfig+0x1c>
 8002d88:	4a2d      	ldr	r2, [pc, #180]	@ (8002e40 <HAL_RCC_ClockConfig+0x144>)
 8002d8a:	68a0      	ldr	r0, [r4, #8]
 8002d8c:	6893      	ldr	r3, [r2, #8]
 8002d8e:	f003 03f0 	and.w	r3, r3, #240	@ 0xf0
 8002d92:	4298      	cmp	r0, r3
 8002d94:	bf81      	itttt	hi
 8002d96:	6893      	ldrhi	r3, [r2, #8]
 8002d98:	f023 03f0 	bichi.w	r3, r3, #240	@ 0xf0
 8002d9c:	4303      	orrhi	r3, r0
 8002d9e:	6093      	strhi	r3, [r2, #8]
 8002da0:	e7bd      	b.n	8002d1e <HAL_RCC_ClockConfig+0x22>
 8002da2:	6862      	ldr	r2, [r4, #4]
 8002da4:	4e26      	ldr	r6, [pc, #152]	@ (8002e40 <HAL_RCC_ClockConfig+0x144>)
 8002da6:	2a03      	cmp	r2, #3
 8002da8:	6833      	ldr	r3, [r6, #0]
 8002daa:	d11a      	bne.n	8002de2 <HAL_RCC_ClockConfig+0xe6>
 8002dac:	f013 7f00 	tst.w	r3, #33554432	@ 0x2000000
 8002db0:	d0a9      	beq.n	8002d06 <HAL_RCC_ClockConfig+0xa>
 8002db2:	68b3      	ldr	r3, [r6, #8]
 8002db4:	f023 0303 	bic.w	r3, r3, #3
 8002db8:	4313      	orrs	r3, r2
 8002dba:	60b3      	str	r3, [r6, #8]
 8002dbc:	f7ff f9b8 	bl	8002130 <HAL_GetTick>
 8002dc0:	f241 3888 	movw	r8, #5000	@ 0x1388
 8002dc4:	4607      	mov	r7, r0
 8002dc6:	68b3      	ldr	r3, [r6, #8]
 8002dc8:	6862      	ldr	r2, [r4, #4]
 8002dca:	f003 030c 	and.w	r3, r3, #12
 8002dce:	ebb3 0f82 	cmp.w	r3, r2, lsl #2
 8002dd2:	d0a6      	beq.n	8002d22 <HAL_RCC_ClockConfig+0x26>
 8002dd4:	f7ff f9ac 	bl	8002130 <HAL_GetTick>
 8002dd8:	1bc0      	subs	r0, r0, r7
 8002dda:	4540      	cmp	r0, r8
 8002ddc:	d9f3      	bls.n	8002dc6 <HAL_RCC_ClockConfig+0xca>
 8002dde:	2003      	movs	r0, #3
 8002de0:	e792      	b.n	8002d08 <HAL_RCC_ClockConfig+0xc>
 8002de2:	2a02      	cmp	r2, #2
 8002de4:	d102      	bne.n	8002dec <HAL_RCC_ClockConfig+0xf0>
 8002de6:	f413 3f00 	tst.w	r3, #131072	@ 0x20000
 8002dea:	e7e1      	b.n	8002db0 <HAL_RCC_ClockConfig+0xb4>
 8002dec:	b912      	cbnz	r2, 8002df4 <HAL_RCC_ClockConfig+0xf8>
 8002dee:	f013 0f02 	tst.w	r3, #2
 8002df2:	e7dd      	b.n	8002db0 <HAL_RCC_ClockConfig+0xb4>
 8002df4:	f413 6f80 	tst.w	r3, #1024	@ 0x400
 8002df8:	e7da      	b.n	8002db0 <HAL_RCC_ClockConfig+0xb4>
 8002dfa:	4a11      	ldr	r2, [pc, #68]	@ (8002e40 <HAL_RCC_ClockConfig+0x144>)
 8002dfc:	68a0      	ldr	r0, [r4, #8]
 8002dfe:	6893      	ldr	r3, [r2, #8]
 8002e00:	f003 03f0 	and.w	r3, r3, #240	@ 0xf0
 8002e04:	4298      	cmp	r0, r3
 8002e06:	bf3f      	itttt	cc
 8002e08:	6893      	ldrcc	r3, [r2, #8]
 8002e0a:	f023 03f0 	biccc.w	r3, r3, #240	@ 0xf0
 8002e0e:	4303      	orrcc	r3, r0
 8002e10:	6093      	strcc	r3, [r2, #8]
 8002e12:	e789      	b.n	8002d28 <HAL_RCC_ClockConfig+0x2c>
 8002e14:	6813      	ldr	r3, [r2, #0]
 8002e16:	f023 0307 	bic.w	r3, r3, #7
 8002e1a:	432b      	orrs	r3, r5
 8002e1c:	6013      	str	r3, [r2, #0]
 8002e1e:	6813      	ldr	r3, [r2, #0]
 8002e20:	f003 0307 	and.w	r3, r3, #7
 8002e24:	42ab      	cmp	r3, r5
 8002e26:	f47f af6e 	bne.w	8002d06 <HAL_RCC_ClockConfig+0xa>
 8002e2a:	e783      	b.n	8002d34 <HAL_RCC_ClockConfig+0x38>
 8002e2c:	68ab      	ldr	r3, [r5, #8]
 8002e2e:	68e2      	ldr	r2, [r4, #12]
 8002e30:	f423 63e0 	bic.w	r3, r3, #1792	@ 0x700
 8002e34:	4313      	orrs	r3, r2
 8002e36:	60ab      	str	r3, [r5, #8]
 8002e38:	e780      	b.n	8002d3c <HAL_RCC_ClockConfig+0x40>
 8002e3a:	bf00      	nop
 8002e3c:	40022000 	.word	0x40022000
 8002e40:	40021000 	.word	0x40021000
 8002e44:	0800c098 	.word	0x0800c098
 8002e48:	2000003c 	.word	0x2000003c
 8002e4c:	20000044 	.word	0x20000044

08002e50 <HAL_RCC_GetPCLK1Freq>:
 8002e50:	4b05      	ldr	r3, [pc, #20]	@ (8002e68 <HAL_RCC_GetPCLK1Freq+0x18>)
 8002e52:	4a06      	ldr	r2, [pc, #24]	@ (8002e6c <HAL_RCC_GetPCLK1Freq+0x1c>)
 8002e54:	689b      	ldr	r3, [r3, #8]
 8002e56:	f3c3 2302 	ubfx	r3, r3, #8, #3
 8002e5a:	5cd3      	ldrb	r3, [r2, r3]
 8002e5c:	4a04      	ldr	r2, [pc, #16]	@ (8002e70 <HAL_RCC_GetPCLK1Freq+0x20>)
 8002e5e:	6810      	ldr	r0, [r2, #0]
 8002e60:	f003 031f 	and.w	r3, r3, #31
 8002e64:	40d8      	lsrs	r0, r3
 8002e66:	4770      	bx	lr
 8002e68:	40021000 	.word	0x40021000
 8002e6c:	0800c090 	.word	0x0800c090
 8002e70:	2000003c 	.word	0x2000003c

08002e74 <HAL_RCC_GetPCLK2Freq>:
 8002e74:	4b05      	ldr	r3, [pc, #20]	@ (8002e8c <HAL_RCC_GetPCLK2Freq+0x18>)
 8002e76:	4a06      	ldr	r2, [pc, #24]	@ (8002e90 <HAL_RCC_GetPCLK2Freq+0x1c>)
 8002e78:	689b      	ldr	r3, [r3, #8]
 8002e7a:	f3c3 23c2 	ubfx	r3, r3, #11, #3
 8002e7e:	5cd3      	ldrb	r3, [r2, r3]
 8002e80:	4a04      	ldr	r2, [pc, #16]	@ (8002e94 <HAL_RCC_GetPCLK2Freq+0x20>)
 8002e82:	6810      	ldr	r0, [r2, #0]
 8002e84:	f003 031f 	and.w	r3, r3, #31
 8002e88:	40d8      	lsrs	r0, r3
 8002e8a:	4770      	bx	lr
 8002e8c:	40021000 	.word	0x40021000
 8002e90:	0800c090 	.word	0x0800c090
 8002e94:	2000003c 	.word	0x2000003c

08002e98 <HAL_RCC_GetClockConfig>:
 8002e98:	230f      	movs	r3, #15
 8002e9a:	6003      	str	r3, [r0, #0]
 8002e9c:	4b0b      	ldr	r3, [pc, #44]	@ (8002ecc <HAL_RCC_GetClockConfig+0x34>)
 8002e9e:	689a      	ldr	r2, [r3, #8]
 8002ea0:	f002 0203 	and.w	r2, r2, #3
 8002ea4:	6042      	str	r2, [r0, #4]
 8002ea6:	689a      	ldr	r2, [r3, #8]
 8002ea8:	f002 02f0 	and.w	r2, r2, #240	@ 0xf0
 8002eac:	6082      	str	r2, [r0, #8]
 8002eae:	689a      	ldr	r2, [r3, #8]
 8002eb0:	f402 62e0 	and.w	r2, r2, #1792	@ 0x700
 8002eb4:	60c2      	str	r2, [r0, #12]
 8002eb6:	689b      	ldr	r3, [r3, #8]
 8002eb8:	08db      	lsrs	r3, r3, #3
 8002eba:	f403 63e0 	and.w	r3, r3, #1792	@ 0x700
 8002ebe:	6103      	str	r3, [r0, #16]
 8002ec0:	4b03      	ldr	r3, [pc, #12]	@ (8002ed0 <HAL_RCC_GetClockConfig+0x38>)
 8002ec2:	681b      	ldr	r3, [r3, #0]
 8002ec4:	f003 0307 	and.w	r3, r3, #7
 8002ec8:	600b      	str	r3, [r1, #0]
 8002eca:	4770      	bx	lr
 8002ecc:	40021000 	.word	0x40021000
 8002ed0:	40022000 	.word	0x40022000

08002ed4 <RCCEx_PLLSAI1_Config>:
 8002ed4:	b5f8      	push	{r3, r4, r5, r6, r7, lr}
 8002ed6:	4c41      	ldr	r4, [pc, #260]	@ (8002fdc <RCCEx_PLLSAI1_Config+0x108>)
 8002ed8:	68e3      	ldr	r3, [r4, #12]
 8002eda:	079b      	lsls	r3, r3, #30
 8002edc:	4605      	mov	r5, r0
 8002ede:	460e      	mov	r6, r1
 8002ee0:	6800      	ldr	r0, [r0, #0]
 8002ee2:	d028      	beq.n	8002f36 <RCCEx_PLLSAI1_Config+0x62>
 8002ee4:	68e3      	ldr	r3, [r4, #12]
 8002ee6:	f003 0303 	and.w	r3, r3, #3
 8002eea:	4283      	cmp	r3, r0
 8002eec:	d13a      	bne.n	8002f64 <RCCEx_PLLSAI1_Config+0x90>
 8002eee:	2b00      	cmp	r3, #0
 8002ef0:	d038      	beq.n	8002f64 <RCCEx_PLLSAI1_Config+0x90>
 8002ef2:	68e3      	ldr	r3, [r4, #12]
 8002ef4:	686a      	ldr	r2, [r5, #4]
 8002ef6:	f3c3 1302 	ubfx	r3, r3, #4, #3
 8002efa:	3301      	adds	r3, #1
 8002efc:	4293      	cmp	r3, r2
 8002efe:	d131      	bne.n	8002f64 <RCCEx_PLLSAI1_Config+0x90>
 8002f00:	6823      	ldr	r3, [r4, #0]
 8002f02:	f023 6380 	bic.w	r3, r3, #67108864	@ 0x4000000
 8002f06:	6023      	str	r3, [r4, #0]
 8002f08:	f7ff f912 	bl	8002130 <HAL_GetTick>
 8002f0c:	4607      	mov	r7, r0
 8002f0e:	6823      	ldr	r3, [r4, #0]
 8002f10:	011a      	lsls	r2, r3, #4
 8002f12:	d430      	bmi.n	8002f76 <RCCEx_PLLSAI1_Config+0xa2>
 8002f14:	68aa      	ldr	r2, [r5, #8]
 8002f16:	0212      	lsls	r2, r2, #8
 8002f18:	b3a6      	cbz	r6, 8002f84 <RCCEx_PLLSAI1_Config+0xb0>
 8002f1a:	2e01      	cmp	r6, #1
 8002f1c:	6923      	ldr	r3, [r4, #16]
 8002f1e:	d14b      	bne.n	8002fb8 <RCCEx_PLLSAI1_Config+0xe4>
 8002f20:	6929      	ldr	r1, [r5, #16]
 8002f22:	f423 03c0 	bic.w	r3, r3, #6291456	@ 0x600000
 8002f26:	0849      	lsrs	r1, r1, #1
 8002f28:	f423 43fe 	bic.w	r3, r3, #32512	@ 0x7f00
 8002f2c:	3901      	subs	r1, #1
 8002f2e:	4313      	orrs	r3, r2
 8002f30:	ea43 5341 	orr.w	r3, r3, r1, lsl #21
 8002f34:	e02f      	b.n	8002f96 <RCCEx_PLLSAI1_Config+0xc2>
 8002f36:	2802      	cmp	r0, #2
 8002f38:	d010      	beq.n	8002f5c <RCCEx_PLLSAI1_Config+0x88>
 8002f3a:	2803      	cmp	r0, #3
 8002f3c:	d014      	beq.n	8002f68 <RCCEx_PLLSAI1_Config+0x94>
 8002f3e:	2801      	cmp	r0, #1
 8002f40:	d110      	bne.n	8002f64 <RCCEx_PLLSAI1_Config+0x90>
 8002f42:	6823      	ldr	r3, [r4, #0]
 8002f44:	079f      	lsls	r7, r3, #30
 8002f46:	d51c      	bpl.n	8002f82 <RCCEx_PLLSAI1_Config+0xae>
 8002f48:	68e3      	ldr	r3, [r4, #12]
 8002f4a:	686a      	ldr	r2, [r5, #4]
 8002f4c:	f023 0373 	bic.w	r3, r3, #115	@ 0x73
 8002f50:	3a01      	subs	r2, #1
 8002f52:	4303      	orrs	r3, r0
 8002f54:	ea43 1302 	orr.w	r3, r3, r2, lsl #4
 8002f58:	60e3      	str	r3, [r4, #12]
 8002f5a:	e7d1      	b.n	8002f00 <RCCEx_PLLSAI1_Config+0x2c>
 8002f5c:	6823      	ldr	r3, [r4, #0]
 8002f5e:	f413 6f80 	tst.w	r3, #1024	@ 0x400
 8002f62:	d1f1      	bne.n	8002f48 <RCCEx_PLLSAI1_Config+0x74>
 8002f64:	2001      	movs	r0, #1
 8002f66:	e00c      	b.n	8002f82 <RCCEx_PLLSAI1_Config+0xae>
 8002f68:	6823      	ldr	r3, [r4, #0]
 8002f6a:	0399      	lsls	r1, r3, #14
 8002f6c:	d4ec      	bmi.n	8002f48 <RCCEx_PLLSAI1_Config+0x74>
 8002f6e:	6823      	ldr	r3, [r4, #0]
 8002f70:	f413 2f80 	tst.w	r3, #262144	@ 0x40000
 8002f74:	e7f5      	b.n	8002f62 <RCCEx_PLLSAI1_Config+0x8e>
 8002f76:	f7ff f8db 	bl	8002130 <HAL_GetTick>
 8002f7a:	1bc0      	subs	r0, r0, r7
 8002f7c:	2802      	cmp	r0, #2
 8002f7e:	d9c6      	bls.n	8002f0e <RCCEx_PLLSAI1_Config+0x3a>
 8002f80:	2003      	movs	r0, #3
 8002f82:	bdf8      	pop	{r3, r4, r5, r6, r7, pc}
 8002f84:	6921      	ldr	r1, [r4, #16]
 8002f86:	68eb      	ldr	r3, [r5, #12]
 8002f88:	ea42 63c3 	orr.w	r3, r2, r3, lsl #27
 8002f8c:	f021 4278 	bic.w	r2, r1, #4160749568	@ 0xf8000000
 8002f90:	f422 42fe 	bic.w	r2, r2, #32512	@ 0x7f00
 8002f94:	4313      	orrs	r3, r2
 8002f96:	6123      	str	r3, [r4, #16]
 8002f98:	6823      	ldr	r3, [r4, #0]
 8002f9a:	f043 6380 	orr.w	r3, r3, #67108864	@ 0x4000000
 8002f9e:	6023      	str	r3, [r4, #0]
 8002fa0:	f7ff f8c6 	bl	8002130 <HAL_GetTick>
 8002fa4:	4606      	mov	r6, r0
 8002fa6:	6823      	ldr	r3, [r4, #0]
 8002fa8:	011b      	lsls	r3, r3, #4
 8002faa:	d510      	bpl.n	8002fce <RCCEx_PLLSAI1_Config+0xfa>
 8002fac:	6923      	ldr	r3, [r4, #16]
 8002fae:	69aa      	ldr	r2, [r5, #24]
 8002fb0:	4313      	orrs	r3, r2
 8002fb2:	6123      	str	r3, [r4, #16]
 8002fb4:	2000      	movs	r0, #0
 8002fb6:	e7e4      	b.n	8002f82 <RCCEx_PLLSAI1_Config+0xae>
 8002fb8:	6969      	ldr	r1, [r5, #20]
 8002fba:	f023 63c0 	bic.w	r3, r3, #100663296	@ 0x6000000
 8002fbe:	0849      	lsrs	r1, r1, #1
 8002fc0:	f423 43fe 	bic.w	r3, r3, #32512	@ 0x7f00
 8002fc4:	3901      	subs	r1, #1
 8002fc6:	4313      	orrs	r3, r2
 8002fc8:	ea43 6341 	orr.w	r3, r3, r1, lsl #25
 8002fcc:	e7e3      	b.n	8002f96 <RCCEx_PLLSAI1_Config+0xc2>
 8002fce:	f7ff f8af 	bl	8002130 <HAL_GetTick>
 8002fd2:	1b80      	subs	r0, r0, r6
 8002fd4:	2802      	cmp	r0, #2
 8002fd6:	d9e6      	bls.n	8002fa6 <RCCEx_PLLSAI1_Config+0xd2>
 8002fd8:	e7d2      	b.n	8002f80 <RCCEx_PLLSAI1_Config+0xac>
 8002fda:	bf00      	nop
 8002fdc:	40021000 	.word	0x40021000

08002fe0 <HAL_RCCEx_PeriphCLKConfig>:
 8002fe0:	6803      	ldr	r3, [r0, #0]
 8002fe2:	e92d 43f7 	stmdb	sp!, {r0, r1, r2, r4, r5, r6, r7, r8, r9, lr}
 8002fe6:	051e      	lsls	r6, r3, #20
 8002fe8:	4604      	mov	r4, r0
 8002fea:	f140 80e7 	bpl.w	80031bc <HAL_RCCEx_PeriphCLKConfig+0x1dc>
 8002fee:	6bc1      	ldr	r1, [r0, #60]	@ 0x3c
 8002ff0:	f5b1 0f00 	cmp.w	r1, #8388608	@ 0x800000
 8002ff4:	f000 80d4 	beq.w	80031a0 <HAL_RCCEx_PeriphCLKConfig+0x1c0>
 8002ff8:	f5b1 0f40 	cmp.w	r1, #12582912	@ 0xc00000
 8002ffc:	f000 80d5 	beq.w	80031aa <HAL_RCCEx_PeriphCLKConfig+0x1ca>
 8003000:	2900      	cmp	r1, #0
 8003002:	f000 80dd 	beq.w	80031c0 <HAL_RCCEx_PeriphCLKConfig+0x1e0>
 8003006:	2601      	movs	r6, #1
 8003008:	6823      	ldr	r3, [r4, #0]
 800300a:	039d      	lsls	r5, r3, #14
 800300c:	d533      	bpl.n	8003076 <HAL_RCCEx_PeriphCLKConfig+0x96>
 800300e:	4d9a      	ldr	r5, [pc, #616]	@ (8003278 <HAL_RCCEx_PeriphCLKConfig+0x298>)
 8003010:	6dab      	ldr	r3, [r5, #88]	@ 0x58
 8003012:	00d8      	lsls	r0, r3, #3
 8003014:	f100 80dc 	bmi.w	80031d0 <HAL_RCCEx_PeriphCLKConfig+0x1f0>
 8003018:	6dab      	ldr	r3, [r5, #88]	@ 0x58
 800301a:	f043 5380 	orr.w	r3, r3, #268435456	@ 0x10000000
 800301e:	65ab      	str	r3, [r5, #88]	@ 0x58
 8003020:	6dab      	ldr	r3, [r5, #88]	@ 0x58
 8003022:	f003 5380 	and.w	r3, r3, #268435456	@ 0x10000000
 8003026:	9301      	str	r3, [sp, #4]
 8003028:	9b01      	ldr	r3, [sp, #4]
 800302a:	2701      	movs	r7, #1
 800302c:	f8df 824c 	ldr.w	r8, [pc, #588]	@ 800327c <HAL_RCCEx_PeriphCLKConfig+0x29c>
 8003030:	f8d8 3000 	ldr.w	r3, [r8]
 8003034:	f443 7380 	orr.w	r3, r3, #256	@ 0x100
 8003038:	f8c8 3000 	str.w	r3, [r8]
 800303c:	f7ff f878 	bl	8002130 <HAL_GetTick>
 8003040:	4681      	mov	r9, r0
 8003042:	f8d8 3000 	ldr.w	r3, [r8]
 8003046:	05d9      	lsls	r1, r3, #23
 8003048:	f140 80c4 	bpl.w	80031d4 <HAL_RCCEx_PeriphCLKConfig+0x1f4>
 800304c:	b976      	cbnz	r6, 800306c <HAL_RCCEx_PeriphCLKConfig+0x8c>
 800304e:	f8d5 3090 	ldr.w	r3, [r5, #144]	@ 0x90
 8003052:	6d22      	ldr	r2, [r4, #80]	@ 0x50
 8003054:	f413 7340 	ands.w	r3, r3, #768	@ 0x300
 8003058:	f040 80c5 	bne.w	80031e6 <HAL_RCCEx_PeriphCLKConfig+0x206>
 800305c:	f8d5 3090 	ldr.w	r3, [r5, #144]	@ 0x90
 8003060:	6d22      	ldr	r2, [r4, #80]	@ 0x50
 8003062:	f423 7340 	bic.w	r3, r3, #768	@ 0x300
 8003066:	4313      	orrs	r3, r2
 8003068:	f8c5 3090 	str.w	r3, [r5, #144]	@ 0x90
 800306c:	b11f      	cbz	r7, 8003076 <HAL_RCCEx_PeriphCLKConfig+0x96>
 800306e:	6dab      	ldr	r3, [r5, #88]	@ 0x58
 8003070:	f023 5380 	bic.w	r3, r3, #268435456	@ 0x10000000
 8003074:	65ab      	str	r3, [r5, #88]	@ 0x58
 8003076:	6823      	ldr	r3, [r4, #0]
 8003078:	07df      	lsls	r7, r3, #31
 800307a:	d508      	bpl.n	800308e <HAL_RCCEx_PeriphCLKConfig+0xae>
 800307c:	497e      	ldr	r1, [pc, #504]	@ (8003278 <HAL_RCCEx_PeriphCLKConfig+0x298>)
 800307e:	6a20      	ldr	r0, [r4, #32]
 8003080:	f8d1 2088 	ldr.w	r2, [r1, #136]	@ 0x88
 8003084:	f022 0203 	bic.w	r2, r2, #3
 8003088:	4302      	orrs	r2, r0
 800308a:	f8c1 2088 	str.w	r2, [r1, #136]	@ 0x88
 800308e:	079d      	lsls	r5, r3, #30
 8003090:	d508      	bpl.n	80030a4 <HAL_RCCEx_PeriphCLKConfig+0xc4>
 8003092:	4979      	ldr	r1, [pc, #484]	@ (8003278 <HAL_RCCEx_PeriphCLKConfig+0x298>)
 8003094:	6a60      	ldr	r0, [r4, #36]	@ 0x24
 8003096:	f8d1 2088 	ldr.w	r2, [r1, #136]	@ 0x88
 800309a:	f022 020c 	bic.w	r2, r2, #12
 800309e:	4302      	orrs	r2, r0
 80030a0:	f8c1 2088 	str.w	r2, [r1, #136]	@ 0x88
 80030a4:	0698      	lsls	r0, r3, #26
 80030a6:	d508      	bpl.n	80030ba <HAL_RCCEx_PeriphCLKConfig+0xda>
 80030a8:	4973      	ldr	r1, [pc, #460]	@ (8003278 <HAL_RCCEx_PeriphCLKConfig+0x298>)
 80030aa:	6aa0      	ldr	r0, [r4, #40]	@ 0x28
 80030ac:	f8d1 2088 	ldr.w	r2, [r1, #136]	@ 0x88
 80030b0:	f422 6240 	bic.w	r2, r2, #3072	@ 0xc00
 80030b4:	4302      	orrs	r2, r0
 80030b6:	f8c1 2088 	str.w	r2, [r1, #136]	@ 0x88
 80030ba:	0599      	lsls	r1, r3, #22
 80030bc:	d508      	bpl.n	80030d0 <HAL_RCCEx_PeriphCLKConfig+0xf0>
 80030be:	496e      	ldr	r1, [pc, #440]	@ (8003278 <HAL_RCCEx_PeriphCLKConfig+0x298>)
 80030c0:	6b60      	ldr	r0, [r4, #52]	@ 0x34
 80030c2:	f8d1 2088 	ldr.w	r2, [r1, #136]	@ 0x88
 80030c6:	f422 2240 	bic.w	r2, r2, #786432	@ 0xc0000
 80030ca:	4302      	orrs	r2, r0
 80030cc:	f8c1 2088 	str.w	r2, [r1, #136]	@ 0x88
 80030d0:	055a      	lsls	r2, r3, #21
 80030d2:	d508      	bpl.n	80030e6 <HAL_RCCEx_PeriphCLKConfig+0x106>
 80030d4:	4968      	ldr	r1, [pc, #416]	@ (8003278 <HAL_RCCEx_PeriphCLKConfig+0x298>)
 80030d6:	6ba0      	ldr	r0, [r4, #56]	@ 0x38
 80030d8:	f8d1 2088 	ldr.w	r2, [r1, #136]	@ 0x88
 80030dc:	f422 1240 	bic.w	r2, r2, #3145728	@ 0x300000
 80030e0:	4302      	orrs	r2, r0
 80030e2:	f8c1 2088 	str.w	r2, [r1, #136]	@ 0x88
 80030e6:	065f      	lsls	r7, r3, #25
 80030e8:	d508      	bpl.n	80030fc <HAL_RCCEx_PeriphCLKConfig+0x11c>
 80030ea:	4963      	ldr	r1, [pc, #396]	@ (8003278 <HAL_RCCEx_PeriphCLKConfig+0x298>)
 80030ec:	6ae0      	ldr	r0, [r4, #44]	@ 0x2c
 80030ee:	f8d1 2088 	ldr.w	r2, [r1, #136]	@ 0x88
 80030f2:	f422 5240 	bic.w	r2, r2, #12288	@ 0x3000
 80030f6:	4302      	orrs	r2, r0
 80030f8:	f8c1 2088 	str.w	r2, [r1, #136]	@ 0x88
 80030fc:	05dd      	lsls	r5, r3, #23
 80030fe:	d508      	bpl.n	8003112 <HAL_RCCEx_PeriphCLKConfig+0x132>
 8003100:	495d      	ldr	r1, [pc, #372]	@ (8003278 <HAL_RCCEx_PeriphCLKConfig+0x298>)
 8003102:	6b20      	ldr	r0, [r4, #48]	@ 0x30
 8003104:	f8d1 2088 	ldr.w	r2, [r1, #136]	@ 0x88
 8003108:	f422 3240 	bic.w	r2, r2, #196608	@ 0x30000
 800310c:	4302      	orrs	r2, r0
 800310e:	f8c1 2088 	str.w	r2, [r1, #136]	@ 0x88
 8003112:	0498      	lsls	r0, r3, #18
 8003114:	d510      	bpl.n	8003138 <HAL_RCCEx_PeriphCLKConfig+0x158>
 8003116:	4a58      	ldr	r2, [pc, #352]	@ (8003278 <HAL_RCCEx_PeriphCLKConfig+0x298>)
 8003118:	6c21      	ldr	r1, [r4, #64]	@ 0x40
 800311a:	f8d2 3088 	ldr.w	r3, [r2, #136]	@ 0x88
 800311e:	f023 6340 	bic.w	r3, r3, #201326592	@ 0xc000000
 8003122:	430b      	orrs	r3, r1
 8003124:	f1b1 6f00 	cmp.w	r1, #134217728	@ 0x8000000
 8003128:	f8c2 3088 	str.w	r3, [r2, #136]	@ 0x88
 800312c:	f040 8084 	bne.w	8003238 <HAL_RCCEx_PeriphCLKConfig+0x258>
 8003130:	68d3      	ldr	r3, [r2, #12]
 8003132:	f443 1380 	orr.w	r3, r3, #1048576	@ 0x100000
 8003136:	60d3      	str	r3, [r2, #12]
 8003138:	4637      	mov	r7, r6
 800313a:	6823      	ldr	r3, [r4, #0]
 800313c:	0359      	lsls	r1, r3, #13
 800313e:	d50f      	bpl.n	8003160 <HAL_RCCEx_PeriphCLKConfig+0x180>
 8003140:	4a4d      	ldr	r2, [pc, #308]	@ (8003278 <HAL_RCCEx_PeriphCLKConfig+0x298>)
 8003142:	6c61      	ldr	r1, [r4, #68]	@ 0x44
 8003144:	f8d2 3088 	ldr.w	r3, [r2, #136]	@ 0x88
 8003148:	f023 6340 	bic.w	r3, r3, #201326592	@ 0xc000000
 800314c:	430b      	orrs	r3, r1
 800314e:	f1b1 6f00 	cmp.w	r1, #134217728	@ 0x8000000
 8003152:	f8c2 3088 	str.w	r3, [r2, #136]	@ 0x88
 8003156:	d17c      	bne.n	8003252 <HAL_RCCEx_PeriphCLKConfig+0x272>
 8003158:	68d3      	ldr	r3, [r2, #12]
 800315a:	f443 1380 	orr.w	r3, r3, #1048576	@ 0x100000
 800315e:	60d3      	str	r3, [r2, #12]
 8003160:	463d      	mov	r5, r7
 8003162:	6823      	ldr	r3, [r4, #0]
 8003164:	045a      	lsls	r2, r3, #17
 8003166:	d50b      	bpl.n	8003180 <HAL_RCCEx_PeriphCLKConfig+0x1a0>
 8003168:	4943      	ldr	r1, [pc, #268]	@ (8003278 <HAL_RCCEx_PeriphCLKConfig+0x298>)
 800316a:	6ca2      	ldr	r2, [r4, #72]	@ 0x48
 800316c:	f8d1 3088 	ldr.w	r3, [r1, #136]	@ 0x88
 8003170:	f023 5340 	bic.w	r3, r3, #805306368	@ 0x30000000
 8003174:	4313      	orrs	r3, r2
 8003176:	f1b2 5f80 	cmp.w	r2, #268435456	@ 0x10000000
 800317a:	f8c1 3088 	str.w	r3, [r1, #136]	@ 0x88
 800317e:	d074      	beq.n	800326a <HAL_RCCEx_PeriphCLKConfig+0x28a>
 8003180:	4628      	mov	r0, r5
 8003182:	6823      	ldr	r3, [r4, #0]
 8003184:	041b      	lsls	r3, r3, #16
 8003186:	d508      	bpl.n	800319a <HAL_RCCEx_PeriphCLKConfig+0x1ba>
 8003188:	4a3b      	ldr	r2, [pc, #236]	@ (8003278 <HAL_RCCEx_PeriphCLKConfig+0x298>)
 800318a:	6ce1      	ldr	r1, [r4, #76]	@ 0x4c
 800318c:	f8d2 3088 	ldr.w	r3, [r2, #136]	@ 0x88
 8003190:	f023 4380 	bic.w	r3, r3, #1073741824	@ 0x40000000
 8003194:	430b      	orrs	r3, r1
 8003196:	f8c2 3088 	str.w	r3, [r2, #136]	@ 0x88
 800319a:	b003      	add	sp, #12
 800319c:	e8bd 83f0 	ldmia.w	sp!, {r4, r5, r6, r7, r8, r9, pc}
 80031a0:	4a35      	ldr	r2, [pc, #212]	@ (8003278 <HAL_RCCEx_PeriphCLKConfig+0x298>)
 80031a2:	68d3      	ldr	r3, [r2, #12]
 80031a4:	f443 3380 	orr.w	r3, r3, #65536	@ 0x10000
 80031a8:	60d3      	str	r3, [r2, #12]
 80031aa:	4a33      	ldr	r2, [pc, #204]	@ (8003278 <HAL_RCCEx_PeriphCLKConfig+0x298>)
 80031ac:	6be1      	ldr	r1, [r4, #60]	@ 0x3c
 80031ae:	f8d2 3088 	ldr.w	r3, [r2, #136]	@ 0x88
 80031b2:	f423 0340 	bic.w	r3, r3, #12582912	@ 0xc00000
 80031b6:	430b      	orrs	r3, r1
 80031b8:	f8c2 3088 	str.w	r3, [r2, #136]	@ 0x88
 80031bc:	2600      	movs	r6, #0
 80031be:	e723      	b.n	8003008 <HAL_RCCEx_PeriphCLKConfig+0x28>
 80031c0:	3004      	adds	r0, #4
 80031c2:	f7ff fe87 	bl	8002ed4 <RCCEx_PLLSAI1_Config>
 80031c6:	4606      	mov	r6, r0
 80031c8:	2800      	cmp	r0, #0
 80031ca:	f47f af1d 	bne.w	8003008 <HAL_RCCEx_PeriphCLKConfig+0x28>
 80031ce:	e7ec      	b.n	80031aa <HAL_RCCEx_PeriphCLKConfig+0x1ca>
 80031d0:	2700      	movs	r7, #0
 80031d2:	e72b      	b.n	800302c <HAL_RCCEx_PeriphCLKConfig+0x4c>
 80031d4:	f7fe ffac 	bl	8002130 <HAL_GetTick>
 80031d8:	eba0 0009 	sub.w	r0, r0, r9
 80031dc:	2802      	cmp	r0, #2
 80031de:	f67f af30 	bls.w	8003042 <HAL_RCCEx_PeriphCLKConfig+0x62>
 80031e2:	2603      	movs	r6, #3
 80031e4:	e742      	b.n	800306c <HAL_RCCEx_PeriphCLKConfig+0x8c>
 80031e6:	4293      	cmp	r3, r2
 80031e8:	f43f af38 	beq.w	800305c <HAL_RCCEx_PeriphCLKConfig+0x7c>
 80031ec:	f8d5 2090 	ldr.w	r2, [r5, #144]	@ 0x90
 80031f0:	f8d5 3090 	ldr.w	r3, [r5, #144]	@ 0x90
 80031f4:	f443 3380 	orr.w	r3, r3, #65536	@ 0x10000
 80031f8:	f8c5 3090 	str.w	r3, [r5, #144]	@ 0x90
 80031fc:	f8d5 3090 	ldr.w	r3, [r5, #144]	@ 0x90
 8003200:	f422 7140 	bic.w	r1, r2, #768	@ 0x300
 8003204:	f423 3380 	bic.w	r3, r3, #65536	@ 0x10000
 8003208:	07d2      	lsls	r2, r2, #31
 800320a:	f8c5 3090 	str.w	r3, [r5, #144]	@ 0x90
 800320e:	f8c5 1090 	str.w	r1, [r5, #144]	@ 0x90
 8003212:	f57f af23 	bpl.w	800305c <HAL_RCCEx_PeriphCLKConfig+0x7c>
 8003216:	f7fe ff8b 	bl	8002130 <HAL_GetTick>
 800321a:	f241 3988 	movw	r9, #5000	@ 0x1388
 800321e:	4680      	mov	r8, r0
 8003220:	f8d5 3090 	ldr.w	r3, [r5, #144]	@ 0x90
 8003224:	079b      	lsls	r3, r3, #30
 8003226:	f53f af19 	bmi.w	800305c <HAL_RCCEx_PeriphCLKConfig+0x7c>
 800322a:	f7fe ff81 	bl	8002130 <HAL_GetTick>
 800322e:	eba0 0008 	sub.w	r0, r0, r8
 8003232:	4548      	cmp	r0, r9
 8003234:	d9f4      	bls.n	8003220 <HAL_RCCEx_PeriphCLKConfig+0x240>
 8003236:	e7d4      	b.n	80031e2 <HAL_RCCEx_PeriphCLKConfig+0x202>
 8003238:	f1b1 6f80 	cmp.w	r1, #67108864	@ 0x4000000
 800323c:	f47f af7c 	bne.w	8003138 <HAL_RCCEx_PeriphCLKConfig+0x158>
 8003240:	2101      	movs	r1, #1
 8003242:	1d20      	adds	r0, r4, #4
 8003244:	f7ff fe46 	bl	8002ed4 <RCCEx_PLLSAI1_Config>
 8003248:	4607      	mov	r7, r0
 800324a:	2800      	cmp	r0, #0
 800324c:	f43f af74 	beq.w	8003138 <HAL_RCCEx_PeriphCLKConfig+0x158>
 8003250:	e773      	b.n	800313a <HAL_RCCEx_PeriphCLKConfig+0x15a>
 8003252:	f1b1 6f80 	cmp.w	r1, #67108864	@ 0x4000000
 8003256:	d183      	bne.n	8003160 <HAL_RCCEx_PeriphCLKConfig+0x180>
 8003258:	2101      	movs	r1, #1
 800325a:	1d20      	adds	r0, r4, #4
 800325c:	f7ff fe3a 	bl	8002ed4 <RCCEx_PLLSAI1_Config>
 8003260:	4605      	mov	r5, r0
 8003262:	2800      	cmp	r0, #0
 8003264:	f43f af7c 	beq.w	8003160 <HAL_RCCEx_PeriphCLKConfig+0x180>
 8003268:	e77b      	b.n	8003162 <HAL_RCCEx_PeriphCLKConfig+0x182>
 800326a:	2102      	movs	r1, #2
 800326c:	1d20      	adds	r0, r4, #4
 800326e:	f7ff fe31 	bl	8002ed4 <RCCEx_PLLSAI1_Config>
 8003272:	2800      	cmp	r0, #0
 8003274:	d084      	beq.n	8003180 <HAL_RCCEx_PeriphCLKConfig+0x1a0>
 8003276:	e784      	b.n	8003182 <HAL_RCCEx_PeriphCLKConfig+0x1a2>
 8003278:	40021000 	.word	0x40021000
 800327c:	40007000 	.word	0x40007000

08003280 <HAL_RCCEx_EnableMSIPLLMode>:
 8003280:	4a02      	ldr	r2, [pc, #8]	@ (800328c <HAL_RCCEx_EnableMSIPLLMode+0xc>)
 8003282:	6813      	ldr	r3, [r2, #0]
 8003284:	f043 0304 	orr.w	r3, r3, #4
 8003288:	6013      	str	r3, [r2, #0]
 800328a:	4770      	bx	lr
 800328c:	40021000 	.word	0x40021000

08003290 <TIM_OC1_SetConfig>:
 8003290:	6a03      	ldr	r3, [r0, #32]
 8003292:	6a02      	ldr	r2, [r0, #32]
 8003294:	f022 0201 	bic.w	r2, r2, #1
 8003298:	b570      	push	{r4, r5, r6, lr}
 800329a:	6202      	str	r2, [r0, #32]
 800329c:	6842      	ldr	r2, [r0, #4]
 800329e:	6984      	ldr	r4, [r0, #24]
 80032a0:	680d      	ldr	r5, [r1, #0]
 80032a2:	f424 3480 	bic.w	r4, r4, #65536	@ 0x10000
 80032a6:	f024 0473 	bic.w	r4, r4, #115	@ 0x73
 80032aa:	432c      	orrs	r4, r5
 80032ac:	688d      	ldr	r5, [r1, #8]
 80032ae:	f023 0302 	bic.w	r3, r3, #2
 80032b2:	432b      	orrs	r3, r5
 80032b4:	4d0e      	ldr	r5, [pc, #56]	@ (80032f0 <TIM_OC1_SetConfig+0x60>)
 80032b6:	42a8      	cmp	r0, r5
 80032b8:	d007      	beq.n	80032ca <TIM_OC1_SetConfig+0x3a>
 80032ba:	f505 55a0 	add.w	r5, r5, #5120	@ 0x1400
 80032be:	42a8      	cmp	r0, r5
 80032c0:	d003      	beq.n	80032ca <TIM_OC1_SetConfig+0x3a>
 80032c2:	f505 6580 	add.w	r5, r5, #1024	@ 0x400
 80032c6:	42a8      	cmp	r0, r5
 80032c8:	d10b      	bne.n	80032e2 <TIM_OC1_SetConfig+0x52>
 80032ca:	68cd      	ldr	r5, [r1, #12]
 80032cc:	f023 0308 	bic.w	r3, r3, #8
 80032d0:	432b      	orrs	r3, r5
 80032d2:	e9d1 5605 	ldrd	r5, r6, [r1, #20]
 80032d6:	f422 7240 	bic.w	r2, r2, #768	@ 0x300
 80032da:	4335      	orrs	r5, r6
 80032dc:	f023 0304 	bic.w	r3, r3, #4
 80032e0:	432a      	orrs	r2, r5
 80032e2:	6042      	str	r2, [r0, #4]
 80032e4:	684a      	ldr	r2, [r1, #4]
 80032e6:	6184      	str	r4, [r0, #24]
 80032e8:	6342      	str	r2, [r0, #52]	@ 0x34
 80032ea:	6203      	str	r3, [r0, #32]
 80032ec:	bd70      	pop	{r4, r5, r6, pc}
 80032ee:	bf00      	nop
 80032f0:	40012c00 	.word	0x40012c00

080032f4 <TIM_OC3_SetConfig>:
 80032f4:	6a03      	ldr	r3, [r0, #32]
 80032f6:	6a02      	ldr	r2, [r0, #32]
 80032f8:	f422 7280 	bic.w	r2, r2, #256	@ 0x100
 80032fc:	b570      	push	{r4, r5, r6, lr}
 80032fe:	6202      	str	r2, [r0, #32]
 8003300:	6842      	ldr	r2, [r0, #4]
 8003302:	69c4      	ldr	r4, [r0, #28]
 8003304:	680d      	ldr	r5, [r1, #0]
 8003306:	f424 3480 	bic.w	r4, r4, #65536	@ 0x10000
 800330a:	f024 0473 	bic.w	r4, r4, #115	@ 0x73
 800330e:	432c      	orrs	r4, r5
 8003310:	688d      	ldr	r5, [r1, #8]
 8003312:	f423 7300 	bic.w	r3, r3, #512	@ 0x200
 8003316:	ea43 2305 	orr.w	r3, r3, r5, lsl #8
 800331a:	4d0f      	ldr	r5, [pc, #60]	@ (8003358 <TIM_OC3_SetConfig+0x64>)
 800331c:	42a8      	cmp	r0, r5
 800331e:	d10e      	bne.n	800333e <TIM_OC3_SetConfig+0x4a>
 8003320:	68cd      	ldr	r5, [r1, #12]
 8003322:	f423 6300 	bic.w	r3, r3, #2048	@ 0x800
 8003326:	ea43 2305 	orr.w	r3, r3, r5, lsl #8
 800332a:	f423 6380 	bic.w	r3, r3, #1024	@ 0x400
 800332e:	e9d1 5605 	ldrd	r5, r6, [r1, #20]
 8003332:	f422 5240 	bic.w	r2, r2, #12288	@ 0x3000
 8003336:	4335      	orrs	r5, r6
 8003338:	ea42 1205 	orr.w	r2, r2, r5, lsl #4
 800333c:	e006      	b.n	800334c <TIM_OC3_SetConfig+0x58>
 800333e:	4d07      	ldr	r5, [pc, #28]	@ (800335c <TIM_OC3_SetConfig+0x68>)
 8003340:	42a8      	cmp	r0, r5
 8003342:	d0f4      	beq.n	800332e <TIM_OC3_SetConfig+0x3a>
 8003344:	f505 6580 	add.w	r5, r5, #1024	@ 0x400
 8003348:	42a8      	cmp	r0, r5
 800334a:	d0f0      	beq.n	800332e <TIM_OC3_SetConfig+0x3a>
 800334c:	6042      	str	r2, [r0, #4]
 800334e:	684a      	ldr	r2, [r1, #4]
 8003350:	61c4      	str	r4, [r0, #28]
 8003352:	63c2      	str	r2, [r0, #60]	@ 0x3c
 8003354:	6203      	str	r3, [r0, #32]
 8003356:	bd70      	pop	{r4, r5, r6, pc}
 8003358:	40012c00 	.word	0x40012c00
 800335c:	40014000 	.word	0x40014000

08003360 <TIM_OC4_SetConfig>:
 8003360:	6a02      	ldr	r2, [r0, #32]
 8003362:	6a03      	ldr	r3, [r0, #32]
 8003364:	f423 5380 	bic.w	r3, r3, #4096	@ 0x1000
 8003368:	b530      	push	{r4, r5, lr}
 800336a:	6203      	str	r3, [r0, #32]
 800336c:	6844      	ldr	r4, [r0, #4]
 800336e:	69c3      	ldr	r3, [r0, #28]
 8003370:	680d      	ldr	r5, [r1, #0]
 8003372:	f023 7380 	bic.w	r3, r3, #16777216	@ 0x1000000
 8003376:	f423 43e6 	bic.w	r3, r3, #29440	@ 0x7300
 800337a:	ea43 2305 	orr.w	r3, r3, r5, lsl #8
 800337e:	688d      	ldr	r5, [r1, #8]
 8003380:	f422 5200 	bic.w	r2, r2, #8192	@ 0x2000
 8003384:	ea42 3205 	orr.w	r2, r2, r5, lsl #12
 8003388:	4d0a      	ldr	r5, [pc, #40]	@ (80033b4 <TIM_OC4_SetConfig+0x54>)
 800338a:	42a8      	cmp	r0, r5
 800338c:	d007      	beq.n	800339e <TIM_OC4_SetConfig+0x3e>
 800338e:	f505 55a0 	add.w	r5, r5, #5120	@ 0x1400
 8003392:	42a8      	cmp	r0, r5
 8003394:	d003      	beq.n	800339e <TIM_OC4_SetConfig+0x3e>
 8003396:	f505 6580 	add.w	r5, r5, #1024	@ 0x400
 800339a:	42a8      	cmp	r0, r5
 800339c:	d104      	bne.n	80033a8 <TIM_OC4_SetConfig+0x48>
 800339e:	694d      	ldr	r5, [r1, #20]
 80033a0:	f424 4480 	bic.w	r4, r4, #16384	@ 0x4000
 80033a4:	ea44 1485 	orr.w	r4, r4, r5, lsl #6
 80033a8:	6044      	str	r4, [r0, #4]
 80033aa:	61c3      	str	r3, [r0, #28]
 80033ac:	684b      	ldr	r3, [r1, #4]
 80033ae:	6403      	str	r3, [r0, #64]	@ 0x40
 80033b0:	6202      	str	r2, [r0, #32]
 80033b2:	bd30      	pop	{r4, r5, pc}
 80033b4:	40012c00 	.word	0x40012c00

080033b8 <TIM_OC5_SetConfig>:
 80033b8:	6a02      	ldr	r2, [r0, #32]
 80033ba:	6a03      	ldr	r3, [r0, #32]
 80033bc:	f423 3380 	bic.w	r3, r3, #65536	@ 0x10000
 80033c0:	b530      	push	{r4, r5, lr}
 80033c2:	6203      	str	r3, [r0, #32]
 80033c4:	6844      	ldr	r4, [r0, #4]
 80033c6:	6d43      	ldr	r3, [r0, #84]	@ 0x54
 80033c8:	680d      	ldr	r5, [r1, #0]
 80033ca:	f423 3380 	bic.w	r3, r3, #65536	@ 0x10000
 80033ce:	f023 0370 	bic.w	r3, r3, #112	@ 0x70
 80033d2:	432b      	orrs	r3, r5
 80033d4:	688d      	ldr	r5, [r1, #8]
 80033d6:	f422 3200 	bic.w	r2, r2, #131072	@ 0x20000
 80033da:	ea42 4205 	orr.w	r2, r2, r5, lsl #16
 80033de:	4d0b      	ldr	r5, [pc, #44]	@ (800340c <TIM_OC5_SetConfig+0x54>)
 80033e0:	42a8      	cmp	r0, r5
 80033e2:	d007      	beq.n	80033f4 <TIM_OC5_SetConfig+0x3c>
 80033e4:	f505 55a0 	add.w	r5, r5, #5120	@ 0x1400
 80033e8:	42a8      	cmp	r0, r5
 80033ea:	d003      	beq.n	80033f4 <TIM_OC5_SetConfig+0x3c>
 80033ec:	f505 6580 	add.w	r5, r5, #1024	@ 0x400
 80033f0:	42a8      	cmp	r0, r5
 80033f2:	d104      	bne.n	80033fe <TIM_OC5_SetConfig+0x46>
 80033f4:	694d      	ldr	r5, [r1, #20]
 80033f6:	f424 3480 	bic.w	r4, r4, #65536	@ 0x10000
 80033fa:	ea44 2405 	orr.w	r4, r4, r5, lsl #8
 80033fe:	6044      	str	r4, [r0, #4]
 8003400:	6543      	str	r3, [r0, #84]	@ 0x54
 8003402:	684b      	ldr	r3, [r1, #4]
 8003404:	6583      	str	r3, [r0, #88]	@ 0x58
 8003406:	6202      	str	r2, [r0, #32]
 8003408:	bd30      	pop	{r4, r5, pc}
 800340a:	bf00      	nop
 800340c:	40012c00 	.word	0x40012c00

08003410 <TIM_OC6_SetConfig>:
 8003410:	6a02      	ldr	r2, [r0, #32]
 8003412:	6a03      	ldr	r3, [r0, #32]
 8003414:	f423 1380 	bic.w	r3, r3, #1048576	@ 0x100000
 8003418:	b530      	push	{r4, r5, lr}
 800341a:	6203      	str	r3, [r0, #32]
 800341c:	6844      	ldr	r4, [r0, #4]
 800341e:	6d43      	ldr	r3, [r0, #84]	@ 0x54
 8003420:	680d      	ldr	r5, [r1, #0]
 8003422:	f023 7380 	bic.w	r3, r3, #16777216	@ 0x1000000
 8003426:	f423 43e0 	bic.w	r3, r3, #28672	@ 0x7000
 800342a:	ea43 2305 	orr.w	r3, r3, r5, lsl #8
 800342e:	688d      	ldr	r5, [r1, #8]
 8003430:	f422 1200 	bic.w	r2, r2, #2097152	@ 0x200000
 8003434:	ea42 5205 	orr.w	r2, r2, r5, lsl #20
 8003438:	4d0a      	ldr	r5, [pc, #40]	@ (8003464 <TIM_OC6_SetConfig+0x54>)
 800343a:	42a8      	cmp	r0, r5
 800343c:	d007      	beq.n	800344e <TIM_OC6_SetConfig+0x3e>
 800343e:	f505 55a0 	add.w	r5, r5, #5120	@ 0x1400
 8003442:	42a8      	cmp	r0, r5
 8003444:	d003      	beq.n	800344e <TIM_OC6_SetConfig+0x3e>
 8003446:	f505 6580 	add.w	r5, r5, #1024	@ 0x400
 800344a:	42a8      	cmp	r0, r5
 800344c:	d104      	bne.n	8003458 <TIM_OC6_SetConfig+0x48>
 800344e:	694d      	ldr	r5, [r1, #20]
 8003450:	f424 2480 	bic.w	r4, r4, #262144	@ 0x40000
 8003454:	ea44 2485 	orr.w	r4, r4, r5, lsl #10
 8003458:	6044      	str	r4, [r0, #4]
 800345a:	6543      	str	r3, [r0, #84]	@ 0x54
 800345c:	684b      	ldr	r3, [r1, #4]
 800345e:	65c3      	str	r3, [r0, #92]	@ 0x5c
 8003460:	6202      	str	r2, [r0, #32]
 8003462:	bd30      	pop	{r4, r5, pc}
 8003464:	40012c00 	.word	0x40012c00

08003468 <HAL_TIM_Base_Start>:
 8003468:	f890 303d 	ldrb.w	r3, [r0, #61]	@ 0x3d
 800346c:	2b01      	cmp	r3, #1
 800346e:	d11b      	bne.n	80034a8 <HAL_TIM_Base_Start+0x40>
 8003470:	2302      	movs	r3, #2
 8003472:	4a0e      	ldr	r2, [pc, #56]	@ (80034ac <HAL_TIM_Base_Start+0x44>)
 8003474:	f880 303d 	strb.w	r3, [r0, #61]	@ 0x3d
 8003478:	6803      	ldr	r3, [r0, #0]
 800347a:	4293      	cmp	r3, r2
 800347c:	d006      	beq.n	800348c <HAL_TIM_Base_Start+0x24>
 800347e:	f1b3 4f80 	cmp.w	r3, #1073741824	@ 0x40000000
 8003482:	d003      	beq.n	800348c <HAL_TIM_Base_Start+0x24>
 8003484:	f502 52a0 	add.w	r2, r2, #5120	@ 0x1400
 8003488:	4293      	cmp	r3, r2
 800348a:	d107      	bne.n	800349c <HAL_TIM_Base_Start+0x34>
 800348c:	6899      	ldr	r1, [r3, #8]
 800348e:	4a08      	ldr	r2, [pc, #32]	@ (80034b0 <HAL_TIM_Base_Start+0x48>)
 8003490:	400a      	ands	r2, r1
 8003492:	2a06      	cmp	r2, #6
 8003494:	d006      	beq.n	80034a4 <HAL_TIM_Base_Start+0x3c>
 8003496:	f5b2 3f80 	cmp.w	r2, #65536	@ 0x10000
 800349a:	d003      	beq.n	80034a4 <HAL_TIM_Base_Start+0x3c>
 800349c:	681a      	ldr	r2, [r3, #0]
 800349e:	f042 0201 	orr.w	r2, r2, #1
 80034a2:	601a      	str	r2, [r3, #0]
 80034a4:	2000      	movs	r0, #0
 80034a6:	4770      	bx	lr
 80034a8:	2001      	movs	r0, #1
 80034aa:	4770      	bx	lr
 80034ac:	40012c00 	.word	0x40012c00
 80034b0:	00010007 	.word	0x00010007

080034b4 <HAL_TIM_Base_Stop>:
 80034b4:	6803      	ldr	r3, [r0, #0]
 80034b6:	6a19      	ldr	r1, [r3, #32]
 80034b8:	f241 1211 	movw	r2, #4369	@ 0x1111
 80034bc:	4211      	tst	r1, r2
 80034be:	d108      	bne.n	80034d2 <HAL_TIM_Base_Stop+0x1e>
 80034c0:	6a19      	ldr	r1, [r3, #32]
 80034c2:	f240 4244 	movw	r2, #1092	@ 0x444
 80034c6:	4211      	tst	r1, r2
 80034c8:	bf02      	ittt	eq
 80034ca:	681a      	ldreq	r2, [r3, #0]
 80034cc:	f022 0201 	biceq.w	r2, r2, #1
 80034d0:	601a      	streq	r2, [r3, #0]
 80034d2:	2301      	movs	r3, #1
 80034d4:	f880 303d 	strb.w	r3, [r0, #61]	@ 0x3d
 80034d8:	2000      	movs	r0, #0
 80034da:	4770      	bx	lr

080034dc <HAL_TIM_Base_Start_IT>:
 80034dc:	f890 303d 	ldrb.w	r3, [r0, #61]	@ 0x3d
 80034e0:	2b01      	cmp	r3, #1
 80034e2:	d11f      	bne.n	8003524 <HAL_TIM_Base_Start_IT+0x48>
 80034e4:	2302      	movs	r3, #2
 80034e6:	f880 303d 	strb.w	r3, [r0, #61]	@ 0x3d
 80034ea:	6803      	ldr	r3, [r0, #0]
 80034ec:	68da      	ldr	r2, [r3, #12]
 80034ee:	f042 0201 	orr.w	r2, r2, #1
 80034f2:	60da      	str	r2, [r3, #12]
 80034f4:	4a0c      	ldr	r2, [pc, #48]	@ (8003528 <HAL_TIM_Base_Start_IT+0x4c>)
 80034f6:	4293      	cmp	r3, r2
 80034f8:	d006      	beq.n	8003508 <HAL_TIM_Base_Start_IT+0x2c>
 80034fa:	f1b3 4f80 	cmp.w	r3, #1073741824	@ 0x40000000
 80034fe:	d003      	beq.n	8003508 <HAL_TIM_Base_Start_IT+0x2c>
 8003500:	f502 52a0 	add.w	r2, r2, #5120	@ 0x1400
 8003504:	4293      	cmp	r3, r2
 8003506:	d107      	bne.n	8003518 <HAL_TIM_Base_Start_IT+0x3c>
 8003508:	6899      	ldr	r1, [r3, #8]
 800350a:	4a08      	ldr	r2, [pc, #32]	@ (800352c <HAL_TIM_Base_Start_IT+0x50>)
 800350c:	400a      	ands	r2, r1
 800350e:	2a06      	cmp	r2, #6
 8003510:	d006      	beq.n	8003520 <HAL_TIM_Base_Start_IT+0x44>
 8003512:	f5b2 3f80 	cmp.w	r2, #65536	@ 0x10000
 8003516:	d003      	beq.n	8003520 <HAL_TIM_Base_Start_IT+0x44>
 8003518:	681a      	ldr	r2, [r3, #0]
 800351a:	f042 0201 	orr.w	r2, r2, #1
 800351e:	601a      	str	r2, [r3, #0]
 8003520:	2000      	movs	r0, #0
 8003522:	4770      	bx	lr
 8003524:	2001      	movs	r0, #1
 8003526:	4770      	bx	lr
 8003528:	40012c00 	.word	0x40012c00
 800352c:	00010007 	.word	0x00010007

08003530 <HAL_TIM_Base_Stop_IT>:
 8003530:	6803      	ldr	r3, [r0, #0]
 8003532:	68da      	ldr	r2, [r3, #12]
 8003534:	f022 0201 	bic.w	r2, r2, #1
 8003538:	60da      	str	r2, [r3, #12]
 800353a:	6a19      	ldr	r1, [r3, #32]
 800353c:	f241 1211 	movw	r2, #4369	@ 0x1111
 8003540:	4211      	tst	r1, r2
 8003542:	d108      	bne.n	8003556 <HAL_TIM_Base_Stop_IT+0x26>
 8003544:	6a19      	ldr	r1, [r3, #32]
 8003546:	f240 4244 	movw	r2, #1092	@ 0x444
 800354a:	4211      	tst	r1, r2
 800354c:	bf02      	ittt	eq
 800354e:	681a      	ldreq	r2, [r3, #0]
 8003550:	f022 0201 	biceq.w	r2, r2, #1
 8003554:	601a      	streq	r2, [r3, #0]
 8003556:	2301      	movs	r3, #1
 8003558:	f880 303d 	strb.w	r3, [r0, #61]	@ 0x3d
 800355c:	2000      	movs	r0, #0
 800355e:	4770      	bx	lr

08003560 <HAL_TIM_PWM_MspInit>:
 8003560:	4770      	bx	lr

08003562 <HAL_TIM_OC_DelayElapsedCallback>:
 8003562:	4770      	bx	lr

08003564 <HAL_TIM_IC_CaptureCallback>:
 8003564:	4770      	bx	lr

08003566 <HAL_TIM_TriggerCallback>:
 8003566:	4770      	bx	lr

08003568 <HAL_TIM_IRQHandler>:
 8003568:	6803      	ldr	r3, [r0, #0]
 800356a:	b570      	push	{r4, r5, r6, lr}
 800356c:	68dd      	ldr	r5, [r3, #12]
 800356e:	691e      	ldr	r6, [r3, #16]
 8003570:	07b2      	lsls	r2, r6, #30
 8003572:	4604      	mov	r4, r0
 8003574:	d50d      	bpl.n	8003592 <HAL_TIM_IRQHandler+0x2a>
 8003576:	07a9      	lsls	r1, r5, #30
 8003578:	d50b      	bpl.n	8003592 <HAL_TIM_IRQHandler+0x2a>
 800357a:	f06f 0202 	mvn.w	r2, #2
 800357e:	611a      	str	r2, [r3, #16]
 8003580:	2201      	movs	r2, #1
 8003582:	7702      	strb	r2, [r0, #28]
 8003584:	699b      	ldr	r3, [r3, #24]
 8003586:	079a      	lsls	r2, r3, #30
 8003588:	d075      	beq.n	8003676 <HAL_TIM_IRQHandler+0x10e>
 800358a:	f7ff ffeb 	bl	8003564 <HAL_TIM_IC_CaptureCallback>
 800358e:	2300      	movs	r3, #0
 8003590:	7723      	strb	r3, [r4, #28]
 8003592:	0773      	lsls	r3, r6, #29
 8003594:	d510      	bpl.n	80035b8 <HAL_TIM_IRQHandler+0x50>
 8003596:	0768      	lsls	r0, r5, #29
 8003598:	d50e      	bpl.n	80035b8 <HAL_TIM_IRQHandler+0x50>
 800359a:	6823      	ldr	r3, [r4, #0]
 800359c:	f06f 0204 	mvn.w	r2, #4
 80035a0:	611a      	str	r2, [r3, #16]
 80035a2:	2202      	movs	r2, #2
 80035a4:	7722      	strb	r2, [r4, #28]
 80035a6:	699b      	ldr	r3, [r3, #24]
 80035a8:	f413 7f40 	tst.w	r3, #768	@ 0x300
 80035ac:	4620      	mov	r0, r4
 80035ae:	d068      	beq.n	8003682 <HAL_TIM_IRQHandler+0x11a>
 80035b0:	f7ff ffd8 	bl	8003564 <HAL_TIM_IC_CaptureCallback>
 80035b4:	2300      	movs	r3, #0
 80035b6:	7723      	strb	r3, [r4, #28]
 80035b8:	0731      	lsls	r1, r6, #28
 80035ba:	d50f      	bpl.n	80035dc <HAL_TIM_IRQHandler+0x74>
 80035bc:	072a      	lsls	r2, r5, #28
 80035be:	d50d      	bpl.n	80035dc <HAL_TIM_IRQHandler+0x74>
 80035c0:	6823      	ldr	r3, [r4, #0]
 80035c2:	f06f 0208 	mvn.w	r2, #8
 80035c6:	611a      	str	r2, [r3, #16]
 80035c8:	2204      	movs	r2, #4
 80035ca:	7722      	strb	r2, [r4, #28]
 80035cc:	69db      	ldr	r3, [r3, #28]
 80035ce:	079b      	lsls	r3, r3, #30
 80035d0:	4620      	mov	r0, r4
 80035d2:	d05c      	beq.n	800368e <HAL_TIM_IRQHandler+0x126>
 80035d4:	f7ff ffc6 	bl	8003564 <HAL_TIM_IC_CaptureCallback>
 80035d8:	2300      	movs	r3, #0
 80035da:	7723      	strb	r3, [r4, #28]
 80035dc:	06f1      	lsls	r1, r6, #27
 80035de:	d510      	bpl.n	8003602 <HAL_TIM_IRQHandler+0x9a>
 80035e0:	06ea      	lsls	r2, r5, #27
 80035e2:	d50e      	bpl.n	8003602 <HAL_TIM_IRQHandler+0x9a>
 80035e4:	6823      	ldr	r3, [r4, #0]
 80035e6:	f06f 0210 	mvn.w	r2, #16
 80035ea:	611a      	str	r2, [r3, #16]
 80035ec:	2208      	movs	r2, #8
 80035ee:	7722      	strb	r2, [r4, #28]
 80035f0:	69db      	ldr	r3, [r3, #28]
 80035f2:	f413 7f40 	tst.w	r3, #768	@ 0x300
 80035f6:	4620      	mov	r0, r4
 80035f8:	d04f      	beq.n	800369a <HAL_TIM_IRQHandler+0x132>
 80035fa:	f7ff ffb3 	bl	8003564 <HAL_TIM_IC_CaptureCallback>
 80035fe:	2300      	movs	r3, #0
 8003600:	7723      	strb	r3, [r4, #28]
 8003602:	07f3      	lsls	r3, r6, #31
 8003604:	d508      	bpl.n	8003618 <HAL_TIM_IRQHandler+0xb0>
 8003606:	07e8      	lsls	r0, r5, #31
 8003608:	d506      	bpl.n	8003618 <HAL_TIM_IRQHandler+0xb0>
 800360a:	6823      	ldr	r3, [r4, #0]
 800360c:	f06f 0201 	mvn.w	r2, #1
 8003610:	611a      	str	r2, [r3, #16]
 8003612:	4620      	mov	r0, r4
 8003614:	f7fe fc20 	bl	8001e58 <HAL_TIM_PeriodElapsedCallback>
 8003618:	f416 5f02 	tst.w	r6, #8320	@ 0x2080
 800361c:	d008      	beq.n	8003630 <HAL_TIM_IRQHandler+0xc8>
 800361e:	0629      	lsls	r1, r5, #24
 8003620:	d506      	bpl.n	8003630 <HAL_TIM_IRQHandler+0xc8>
 8003622:	6823      	ldr	r3, [r4, #0]
 8003624:	f46f 5202 	mvn.w	r2, #8320	@ 0x2080
 8003628:	611a      	str	r2, [r3, #16]
 800362a:	4620      	mov	r0, r4
 800362c:	f000 fbfd 	bl	8003e2a <HAL_TIMEx_BreakCallback>
 8003630:	05f2      	lsls	r2, r6, #23
 8003632:	d508      	bpl.n	8003646 <HAL_TIM_IRQHandler+0xde>
 8003634:	062b      	lsls	r3, r5, #24
 8003636:	d506      	bpl.n	8003646 <HAL_TIM_IRQHandler+0xde>
 8003638:	6823      	ldr	r3, [r4, #0]
 800363a:	f46f 7280 	mvn.w	r2, #256	@ 0x100
 800363e:	611a      	str	r2, [r3, #16]
 8003640:	4620      	mov	r0, r4
 8003642:	f000 fbf3 	bl	8003e2c <HAL_TIMEx_Break2Callback>
 8003646:	0670      	lsls	r0, r6, #25
 8003648:	d508      	bpl.n	800365c <HAL_TIM_IRQHandler+0xf4>
 800364a:	0669      	lsls	r1, r5, #25
 800364c:	d506      	bpl.n	800365c <HAL_TIM_IRQHandler+0xf4>
 800364e:	6823      	ldr	r3, [r4, #0]
 8003650:	f06f 0240 	mvn.w	r2, #64	@ 0x40
 8003654:	611a      	str	r2, [r3, #16]
 8003656:	4620      	mov	r0, r4
 8003658:	f7ff ff85 	bl	8003566 <HAL_TIM_TriggerCallback>
 800365c:	06b2      	lsls	r2, r6, #26
 800365e:	d522      	bpl.n	80036a6 <HAL_TIM_IRQHandler+0x13e>
 8003660:	06ab      	lsls	r3, r5, #26
 8003662:	d520      	bpl.n	80036a6 <HAL_TIM_IRQHandler+0x13e>
 8003664:	6823      	ldr	r3, [r4, #0]
 8003666:	f06f 0220 	mvn.w	r2, #32
 800366a:	4620      	mov	r0, r4
 800366c:	611a      	str	r2, [r3, #16]
 800366e:	e8bd 4070 	ldmia.w	sp!, {r4, r5, r6, lr}
 8003672:	f000 bbd9 	b.w	8003e28 <HAL_TIMEx_CommutCallback>
 8003676:	f7ff ff74 	bl	8003562 <HAL_TIM_OC_DelayElapsedCallback>
 800367a:	4620      	mov	r0, r4
 800367c:	f7fe fc26 	bl	8001ecc <HAL_TIM_PWM_PulseFinishedCallback>
 8003680:	e785      	b.n	800358e <HAL_TIM_IRQHandler+0x26>
 8003682:	f7ff ff6e 	bl	8003562 <HAL_TIM_OC_DelayElapsedCallback>
 8003686:	4620      	mov	r0, r4
 8003688:	f7fe fc20 	bl	8001ecc <HAL_TIM_PWM_PulseFinishedCallback>
 800368c:	e792      	b.n	80035b4 <HAL_TIM_IRQHandler+0x4c>
 800368e:	f7ff ff68 	bl	8003562 <HAL_TIM_OC_DelayElapsedCallback>
 8003692:	4620      	mov	r0, r4
 8003694:	f7fe fc1a 	bl	8001ecc <HAL_TIM_PWM_PulseFinishedCallback>
 8003698:	e79e      	b.n	80035d8 <HAL_TIM_IRQHandler+0x70>
 800369a:	f7ff ff62 	bl	8003562 <HAL_TIM_OC_DelayElapsedCallback>
 800369e:	4620      	mov	r0, r4
 80036a0:	f7fe fc14 	bl	8001ecc <HAL_TIM_PWM_PulseFinishedCallback>
 80036a4:	e7ab      	b.n	80035fe <HAL_TIM_IRQHandler+0x96>
 80036a6:	bd70      	pop	{r4, r5, r6, pc}

080036a8 <TIM_Base_SetConfig>:
 80036a8:	4a1b      	ldr	r2, [pc, #108]	@ (8003718 <TIM_Base_SetConfig+0x70>)
 80036aa:	6803      	ldr	r3, [r0, #0]
 80036ac:	4290      	cmp	r0, r2
 80036ae:	d00b      	beq.n	80036c8 <TIM_Base_SetConfig+0x20>
 80036b0:	f1b0 4f80 	cmp.w	r0, #1073741824	@ 0x40000000
 80036b4:	d008      	beq.n	80036c8 <TIM_Base_SetConfig+0x20>
 80036b6:	f502 52a0 	add.w	r2, r2, #5120	@ 0x1400
 80036ba:	4290      	cmp	r0, r2
 80036bc:	d109      	bne.n	80036d2 <TIM_Base_SetConfig+0x2a>
 80036be:	68ca      	ldr	r2, [r1, #12]
 80036c0:	f423 7340 	bic.w	r3, r3, #768	@ 0x300
 80036c4:	4313      	orrs	r3, r2
 80036c6:	e007      	b.n	80036d8 <TIM_Base_SetConfig+0x30>
 80036c8:	684a      	ldr	r2, [r1, #4]
 80036ca:	f023 0370 	bic.w	r3, r3, #112	@ 0x70
 80036ce:	4313      	orrs	r3, r2
 80036d0:	e7f5      	b.n	80036be <TIM_Base_SetConfig+0x16>
 80036d2:	4a12      	ldr	r2, [pc, #72]	@ (800371c <TIM_Base_SetConfig+0x74>)
 80036d4:	4290      	cmp	r0, r2
 80036d6:	d0f2      	beq.n	80036be <TIM_Base_SetConfig+0x16>
 80036d8:	694a      	ldr	r2, [r1, #20]
 80036da:	f023 0380 	bic.w	r3, r3, #128	@ 0x80
 80036de:	4313      	orrs	r3, r2
 80036e0:	6003      	str	r3, [r0, #0]
 80036e2:	688b      	ldr	r3, [r1, #8]
 80036e4:	62c3      	str	r3, [r0, #44]	@ 0x2c
 80036e6:	680b      	ldr	r3, [r1, #0]
 80036e8:	6283      	str	r3, [r0, #40]	@ 0x28
 80036ea:	4b0b      	ldr	r3, [pc, #44]	@ (8003718 <TIM_Base_SetConfig+0x70>)
 80036ec:	4298      	cmp	r0, r3
 80036ee:	d007      	beq.n	8003700 <TIM_Base_SetConfig+0x58>
 80036f0:	f503 53a0 	add.w	r3, r3, #5120	@ 0x1400
 80036f4:	4298      	cmp	r0, r3
 80036f6:	d003      	beq.n	8003700 <TIM_Base_SetConfig+0x58>
 80036f8:	f503 6380 	add.w	r3, r3, #1024	@ 0x400
 80036fc:	4298      	cmp	r0, r3
 80036fe:	d101      	bne.n	8003704 <TIM_Base_SetConfig+0x5c>
 8003700:	690b      	ldr	r3, [r1, #16]
 8003702:	6303      	str	r3, [r0, #48]	@ 0x30
 8003704:	2301      	movs	r3, #1
 8003706:	6143      	str	r3, [r0, #20]
 8003708:	6903      	ldr	r3, [r0, #16]
 800370a:	07db      	lsls	r3, r3, #31
 800370c:	bf42      	ittt	mi
 800370e:	6903      	ldrmi	r3, [r0, #16]
 8003710:	f023 0301 	bicmi.w	r3, r3, #1
 8003714:	6103      	strmi	r3, [r0, #16]
 8003716:	4770      	bx	lr
 8003718:	40012c00 	.word	0x40012c00
 800371c:	40014400 	.word	0x40014400

08003720 <HAL_TIM_Base_Init>:
 8003720:	b510      	push	{r4, lr}
 8003722:	4604      	mov	r4, r0
 8003724:	b350      	cbz	r0, 800377c <HAL_TIM_Base_Init+0x5c>
 8003726:	f890 303d 	ldrb.w	r3, [r0, #61]	@ 0x3d
 800372a:	f003 02ff 	and.w	r2, r3, #255	@ 0xff
 800372e:	b91b      	cbnz	r3, 8003738 <HAL_TIM_Base_Init+0x18>
 8003730:	f880 203c 	strb.w	r2, [r0, #60]	@ 0x3c
 8003734:	f7fe f9d4 	bl	8001ae0 <HAL_TIM_Base_MspInit>
 8003738:	2302      	movs	r3, #2
 800373a:	6820      	ldr	r0, [r4, #0]
 800373c:	f884 303d 	strb.w	r3, [r4, #61]	@ 0x3d
 8003740:	1d21      	adds	r1, r4, #4
 8003742:	f7ff ffb1 	bl	80036a8 <TIM_Base_SetConfig>
 8003746:	2301      	movs	r3, #1
 8003748:	f884 3048 	strb.w	r3, [r4, #72]	@ 0x48
 800374c:	2000      	movs	r0, #0
 800374e:	f884 303e 	strb.w	r3, [r4, #62]	@ 0x3e
 8003752:	f884 303f 	strb.w	r3, [r4, #63]	@ 0x3f
 8003756:	f884 3040 	strb.w	r3, [r4, #64]	@ 0x40
 800375a:	f884 3041 	strb.w	r3, [r4, #65]	@ 0x41
 800375e:	f884 3042 	strb.w	r3, [r4, #66]	@ 0x42
 8003762:	f884 3043 	strb.w	r3, [r4, #67]	@ 0x43
 8003766:	f884 3044 	strb.w	r3, [r4, #68]	@ 0x44
 800376a:	f884 3045 	strb.w	r3, [r4, #69]	@ 0x45
 800376e:	f884 3046 	strb.w	r3, [r4, #70]	@ 0x46
 8003772:	f884 3047 	strb.w	r3, [r4, #71]	@ 0x47
 8003776:	f884 303d 	strb.w	r3, [r4, #61]	@ 0x3d
 800377a:	bd10      	pop	{r4, pc}
 800377c:	2001      	movs	r0, #1
 800377e:	e7fc      	b.n	800377a <HAL_TIM_Base_Init+0x5a>

08003780 <HAL_TIM_PWM_Init>:
 8003780:	b510      	push	{r4, lr}
 8003782:	4604      	mov	r4, r0
 8003784:	b350      	cbz	r0, 80037dc <HAL_TIM_PWM_Init+0x5c>
 8003786:	f890 303d 	ldrb.w	r3, [r0, #61]	@ 0x3d
 800378a:	f003 02ff 	and.w	r2, r3, #255	@ 0xff
 800378e:	b91b      	cbnz	r3, 8003798 <HAL_TIM_PWM_Init+0x18>
 8003790:	f880 203c 	strb.w	r2, [r0, #60]	@ 0x3c
 8003794:	f7ff fee4 	bl	8003560 <HAL_TIM_PWM_MspInit>
 8003798:	2302      	movs	r3, #2
 800379a:	6820      	ldr	r0, [r4, #0]
 800379c:	f884 303d 	strb.w	r3, [r4, #61]	@ 0x3d
 80037a0:	1d21      	adds	r1, r4, #4
 80037a2:	f7ff ff81 	bl	80036a8 <TIM_Base_SetConfig>
 80037a6:	2301      	movs	r3, #1
 80037a8:	f884 3048 	strb.w	r3, [r4, #72]	@ 0x48
 80037ac:	2000      	movs	r0, #0
 80037ae:	f884 303e 	strb.w	r3, [r4, #62]	@ 0x3e
 80037b2:	f884 303f 	strb.w	r3, [r4, #63]	@ 0x3f
 80037b6:	f884 3040 	strb.w	r3, [r4, #64]	@ 0x40
 80037ba:	f884 3041 	strb.w	r3, [r4, #65]	@ 0x41
 80037be:	f884 3042 	strb.w	r3, [r4, #66]	@ 0x42
 80037c2:	f884 3043 	strb.w	r3, [r4, #67]	@ 0x43
 80037c6:	f884 3044 	strb.w	r3, [r4, #68]	@ 0x44
 80037ca:	f884 3045 	strb.w	r3, [r4, #69]	@ 0x45
 80037ce:	f884 3046 	strb.w	r3, [r4, #70]	@ 0x46
 80037d2:	f884 3047 	strb.w	r3, [r4, #71]	@ 0x47
 80037d6:	f884 303d 	strb.w	r3, [r4, #61]	@ 0x3d
 80037da:	bd10      	pop	{r4, pc}
 80037dc:	2001      	movs	r0, #1
 80037de:	e7fc      	b.n	80037da <HAL_TIM_PWM_Init+0x5a>

080037e0 <TIM_OC2_SetConfig>:
 80037e0:	6a03      	ldr	r3, [r0, #32]
 80037e2:	6a02      	ldr	r2, [r0, #32]
 80037e4:	f022 0210 	bic.w	r2, r2, #16
 80037e8:	b570      	push	{r4, r5, r6, lr}
 80037ea:	6202      	str	r2, [r0, #32]
 80037ec:	6842      	ldr	r2, [r0, #4]
 80037ee:	6984      	ldr	r4, [r0, #24]
 80037f0:	680d      	ldr	r5, [r1, #0]
 80037f2:	f024 7480 	bic.w	r4, r4, #16777216	@ 0x1000000
 80037f6:	f424 44e6 	bic.w	r4, r4, #29440	@ 0x7300
 80037fa:	ea44 2405 	orr.w	r4, r4, r5, lsl #8
 80037fe:	688d      	ldr	r5, [r1, #8]
 8003800:	f023 0320 	bic.w	r3, r3, #32
 8003804:	ea43 1305 	orr.w	r3, r3, r5, lsl #4
 8003808:	4d0f      	ldr	r5, [pc, #60]	@ (8003848 <TIM_OC2_SetConfig+0x68>)
 800380a:	42a8      	cmp	r0, r5
 800380c:	d10e      	bne.n	800382c <TIM_OC2_SetConfig+0x4c>
 800380e:	68cd      	ldr	r5, [r1, #12]
 8003810:	f023 0380 	bic.w	r3, r3, #128	@ 0x80
 8003814:	ea43 1305 	orr.w	r3, r3, r5, lsl #4
 8003818:	f023 0340 	bic.w	r3, r3, #64	@ 0x40
 800381c:	e9d1 5605 	ldrd	r5, r6, [r1, #20]
 8003820:	f422 6240 	bic.w	r2, r2, #3072	@ 0xc00
 8003824:	4335      	orrs	r5, r6
 8003826:	ea42 0285 	orr.w	r2, r2, r5, lsl #2
 800382a:	e006      	b.n	800383a <TIM_OC2_SetConfig+0x5a>
 800382c:	4d07      	ldr	r5, [pc, #28]	@ (800384c <TIM_OC2_SetConfig+0x6c>)
 800382e:	42a8      	cmp	r0, r5
 8003830:	d0f4      	beq.n	800381c <TIM_OC2_SetConfig+0x3c>
 8003832:	f505 6580 	add.w	r5, r5, #1024	@ 0x400
 8003836:	42a8      	cmp	r0, r5
 8003838:	d0f0      	beq.n	800381c <TIM_OC2_SetConfig+0x3c>
 800383a:	6042      	str	r2, [r0, #4]
 800383c:	684a      	ldr	r2, [r1, #4]
 800383e:	6184      	str	r4, [r0, #24]
 8003840:	6382      	str	r2, [r0, #56]	@ 0x38
 8003842:	6203      	str	r3, [r0, #32]
 8003844:	bd70      	pop	{r4, r5, r6, pc}
 8003846:	bf00      	nop
 8003848:	40012c00 	.word	0x40012c00
 800384c:	40014000 	.word	0x40014000

08003850 <HAL_TIM_PWM_ConfigChannel>:
 8003850:	b538      	push	{r3, r4, r5, lr}
 8003852:	f890 303c 	ldrb.w	r3, [r0, #60]	@ 0x3c
 8003856:	2b01      	cmp	r3, #1
 8003858:	4604      	mov	r4, r0
 800385a:	d073      	beq.n	8003944 <HAL_TIM_PWM_ConfigChannel+0xf4>
 800385c:	2001      	movs	r0, #1
 800385e:	2a0c      	cmp	r2, #12
 8003860:	f884 003c 	strb.w	r0, [r4, #60]	@ 0x3c
 8003864:	d04e      	beq.n	8003904 <HAL_TIM_PWM_ConfigChannel+0xb4>
 8003866:	d808      	bhi.n	800387a <HAL_TIM_PWM_ConfigChannel+0x2a>
 8003868:	2a04      	cmp	r2, #4
 800386a:	d02b      	beq.n	80038c4 <HAL_TIM_PWM_ConfigChannel+0x74>
 800386c:	2a08      	cmp	r2, #8
 800386e:	d039      	beq.n	80038e4 <HAL_TIM_PWM_ConfigChannel+0x94>
 8003870:	b1ba      	cbz	r2, 80038a2 <HAL_TIM_PWM_ConfigChannel+0x52>
 8003872:	2300      	movs	r3, #0
 8003874:	f884 303c 	strb.w	r3, [r4, #60]	@ 0x3c
 8003878:	bd38      	pop	{r3, r4, r5, pc}
 800387a:	2a10      	cmp	r2, #16
 800387c:	d052      	beq.n	8003924 <HAL_TIM_PWM_ConfigChannel+0xd4>
 800387e:	2a14      	cmp	r2, #20
 8003880:	d1f7      	bne.n	8003872 <HAL_TIM_PWM_ConfigChannel+0x22>
 8003882:	6820      	ldr	r0, [r4, #0]
 8003884:	f7ff fdc4 	bl	8003410 <TIM_OC6_SetConfig>
 8003888:	6d43      	ldr	r3, [r0, #84]	@ 0x54
 800388a:	690a      	ldr	r2, [r1, #16]
 800388c:	f443 6300 	orr.w	r3, r3, #2048	@ 0x800
 8003890:	6543      	str	r3, [r0, #84]	@ 0x54
 8003892:	6d43      	ldr	r3, [r0, #84]	@ 0x54
 8003894:	f423 6380 	bic.w	r3, r3, #1024	@ 0x400
 8003898:	6543      	str	r3, [r0, #84]	@ 0x54
 800389a:	6d43      	ldr	r3, [r0, #84]	@ 0x54
 800389c:	ea43 2302 	orr.w	r3, r3, r2, lsl #8
 80038a0:	e04e      	b.n	8003940 <HAL_TIM_PWM_ConfigChannel+0xf0>
 80038a2:	6820      	ldr	r0, [r4, #0]
 80038a4:	f7ff fcf4 	bl	8003290 <TIM_OC1_SetConfig>
 80038a8:	6983      	ldr	r3, [r0, #24]
 80038aa:	690a      	ldr	r2, [r1, #16]
 80038ac:	f043 0308 	orr.w	r3, r3, #8
 80038b0:	6183      	str	r3, [r0, #24]
 80038b2:	6983      	ldr	r3, [r0, #24]
 80038b4:	f023 0304 	bic.w	r3, r3, #4
 80038b8:	6183      	str	r3, [r0, #24]
 80038ba:	6983      	ldr	r3, [r0, #24]
 80038bc:	4313      	orrs	r3, r2
 80038be:	6183      	str	r3, [r0, #24]
 80038c0:	2000      	movs	r0, #0
 80038c2:	e7d6      	b.n	8003872 <HAL_TIM_PWM_ConfigChannel+0x22>
 80038c4:	6820      	ldr	r0, [r4, #0]
 80038c6:	f7ff ff8b 	bl	80037e0 <TIM_OC2_SetConfig>
 80038ca:	6983      	ldr	r3, [r0, #24]
 80038cc:	690a      	ldr	r2, [r1, #16]
 80038ce:	f443 6300 	orr.w	r3, r3, #2048	@ 0x800
 80038d2:	6183      	str	r3, [r0, #24]
 80038d4:	6983      	ldr	r3, [r0, #24]
 80038d6:	f423 6380 	bic.w	r3, r3, #1024	@ 0x400
 80038da:	6183      	str	r3, [r0, #24]
 80038dc:	6983      	ldr	r3, [r0, #24]
 80038de:	ea43 2302 	orr.w	r3, r3, r2, lsl #8
 80038e2:	e7ec      	b.n	80038be <HAL_TIM_PWM_ConfigChannel+0x6e>
 80038e4:	6820      	ldr	r0, [r4, #0]
 80038e6:	f7ff fd05 	bl	80032f4 <TIM_OC3_SetConfig>
 80038ea:	69c3      	ldr	r3, [r0, #28]
 80038ec:	690a      	ldr	r2, [r1, #16]
 80038ee:	f043 0308 	orr.w	r3, r3, #8
 80038f2:	61c3      	str	r3, [r0, #28]
 80038f4:	69c3      	ldr	r3, [r0, #28]
 80038f6:	f023 0304 	bic.w	r3, r3, #4
 80038fa:	61c3      	str	r3, [r0, #28]
 80038fc:	69c3      	ldr	r3, [r0, #28]
 80038fe:	4313      	orrs	r3, r2
 8003900:	61c3      	str	r3, [r0, #28]
 8003902:	e7dd      	b.n	80038c0 <HAL_TIM_PWM_ConfigChannel+0x70>
 8003904:	6820      	ldr	r0, [r4, #0]
 8003906:	f7ff fd2b 	bl	8003360 <TIM_OC4_SetConfig>
 800390a:	69c3      	ldr	r3, [r0, #28]
 800390c:	690a      	ldr	r2, [r1, #16]
 800390e:	f443 6300 	orr.w	r3, r3, #2048	@ 0x800
 8003912:	61c3      	str	r3, [r0, #28]
 8003914:	69c3      	ldr	r3, [r0, #28]
 8003916:	f423 6380 	bic.w	r3, r3, #1024	@ 0x400
 800391a:	61c3      	str	r3, [r0, #28]
 800391c:	69c3      	ldr	r3, [r0, #28]
 800391e:	ea43 2302 	orr.w	r3, r3, r2, lsl #8
 8003922:	e7ed      	b.n	8003900 <HAL_TIM_PWM_ConfigChannel+0xb0>
 8003924:	6820      	ldr	r0, [r4, #0]
 8003926:	f7ff fd47 	bl	80033b8 <TIM_OC5_SetConfig>
 800392a:	6d43      	ldr	r3, [r0, #84]	@ 0x54
 800392c:	690a      	ldr	r2, [r1, #16]
 800392e:	f043 0308 	orr.w	r3, r3, #8
 8003932:	6543      	str	r3, [r0, #84]	@ 0x54
 8003934:	6d43      	ldr	r3, [r0, #84]	@ 0x54
 8003936:	f023 0304 	bic.w	r3, r3, #4
 800393a:	6543      	str	r3, [r0, #84]	@ 0x54
 800393c:	6d43      	ldr	r3, [r0, #84]	@ 0x54
 800393e:	4313      	orrs	r3, r2
 8003940:	6543      	str	r3, [r0, #84]	@ 0x54
 8003942:	e7bd      	b.n	80038c0 <HAL_TIM_PWM_ConfigChannel+0x70>
 8003944:	2002      	movs	r0, #2
 8003946:	e797      	b.n	8003878 <HAL_TIM_PWM_ConfigChannel+0x28>

08003948 <TIM_ETR_SetConfig>:
 8003948:	b510      	push	{r4, lr}
 800394a:	6884      	ldr	r4, [r0, #8]
 800394c:	430a      	orrs	r2, r1
 800394e:	f424 447f 	bic.w	r4, r4, #65280	@ 0xff00
 8003952:	ea42 2203 	orr.w	r2, r2, r3, lsl #8
 8003956:	4322      	orrs	r2, r4
 8003958:	6082      	str	r2, [r0, #8]
 800395a:	bd10      	pop	{r4, pc}

0800395c <HAL_TIM_ConfigClockSource>:
 800395c:	b538      	push	{r3, r4, r5, lr}
 800395e:	f890 303c 	ldrb.w	r3, [r0, #60]	@ 0x3c
 8003962:	2b01      	cmp	r3, #1
 8003964:	4604      	mov	r4, r0
 8003966:	f04f 0002 	mov.w	r0, #2
 800396a:	f000 808c 	beq.w	8003a86 <HAL_TIM_ConfigClockSource+0x12a>
 800396e:	f884 003d 	strb.w	r0, [r4, #61]	@ 0x3d
 8003972:	2201      	movs	r2, #1
 8003974:	6820      	ldr	r0, [r4, #0]
 8003976:	f884 203c 	strb.w	r2, [r4, #60]	@ 0x3c
 800397a:	6885      	ldr	r5, [r0, #8]
 800397c:	4b43      	ldr	r3, [pc, #268]	@ (8003a8c <HAL_TIM_ConfigClockSource+0x130>)
 800397e:	402b      	ands	r3, r5
 8003980:	6083      	str	r3, [r0, #8]
 8003982:	680b      	ldr	r3, [r1, #0]
 8003984:	2b60      	cmp	r3, #96	@ 0x60
 8003986:	d04f      	beq.n	8003a28 <HAL_TIM_ConfigClockSource+0xcc>
 8003988:	d832      	bhi.n	80039f0 <HAL_TIM_ConfigClockSource+0x94>
 800398a:	2b40      	cmp	r3, #64	@ 0x40
 800398c:	d064      	beq.n	8003a58 <HAL_TIM_ConfigClockSource+0xfc>
 800398e:	d816      	bhi.n	80039be <HAL_TIM_ConfigClockSource+0x62>
 8003990:	2b20      	cmp	r3, #32
 8003992:	d00d      	beq.n	80039b0 <HAL_TIM_ConfigClockSource+0x54>
 8003994:	d80a      	bhi.n	80039ac <HAL_TIM_ConfigClockSource+0x50>
 8003996:	f033 0110 	bics.w	r1, r3, #16
 800399a:	d009      	beq.n	80039b0 <HAL_TIM_ConfigClockSource+0x54>
 800399c:	2301      	movs	r3, #1
 800399e:	f884 303d 	strb.w	r3, [r4, #61]	@ 0x3d
 80039a2:	2300      	movs	r3, #0
 80039a4:	f884 303c 	strb.w	r3, [r4, #60]	@ 0x3c
 80039a8:	4610      	mov	r0, r2
 80039aa:	bd38      	pop	{r3, r4, r5, pc}
 80039ac:	2b30      	cmp	r3, #48	@ 0x30
 80039ae:	d1f5      	bne.n	800399c <HAL_TIM_ConfigClockSource+0x40>
 80039b0:	6882      	ldr	r2, [r0, #8]
 80039b2:	f022 0270 	bic.w	r2, r2, #112	@ 0x70
 80039b6:	4313      	orrs	r3, r2
 80039b8:	f043 0307 	orr.w	r3, r3, #7
 80039bc:	e028      	b.n	8003a10 <HAL_TIM_ConfigClockSource+0xb4>
 80039be:	2b50      	cmp	r3, #80	@ 0x50
 80039c0:	d1ec      	bne.n	800399c <HAL_TIM_ConfigClockSource+0x40>
 80039c2:	684a      	ldr	r2, [r1, #4]
 80039c4:	68cd      	ldr	r5, [r1, #12]
 80039c6:	6a01      	ldr	r1, [r0, #32]
 80039c8:	6a03      	ldr	r3, [r0, #32]
 80039ca:	f023 0301 	bic.w	r3, r3, #1
 80039ce:	6203      	str	r3, [r0, #32]
 80039d0:	6983      	ldr	r3, [r0, #24]
 80039d2:	f021 010a 	bic.w	r1, r1, #10
 80039d6:	f023 03f0 	bic.w	r3, r3, #240	@ 0xf0
 80039da:	ea43 1305 	orr.w	r3, r3, r5, lsl #4
 80039de:	430a      	orrs	r2, r1
 80039e0:	6183      	str	r3, [r0, #24]
 80039e2:	6202      	str	r2, [r0, #32]
 80039e4:	6883      	ldr	r3, [r0, #8]
 80039e6:	f023 0370 	bic.w	r3, r3, #112	@ 0x70
 80039ea:	f043 0357 	orr.w	r3, r3, #87	@ 0x57
 80039ee:	e00f      	b.n	8003a10 <HAL_TIM_ConfigClockSource+0xb4>
 80039f0:	f5b3 5f80 	cmp.w	r3, #4096	@ 0x1000
 80039f4:	d00d      	beq.n	8003a12 <HAL_TIM_ConfigClockSource+0xb6>
 80039f6:	f5b3 5f00 	cmp.w	r3, #8192	@ 0x2000
 80039fa:	d00c      	beq.n	8003a16 <HAL_TIM_ConfigClockSource+0xba>
 80039fc:	2b70      	cmp	r3, #112	@ 0x70
 80039fe:	d1cd      	bne.n	800399c <HAL_TIM_ConfigClockSource+0x40>
 8003a00:	68cb      	ldr	r3, [r1, #12]
 8003a02:	e9d1 2101 	ldrd	r2, r1, [r1, #4]
 8003a06:	f7ff ff9f 	bl	8003948 <TIM_ETR_SetConfig>
 8003a0a:	6883      	ldr	r3, [r0, #8]
 8003a0c:	f043 0377 	orr.w	r3, r3, #119	@ 0x77
 8003a10:	6083      	str	r3, [r0, #8]
 8003a12:	2200      	movs	r2, #0
 8003a14:	e7c2      	b.n	800399c <HAL_TIM_ConfigClockSource+0x40>
 8003a16:	68cb      	ldr	r3, [r1, #12]
 8003a18:	e9d1 2101 	ldrd	r2, r1, [r1, #4]
 8003a1c:	f7ff ff94 	bl	8003948 <TIM_ETR_SetConfig>
 8003a20:	6883      	ldr	r3, [r0, #8]
 8003a22:	f443 4380 	orr.w	r3, r3, #16384	@ 0x4000
 8003a26:	e7f3      	b.n	8003a10 <HAL_TIM_ConfigClockSource+0xb4>
 8003a28:	6a03      	ldr	r3, [r0, #32]
 8003a2a:	6a02      	ldr	r2, [r0, #32]
 8003a2c:	684d      	ldr	r5, [r1, #4]
 8003a2e:	68c9      	ldr	r1, [r1, #12]
 8003a30:	f022 0210 	bic.w	r2, r2, #16
 8003a34:	6202      	str	r2, [r0, #32]
 8003a36:	6982      	ldr	r2, [r0, #24]
 8003a38:	f023 03a0 	bic.w	r3, r3, #160	@ 0xa0
 8003a3c:	f422 4270 	bic.w	r2, r2, #61440	@ 0xf000
 8003a40:	ea43 1305 	orr.w	r3, r3, r5, lsl #4
 8003a44:	ea42 3201 	orr.w	r2, r2, r1, lsl #12
 8003a48:	6182      	str	r2, [r0, #24]
 8003a4a:	6203      	str	r3, [r0, #32]
 8003a4c:	6883      	ldr	r3, [r0, #8]
 8003a4e:	f023 0370 	bic.w	r3, r3, #112	@ 0x70
 8003a52:	f043 0367 	orr.w	r3, r3, #103	@ 0x67
 8003a56:	e7db      	b.n	8003a10 <HAL_TIM_ConfigClockSource+0xb4>
 8003a58:	684a      	ldr	r2, [r1, #4]
 8003a5a:	68cd      	ldr	r5, [r1, #12]
 8003a5c:	6a01      	ldr	r1, [r0, #32]
 8003a5e:	6a03      	ldr	r3, [r0, #32]
 8003a60:	f023 0301 	bic.w	r3, r3, #1
 8003a64:	6203      	str	r3, [r0, #32]
 8003a66:	6983      	ldr	r3, [r0, #24]
 8003a68:	f021 010a 	bic.w	r1, r1, #10
 8003a6c:	f023 03f0 	bic.w	r3, r3, #240	@ 0xf0
 8003a70:	ea43 1305 	orr.w	r3, r3, r5, lsl #4
 8003a74:	430a      	orrs	r2, r1
 8003a76:	6183      	str	r3, [r0, #24]
 8003a78:	6202      	str	r2, [r0, #32]
 8003a7a:	6883      	ldr	r3, [r0, #8]
 8003a7c:	f023 0370 	bic.w	r3, r3, #112	@ 0x70
 8003a80:	f043 0347 	orr.w	r3, r3, #71	@ 0x47
 8003a84:	e7c4      	b.n	8003a10 <HAL_TIM_ConfigClockSource+0xb4>
 8003a86:	4602      	mov	r2, r0
 8003a88:	e78e      	b.n	80039a8 <HAL_TIM_ConfigClockSource+0x4c>
 8003a8a:	bf00      	nop
 8003a8c:	fffe0088 	.word	0xfffe0088

08003a90 <TIM_SlaveTimer_SetConfig.constprop.0>:
 8003a90:	6800      	ldr	r0, [r0, #0]
 8003a92:	684b      	ldr	r3, [r1, #4]
 8003a94:	6882      	ldr	r2, [r0, #8]
 8003a96:	f022 0270 	bic.w	r2, r2, #112	@ 0x70
 8003a9a:	431a      	orrs	r2, r3
 8003a9c:	b510      	push	{r4, lr}
 8003a9e:	f422 3280 	bic.w	r2, r2, #65536	@ 0x10000
 8003aa2:	680c      	ldr	r4, [r1, #0]
 8003aa4:	f022 0207 	bic.w	r2, r2, #7
 8003aa8:	4322      	orrs	r2, r4
 8003aaa:	2b50      	cmp	r3, #80	@ 0x50
 8003aac:	6082      	str	r2, [r0, #8]
 8003aae:	d02c      	beq.n	8003b0a <TIM_SlaveTimer_SetConfig.constprop.0+0x7a>
 8003ab0:	d810      	bhi.n	8003ad4 <TIM_SlaveTimer_SetConfig.constprop.0+0x44>
 8003ab2:	2b40      	cmp	r3, #64	@ 0x40
 8003ab4:	d019      	beq.n	8003aea <TIM_SlaveTimer_SetConfig.constprop.0+0x5a>
 8003ab6:	d84b      	bhi.n	8003b50 <TIM_SlaveTimer_SetConfig.constprop.0+0xc0>
 8003ab8:	2b20      	cmp	r3, #32
 8003aba:	d014      	beq.n	8003ae6 <TIM_SlaveTimer_SetConfig.constprop.0+0x56>
 8003abc:	d805      	bhi.n	8003aca <TIM_SlaveTimer_SetConfig.constprop.0+0x3a>
 8003abe:	f033 0310 	bics.w	r3, r3, #16
 8003ac2:	bf14      	ite	ne
 8003ac4:	2001      	movne	r0, #1
 8003ac6:	2000      	moveq	r0, #0
 8003ac8:	bd10      	pop	{r4, pc}
 8003aca:	f1b3 0030 	subs.w	r0, r3, #48	@ 0x30
 8003ace:	bf18      	it	ne
 8003ad0:	2001      	movne	r0, #1
 8003ad2:	e7f9      	b.n	8003ac8 <TIM_SlaveTimer_SetConfig.constprop.0+0x38>
 8003ad4:	2b60      	cmp	r3, #96	@ 0x60
 8003ad6:	d028      	beq.n	8003b2a <TIM_SlaveTimer_SetConfig.constprop.0+0x9a>
 8003ad8:	2b70      	cmp	r3, #112	@ 0x70
 8003ada:	d139      	bne.n	8003b50 <TIM_SlaveTimer_SetConfig.constprop.0+0xc0>
 8003adc:	690b      	ldr	r3, [r1, #16]
 8003ade:	e9d1 2102 	ldrd	r2, r1, [r1, #8]
 8003ae2:	f7ff ff31 	bl	8003948 <TIM_ETR_SetConfig>
 8003ae6:	2000      	movs	r0, #0
 8003ae8:	e7ee      	b.n	8003ac8 <TIM_SlaveTimer_SetConfig.constprop.0+0x38>
 8003aea:	2c05      	cmp	r4, #5
 8003aec:	d030      	beq.n	8003b50 <TIM_SlaveTimer_SetConfig.constprop.0+0xc0>
 8003aee:	6a02      	ldr	r2, [r0, #32]
 8003af0:	6a03      	ldr	r3, [r0, #32]
 8003af2:	6909      	ldr	r1, [r1, #16]
 8003af4:	f023 0301 	bic.w	r3, r3, #1
 8003af8:	6203      	str	r3, [r0, #32]
 8003afa:	6983      	ldr	r3, [r0, #24]
 8003afc:	f023 03f0 	bic.w	r3, r3, #240	@ 0xf0
 8003b00:	ea43 1301 	orr.w	r3, r3, r1, lsl #4
 8003b04:	6183      	str	r3, [r0, #24]
 8003b06:	6202      	str	r2, [r0, #32]
 8003b08:	e7ed      	b.n	8003ae6 <TIM_SlaveTimer_SetConfig.constprop.0+0x56>
 8003b0a:	688a      	ldr	r2, [r1, #8]
 8003b0c:	690c      	ldr	r4, [r1, #16]
 8003b0e:	6a01      	ldr	r1, [r0, #32]
 8003b10:	6a03      	ldr	r3, [r0, #32]
 8003b12:	f023 0301 	bic.w	r3, r3, #1
 8003b16:	6203      	str	r3, [r0, #32]
 8003b18:	6983      	ldr	r3, [r0, #24]
 8003b1a:	f021 010a 	bic.w	r1, r1, #10
 8003b1e:	f023 03f0 	bic.w	r3, r3, #240	@ 0xf0
 8003b22:	ea43 1304 	orr.w	r3, r3, r4, lsl #4
 8003b26:	430a      	orrs	r2, r1
 8003b28:	e7ec      	b.n	8003b04 <TIM_SlaveTimer_SetConfig.constprop.0+0x74>
 8003b2a:	6a03      	ldr	r3, [r0, #32]
 8003b2c:	6a02      	ldr	r2, [r0, #32]
 8003b2e:	688c      	ldr	r4, [r1, #8]
 8003b30:	6909      	ldr	r1, [r1, #16]
 8003b32:	f022 0210 	bic.w	r2, r2, #16
 8003b36:	6202      	str	r2, [r0, #32]
 8003b38:	6982      	ldr	r2, [r0, #24]
 8003b3a:	f023 03a0 	bic.w	r3, r3, #160	@ 0xa0
 8003b3e:	f422 4270 	bic.w	r2, r2, #61440	@ 0xf000
 8003b42:	ea42 3201 	orr.w	r2, r2, r1, lsl #12
 8003b46:	ea43 1304 	orr.w	r3, r3, r4, lsl #4
 8003b4a:	6182      	str	r2, [r0, #24]
 8003b4c:	6203      	str	r3, [r0, #32]
 8003b4e:	e7ca      	b.n	8003ae6 <TIM_SlaveTimer_SetConfig.constprop.0+0x56>
 8003b50:	2001      	movs	r0, #1
 8003b52:	e7b9      	b.n	8003ac8 <TIM_SlaveTimer_SetConfig.constprop.0+0x38>

08003b54 <HAL_TIM_SlaveConfigSynchro>:
 8003b54:	b538      	push	{r3, r4, r5, lr}
 8003b56:	f890 303c 	ldrb.w	r3, [r0, #60]	@ 0x3c
 8003b5a:	2b01      	cmp	r3, #1
 8003b5c:	4604      	mov	r4, r0
 8003b5e:	f04f 0302 	mov.w	r3, #2
 8003b62:	d01c      	beq.n	8003b9e <HAL_TIM_SlaveConfigSynchro+0x4a>
 8003b64:	2501      	movs	r5, #1
 8003b66:	f880 503c 	strb.w	r5, [r0, #60]	@ 0x3c
 8003b6a:	f880 303d 	strb.w	r3, [r0, #61]	@ 0x3d
 8003b6e:	f7ff ff8f 	bl	8003a90 <TIM_SlaveTimer_SetConfig.constprop.0>
 8003b72:	b130      	cbz	r0, 8003b82 <HAL_TIM_SlaveConfigSynchro+0x2e>
 8003b74:	2300      	movs	r3, #0
 8003b76:	f884 503d 	strb.w	r5, [r4, #61]	@ 0x3d
 8003b7a:	f884 303c 	strb.w	r3, [r4, #60]	@ 0x3c
 8003b7e:	4628      	mov	r0, r5
 8003b80:	bd38      	pop	{r3, r4, r5, pc}
 8003b82:	6823      	ldr	r3, [r4, #0]
 8003b84:	68da      	ldr	r2, [r3, #12]
 8003b86:	f022 0240 	bic.w	r2, r2, #64	@ 0x40
 8003b8a:	60da      	str	r2, [r3, #12]
 8003b8c:	68da      	ldr	r2, [r3, #12]
 8003b8e:	f422 4280 	bic.w	r2, r2, #16384	@ 0x4000
 8003b92:	60da      	str	r2, [r3, #12]
 8003b94:	f884 503d 	strb.w	r5, [r4, #61]	@ 0x3d
 8003b98:	f884 003c 	strb.w	r0, [r4, #60]	@ 0x3c
 8003b9c:	e7f0      	b.n	8003b80 <HAL_TIM_SlaveConfigSynchro+0x2c>
 8003b9e:	4618      	mov	r0, r3
 8003ba0:	e7ee      	b.n	8003b80 <HAL_TIM_SlaveConfigSynchro+0x2c>

08003ba2 <TIM_CCxChannelCmd>:
 8003ba2:	6a03      	ldr	r3, [r0, #32]
 8003ba4:	b510      	push	{r4, lr}
 8003ba6:	f001 011f 	and.w	r1, r1, #31
 8003baa:	2401      	movs	r4, #1
 8003bac:	408c      	lsls	r4, r1
 8003bae:	ea23 0304 	bic.w	r3, r3, r4
 8003bb2:	6203      	str	r3, [r0, #32]
 8003bb4:	6a03      	ldr	r3, [r0, #32]
 8003bb6:	408a      	lsls	r2, r1
 8003bb8:	431a      	orrs	r2, r3
 8003bba:	6202      	str	r2, [r0, #32]
 8003bbc:	bd10      	pop	{r4, pc}
	...

08003bc0 <HAL_TIM_OC_Start>:
 8003bc0:	2908      	cmp	r1, #8
 8003bc2:	b508      	push	{r3, lr}
 8003bc4:	d018      	beq.n	8003bf8 <HAL_TIM_OC_Start+0x38>
 8003bc6:	d805      	bhi.n	8003bd4 <HAL_TIM_OC_Start+0x14>
 8003bc8:	b159      	cbz	r1, 8003be2 <HAL_TIM_OC_Start+0x22>
 8003bca:	2904      	cmp	r1, #4
 8003bcc:	d011      	beq.n	8003bf2 <HAL_TIM_OC_Start+0x32>
 8003bce:	f890 3043 	ldrb.w	r3, [r0, #67]	@ 0x43
 8003bd2:	e008      	b.n	8003be6 <HAL_TIM_OC_Start+0x26>
 8003bd4:	290c      	cmp	r1, #12
 8003bd6:	d012      	beq.n	8003bfe <HAL_TIM_OC_Start+0x3e>
 8003bd8:	2910      	cmp	r1, #16
 8003bda:	d1f8      	bne.n	8003bce <HAL_TIM_OC_Start+0xe>
 8003bdc:	f890 3042 	ldrb.w	r3, [r0, #66]	@ 0x42
 8003be0:	e001      	b.n	8003be6 <HAL_TIM_OC_Start+0x26>
 8003be2:	f890 303e 	ldrb.w	r3, [r0, #62]	@ 0x3e
 8003be6:	3b01      	subs	r3, #1
 8003be8:	bf18      	it	ne
 8003bea:	2301      	movne	r3, #1
 8003bec:	b153      	cbz	r3, 8003c04 <HAL_TIM_OC_Start+0x44>
 8003bee:	2001      	movs	r0, #1
 8003bf0:	e03e      	b.n	8003c70 <HAL_TIM_OC_Start+0xb0>
 8003bf2:	f890 303f 	ldrb.w	r3, [r0, #63]	@ 0x3f
 8003bf6:	e7f6      	b.n	8003be6 <HAL_TIM_OC_Start+0x26>
 8003bf8:	f890 3040 	ldrb.w	r3, [r0, #64]	@ 0x40
 8003bfc:	e7f3      	b.n	8003be6 <HAL_TIM_OC_Start+0x26>
 8003bfe:	f890 3041 	ldrb.w	r3, [r0, #65]	@ 0x41
 8003c02:	e7f0      	b.n	8003be6 <HAL_TIM_OC_Start+0x26>
 8003c04:	2908      	cmp	r1, #8
 8003c06:	f04f 0302 	mov.w	r3, #2
 8003c0a:	d035      	beq.n	8003c78 <HAL_TIM_OC_Start+0xb8>
 8003c0c:	d806      	bhi.n	8003c1c <HAL_TIM_OC_Start+0x5c>
 8003c0e:	b161      	cbz	r1, 8003c2a <HAL_TIM_OC_Start+0x6a>
 8003c10:	2904      	cmp	r1, #4
 8003c12:	d02e      	beq.n	8003c72 <HAL_TIM_OC_Start+0xb2>
 8003c14:	2302      	movs	r3, #2
 8003c16:	f880 3043 	strb.w	r3, [r0, #67]	@ 0x43
 8003c1a:	e008      	b.n	8003c2e <HAL_TIM_OC_Start+0x6e>
 8003c1c:	290c      	cmp	r1, #12
 8003c1e:	d02e      	beq.n	8003c7e <HAL_TIM_OC_Start+0xbe>
 8003c20:	2910      	cmp	r1, #16
 8003c22:	d1f7      	bne.n	8003c14 <HAL_TIM_OC_Start+0x54>
 8003c24:	f880 3042 	strb.w	r3, [r0, #66]	@ 0x42
 8003c28:	e001      	b.n	8003c2e <HAL_TIM_OC_Start+0x6e>
 8003c2a:	f880 303e 	strb.w	r3, [r0, #62]	@ 0x3e
 8003c2e:	6800      	ldr	r0, [r0, #0]
 8003c30:	2201      	movs	r2, #1
 8003c32:	f7ff ffb6 	bl	8003ba2 <TIM_CCxChannelCmd>
 8003c36:	4a17      	ldr	r2, [pc, #92]	@ (8003c94 <HAL_TIM_OC_Start+0xd4>)
 8003c38:	4290      	cmp	r0, r2
 8003c3a:	d006      	beq.n	8003c4a <HAL_TIM_OC_Start+0x8a>
 8003c3c:	4b16      	ldr	r3, [pc, #88]	@ (8003c98 <HAL_TIM_OC_Start+0xd8>)
 8003c3e:	4298      	cmp	r0, r3
 8003c40:	d003      	beq.n	8003c4a <HAL_TIM_OC_Start+0x8a>
 8003c42:	f503 6380 	add.w	r3, r3, #1024	@ 0x400
 8003c46:	4298      	cmp	r0, r3
 8003c48:	d120      	bne.n	8003c8c <HAL_TIM_OC_Start+0xcc>
 8003c4a:	6c43      	ldr	r3, [r0, #68]	@ 0x44
 8003c4c:	4290      	cmp	r0, r2
 8003c4e:	f443 4300 	orr.w	r3, r3, #32768	@ 0x8000
 8003c52:	6443      	str	r3, [r0, #68]	@ 0x44
 8003c54:	d116      	bne.n	8003c84 <HAL_TIM_OC_Start+0xc4>
 8003c56:	6882      	ldr	r2, [r0, #8]
 8003c58:	4b10      	ldr	r3, [pc, #64]	@ (8003c9c <HAL_TIM_OC_Start+0xdc>)
 8003c5a:	4013      	ands	r3, r2
 8003c5c:	2b06      	cmp	r3, #6
 8003c5e:	d006      	beq.n	8003c6e <HAL_TIM_OC_Start+0xae>
 8003c60:	f5b3 3f80 	cmp.w	r3, #65536	@ 0x10000
 8003c64:	d003      	beq.n	8003c6e <HAL_TIM_OC_Start+0xae>
 8003c66:	6803      	ldr	r3, [r0, #0]
 8003c68:	f043 0301 	orr.w	r3, r3, #1
 8003c6c:	6003      	str	r3, [r0, #0]
 8003c6e:	2000      	movs	r0, #0
 8003c70:	bd08      	pop	{r3, pc}
 8003c72:	f880 303f 	strb.w	r3, [r0, #63]	@ 0x3f
 8003c76:	e7da      	b.n	8003c2e <HAL_TIM_OC_Start+0x6e>
 8003c78:	f880 3040 	strb.w	r3, [r0, #64]	@ 0x40
 8003c7c:	e7d7      	b.n	8003c2e <HAL_TIM_OC_Start+0x6e>
 8003c7e:	f880 3041 	strb.w	r3, [r0, #65]	@ 0x41
 8003c82:	e7d4      	b.n	8003c2e <HAL_TIM_OC_Start+0x6e>
 8003c84:	4b04      	ldr	r3, [pc, #16]	@ (8003c98 <HAL_TIM_OC_Start+0xd8>)
 8003c86:	4298      	cmp	r0, r3
 8003c88:	d1ed      	bne.n	8003c66 <HAL_TIM_OC_Start+0xa6>
 8003c8a:	e7e4      	b.n	8003c56 <HAL_TIM_OC_Start+0x96>
 8003c8c:	f1b0 4f80 	cmp.w	r0, #1073741824	@ 0x40000000
 8003c90:	e7fa      	b.n	8003c88 <HAL_TIM_OC_Start+0xc8>
 8003c92:	bf00      	nop
 8003c94:	40012c00 	.word	0x40012c00
 8003c98:	40014000 	.word	0x40014000
 8003c9c:	00010007 	.word	0x00010007

08003ca0 <HAL_TIM_PWM_Start>:
 8003ca0:	f7ff bf8e 	b.w	8003bc0 <HAL_TIM_OC_Start>

08003ca4 <HAL_TIM_OC_Stop>:
 8003ca4:	b538      	push	{r3, r4, r5, lr}
 8003ca6:	2200      	movs	r2, #0
 8003ca8:	4604      	mov	r4, r0
 8003caa:	6800      	ldr	r0, [r0, #0]
 8003cac:	460d      	mov	r5, r1
 8003cae:	f7ff ff78 	bl	8003ba2 <TIM_CCxChannelCmd>
 8003cb2:	4b23      	ldr	r3, [pc, #140]	@ (8003d40 <HAL_TIM_OC_Stop+0x9c>)
 8003cb4:	4298      	cmp	r0, r3
 8003cb6:	d007      	beq.n	8003cc8 <HAL_TIM_OC_Stop+0x24>
 8003cb8:	f503 53a0 	add.w	r3, r3, #5120	@ 0x1400
 8003cbc:	4298      	cmp	r0, r3
 8003cbe:	d003      	beq.n	8003cc8 <HAL_TIM_OC_Stop+0x24>
 8003cc0:	f503 6380 	add.w	r3, r3, #1024	@ 0x400
 8003cc4:	4298      	cmp	r0, r3
 8003cc6:	d10d      	bne.n	8003ce4 <HAL_TIM_OC_Stop+0x40>
 8003cc8:	6a02      	ldr	r2, [r0, #32]
 8003cca:	f241 1311 	movw	r3, #4369	@ 0x1111
 8003cce:	421a      	tst	r2, r3
 8003cd0:	d108      	bne.n	8003ce4 <HAL_TIM_OC_Stop+0x40>
 8003cd2:	6a02      	ldr	r2, [r0, #32]
 8003cd4:	f240 4344 	movw	r3, #1092	@ 0x444
 8003cd8:	421a      	tst	r2, r3
 8003cda:	bf02      	ittt	eq
 8003cdc:	6c43      	ldreq	r3, [r0, #68]	@ 0x44
 8003cde:	f423 4300 	biceq.w	r3, r3, #32768	@ 0x8000
 8003ce2:	6443      	streq	r3, [r0, #68]	@ 0x44
 8003ce4:	6a02      	ldr	r2, [r0, #32]
 8003ce6:	f241 1311 	movw	r3, #4369	@ 0x1111
 8003cea:	421a      	tst	r2, r3
 8003cec:	d108      	bne.n	8003d00 <HAL_TIM_OC_Stop+0x5c>
 8003cee:	6a02      	ldr	r2, [r0, #32]
 8003cf0:	f240 4344 	movw	r3, #1092	@ 0x444
 8003cf4:	421a      	tst	r2, r3
 8003cf6:	bf02      	ittt	eq
 8003cf8:	6803      	ldreq	r3, [r0, #0]
 8003cfa:	f023 0301 	biceq.w	r3, r3, #1
 8003cfe:	6003      	streq	r3, [r0, #0]
 8003d00:	2d08      	cmp	r5, #8
 8003d02:	f04f 0301 	mov.w	r3, #1
 8003d06:	d015      	beq.n	8003d34 <HAL_TIM_OC_Stop+0x90>
 8003d08:	d806      	bhi.n	8003d18 <HAL_TIM_OC_Stop+0x74>
 8003d0a:	b165      	cbz	r5, 8003d26 <HAL_TIM_OC_Stop+0x82>
 8003d0c:	2d04      	cmp	r5, #4
 8003d0e:	d00e      	beq.n	8003d2e <HAL_TIM_OC_Stop+0x8a>
 8003d10:	2301      	movs	r3, #1
 8003d12:	f884 3043 	strb.w	r3, [r4, #67]	@ 0x43
 8003d16:	e008      	b.n	8003d2a <HAL_TIM_OC_Stop+0x86>
 8003d18:	2d0c      	cmp	r5, #12
 8003d1a:	d00e      	beq.n	8003d3a <HAL_TIM_OC_Stop+0x96>
 8003d1c:	2d10      	cmp	r5, #16
 8003d1e:	d1f7      	bne.n	8003d10 <HAL_TIM_OC_Stop+0x6c>
 8003d20:	f884 3042 	strb.w	r3, [r4, #66]	@ 0x42
 8003d24:	e001      	b.n	8003d2a <HAL_TIM_OC_Stop+0x86>
 8003d26:	f884 303e 	strb.w	r3, [r4, #62]	@ 0x3e
 8003d2a:	2000      	movs	r0, #0
 8003d2c:	bd38      	pop	{r3, r4, r5, pc}
 8003d2e:	f884 303f 	strb.w	r3, [r4, #63]	@ 0x3f
 8003d32:	e7fa      	b.n	8003d2a <HAL_TIM_OC_Stop+0x86>
 8003d34:	f884 3040 	strb.w	r3, [r4, #64]	@ 0x40
 8003d38:	e7f7      	b.n	8003d2a <HAL_TIM_OC_Stop+0x86>
 8003d3a:	f884 3041 	strb.w	r3, [r4, #65]	@ 0x41
 8003d3e:	e7f4      	b.n	8003d2a <HAL_TIM_OC_Stop+0x86>
 8003d40:	40012c00 	.word	0x40012c00

08003d44 <HAL_TIM_PWM_Stop>:
 8003d44:	f7ff bfae 	b.w	8003ca4 <HAL_TIM_OC_Stop>

08003d48 <HAL_TIMEx_MasterConfigSynchronization>:
 8003d48:	b570      	push	{r4, r5, r6, lr}
 8003d4a:	f890 303c 	ldrb.w	r3, [r0, #60]	@ 0x3c
 8003d4e:	2b01      	cmp	r3, #1
 8003d50:	4604      	mov	r4, r0
 8003d52:	f04f 0002 	mov.w	r0, #2
 8003d56:	d023      	beq.n	8003da0 <HAL_TIMEx_MasterConfigSynchronization+0x58>
 8003d58:	6822      	ldr	r2, [r4, #0]
 8003d5a:	4d12      	ldr	r5, [pc, #72]	@ (8003da4 <HAL_TIMEx_MasterConfigSynchronization+0x5c>)
 8003d5c:	f884 003d 	strb.w	r0, [r4, #61]	@ 0x3d
 8003d60:	6853      	ldr	r3, [r2, #4]
 8003d62:	6890      	ldr	r0, [r2, #8]
 8003d64:	42aa      	cmp	r2, r5
 8003d66:	bf02      	ittt	eq
 8003d68:	684e      	ldreq	r6, [r1, #4]
 8003d6a:	f423 0370 	biceq.w	r3, r3, #15728640	@ 0xf00000
 8003d6e:	4333      	orreq	r3, r6
 8003d70:	680e      	ldr	r6, [r1, #0]
 8003d72:	f023 0370 	bic.w	r3, r3, #112	@ 0x70
 8003d76:	4333      	orrs	r3, r6
 8003d78:	42aa      	cmp	r2, r5
 8003d7a:	6053      	str	r3, [r2, #4]
 8003d7c:	d005      	beq.n	8003d8a <HAL_TIMEx_MasterConfigSynchronization+0x42>
 8003d7e:	f1b2 4f80 	cmp.w	r2, #1073741824	@ 0x40000000
 8003d82:	d002      	beq.n	8003d8a <HAL_TIMEx_MasterConfigSynchronization+0x42>
 8003d84:	4b08      	ldr	r3, [pc, #32]	@ (8003da8 <HAL_TIMEx_MasterConfigSynchronization+0x60>)
 8003d86:	429a      	cmp	r2, r3
 8003d88:	d104      	bne.n	8003d94 <HAL_TIMEx_MasterConfigSynchronization+0x4c>
 8003d8a:	6889      	ldr	r1, [r1, #8]
 8003d8c:	f020 0380 	bic.w	r3, r0, #128	@ 0x80
 8003d90:	430b      	orrs	r3, r1
 8003d92:	6093      	str	r3, [r2, #8]
 8003d94:	2301      	movs	r3, #1
 8003d96:	2000      	movs	r0, #0
 8003d98:	f884 303d 	strb.w	r3, [r4, #61]	@ 0x3d
 8003d9c:	f884 003c 	strb.w	r0, [r4, #60]	@ 0x3c
 8003da0:	bd70      	pop	{r4, r5, r6, pc}
 8003da2:	bf00      	nop
 8003da4:	40012c00 	.word	0x40012c00
 8003da8:	40014000 	.word	0x40014000

08003dac <HAL_TIMEx_ConfigBreakDeadTime>:
 8003dac:	b510      	push	{r4, lr}
 8003dae:	f890 303c 	ldrb.w	r3, [r0, #60]	@ 0x3c
 8003db2:	2b01      	cmp	r3, #1
 8003db4:	4602      	mov	r2, r0
 8003db6:	d033      	beq.n	8003e20 <HAL_TIMEx_ConfigBreakDeadTime+0x74>
 8003db8:	68cb      	ldr	r3, [r1, #12]
 8003dba:	6888      	ldr	r0, [r1, #8]
 8003dbc:	4c19      	ldr	r4, [pc, #100]	@ (8003e24 <HAL_TIMEx_ConfigBreakDeadTime+0x78>)
 8003dbe:	f423 7340 	bic.w	r3, r3, #768	@ 0x300
 8003dc2:	4303      	orrs	r3, r0
 8003dc4:	6848      	ldr	r0, [r1, #4]
 8003dc6:	f423 6380 	bic.w	r3, r3, #1024	@ 0x400
 8003dca:	4303      	orrs	r3, r0
 8003dcc:	6808      	ldr	r0, [r1, #0]
 8003dce:	f423 6300 	bic.w	r3, r3, #2048	@ 0x800
 8003dd2:	4303      	orrs	r3, r0
 8003dd4:	6908      	ldr	r0, [r1, #16]
 8003dd6:	f423 5380 	bic.w	r3, r3, #4096	@ 0x1000
 8003dda:	4303      	orrs	r3, r0
 8003ddc:	6948      	ldr	r0, [r1, #20]
 8003dde:	f423 5300 	bic.w	r3, r3, #8192	@ 0x2000
 8003de2:	4303      	orrs	r3, r0
 8003de4:	6a88      	ldr	r0, [r1, #40]	@ 0x28
 8003de6:	f423 4380 	bic.w	r3, r3, #16384	@ 0x4000
 8003dea:	4303      	orrs	r3, r0
 8003dec:	6988      	ldr	r0, [r1, #24]
 8003dee:	f423 2370 	bic.w	r3, r3, #983040	@ 0xf0000
 8003df2:	ea43 4300 	orr.w	r3, r3, r0, lsl #16
 8003df6:	6810      	ldr	r0, [r2, #0]
 8003df8:	42a0      	cmp	r0, r4
 8003dfa:	d10c      	bne.n	8003e16 <HAL_TIMEx_ConfigBreakDeadTime+0x6a>
 8003dfc:	6a4c      	ldr	r4, [r1, #36]	@ 0x24
 8003dfe:	f423 0370 	bic.w	r3, r3, #15728640	@ 0xf00000
 8003e02:	ea43 5304 	orr.w	r3, r3, r4, lsl #20
 8003e06:	69cc      	ldr	r4, [r1, #28]
 8003e08:	6a09      	ldr	r1, [r1, #32]
 8003e0a:	f023 7380 	bic.w	r3, r3, #16777216	@ 0x1000000
 8003e0e:	4323      	orrs	r3, r4
 8003e10:	f023 7300 	bic.w	r3, r3, #33554432	@ 0x2000000
 8003e14:	430b      	orrs	r3, r1
 8003e16:	6443      	str	r3, [r0, #68]	@ 0x44
 8003e18:	2000      	movs	r0, #0
 8003e1a:	f882 003c 	strb.w	r0, [r2, #60]	@ 0x3c
 8003e1e:	bd10      	pop	{r4, pc}
 8003e20:	2002      	movs	r0, #2
 8003e22:	e7fc      	b.n	8003e1e <HAL_TIMEx_ConfigBreakDeadTime+0x72>
 8003e24:	40012c00 	.word	0x40012c00

08003e28 <HAL_TIMEx_CommutCallback>:
 8003e28:	4770      	bx	lr

08003e2a <HAL_TIMEx_BreakCallback>:
 8003e2a:	4770      	bx	lr

08003e2c <HAL_TIMEx_Break2Callback>:
 8003e2c:	4770      	bx	lr

08003e2e <UART_EndRxTransfer>:
 8003e2e:	6802      	ldr	r2, [r0, #0]
 8003e30:	e852 3f00 	ldrex	r3, [r2]
 8003e34:	f423 7390 	bic.w	r3, r3, #288	@ 0x120
 8003e38:	e842 3100 	strex	r1, r3, [r2]
 8003e3c:	6802      	ldr	r2, [r0, #0]
 8003e3e:	2900      	cmp	r1, #0
 8003e40:	d1f5      	bne.n	8003e2e <UART_EndRxTransfer>
 8003e42:	f102 0308 	add.w	r3, r2, #8
 8003e46:	e853 3f00 	ldrex	r3, [r3]
 8003e4a:	f023 0301 	bic.w	r3, r3, #1
 8003e4e:	f102 0c08 	add.w	ip, r2, #8
 8003e52:	e84c 3100 	strex	r1, r3, [ip]
 8003e56:	2900      	cmp	r1, #0
 8003e58:	d1f3      	bne.n	8003e42 <UART_EndRxTransfer+0x14>
 8003e5a:	6e03      	ldr	r3, [r0, #96]	@ 0x60
 8003e5c:	2b01      	cmp	r3, #1
 8003e5e:	d107      	bne.n	8003e70 <UART_EndRxTransfer+0x42>
 8003e60:	e852 3f00 	ldrex	r3, [r2]
 8003e64:	f023 0310 	bic.w	r3, r3, #16
 8003e68:	e842 3100 	strex	r1, r3, [r2]
 8003e6c:	2900      	cmp	r1, #0
 8003e6e:	d1f7      	bne.n	8003e60 <UART_EndRxTransfer+0x32>
 8003e70:	2320      	movs	r3, #32
 8003e72:	f8c0 3080 	str.w	r3, [r0, #128]	@ 0x80
 8003e76:	2300      	movs	r3, #0
 8003e78:	6603      	str	r3, [r0, #96]	@ 0x60
 8003e7a:	6683      	str	r3, [r0, #104]	@ 0x68
 8003e7c:	4770      	bx	lr

08003e7e <HAL_UART_TxCpltCallback>:
 8003e7e:	4770      	bx	lr

08003e80 <HAL_UART_RxCpltCallback>:
 8003e80:	4770      	bx	lr

08003e82 <HAL_UART_RxHalfCpltCallback>:
 8003e82:	4770      	bx	lr

08003e84 <UART_DMAError>:
 8003e84:	6a80      	ldr	r0, [r0, #40]	@ 0x28
 8003e86:	6803      	ldr	r3, [r0, #0]
 8003e88:	6fc2      	ldr	r2, [r0, #124]	@ 0x7c
 8003e8a:	f8d0 1080 	ldr.w	r1, [r0, #128]	@ 0x80
 8003e8e:	b510      	push	{r4, lr}
 8003e90:	689c      	ldr	r4, [r3, #8]
 8003e92:	0624      	lsls	r4, r4, #24
 8003e94:	d50e      	bpl.n	8003eb4 <UART_DMAError+0x30>
 8003e96:	2a21      	cmp	r2, #33	@ 0x21
 8003e98:	d10c      	bne.n	8003eb4 <UART_DMAError+0x30>
 8003e9a:	2200      	movs	r2, #0
 8003e9c:	f8a0 2052 	strh.w	r2, [r0, #82]	@ 0x52
 8003ea0:	e853 2f00 	ldrex	r2, [r3]
 8003ea4:	f022 02c0 	bic.w	r2, r2, #192	@ 0xc0
 8003ea8:	e843 2400 	strex	r4, r2, [r3]
 8003eac:	2c00      	cmp	r4, #0
 8003eae:	d1f7      	bne.n	8003ea0 <UART_DMAError+0x1c>
 8003eb0:	2220      	movs	r2, #32
 8003eb2:	67c2      	str	r2, [r0, #124]	@ 0x7c
 8003eb4:	689b      	ldr	r3, [r3, #8]
 8003eb6:	065b      	lsls	r3, r3, #25
 8003eb8:	d506      	bpl.n	8003ec8 <UART_DMAError+0x44>
 8003eba:	2922      	cmp	r1, #34	@ 0x22
 8003ebc:	d104      	bne.n	8003ec8 <UART_DMAError+0x44>
 8003ebe:	2300      	movs	r3, #0
 8003ec0:	f8a0 305a 	strh.w	r3, [r0, #90]	@ 0x5a
 8003ec4:	f7ff ffb3 	bl	8003e2e <UART_EndRxTransfer>
 8003ec8:	f8d0 3084 	ldr.w	r3, [r0, #132]	@ 0x84
 8003ecc:	f043 0310 	orr.w	r3, r3, #16
 8003ed0:	f8c0 3084 	str.w	r3, [r0, #132]	@ 0x84
 8003ed4:	f7fd fbb4 	bl	8001640 <HAL_UART_ErrorCallback>
 8003ed8:	bd10      	pop	{r4, pc}

08003eda <UART_DMAAbortOnError>:
 8003eda:	b508      	push	{r3, lr}
 8003edc:	6a80      	ldr	r0, [r0, #40]	@ 0x28
 8003ede:	2300      	movs	r3, #0
 8003ee0:	f8a0 305a 	strh.w	r3, [r0, #90]	@ 0x5a
 8003ee4:	f8a0 3052 	strh.w	r3, [r0, #82]	@ 0x52
 8003ee8:	f7fd fbaa 	bl	8001640 <HAL_UART_ErrorCallback>
 8003eec:	bd08      	pop	{r3, pc}

08003eee <HAL_UARTEx_RxEventCallback>:
 8003eee:	4770      	bx	lr

08003ef0 <HAL_UART_IRQHandler>:
 8003ef0:	6803      	ldr	r3, [r0, #0]
 8003ef2:	69da      	ldr	r2, [r3, #28]
 8003ef4:	6819      	ldr	r1, [r3, #0]
 8003ef6:	b570      	push	{r4, r5, r6, lr}
 8003ef8:	f640 060f 	movw	r6, #2063	@ 0x80f
 8003efc:	4232      	tst	r2, r6
 8003efe:	689d      	ldr	r5, [r3, #8]
 8003f00:	4604      	mov	r4, r0
 8003f02:	d10b      	bne.n	8003f1c <HAL_UART_IRQHandler+0x2c>
 8003f04:	0696      	lsls	r6, r2, #26
 8003f06:	f140 8088 	bpl.w	800401a <HAL_UART_IRQHandler+0x12a>
 8003f0a:	068e      	lsls	r6, r1, #26
 8003f0c:	f140 8085 	bpl.w	800401a <HAL_UART_IRQHandler+0x12a>
 8003f10:	6e83      	ldr	r3, [r0, #104]	@ 0x68
 8003f12:	2b00      	cmp	r3, #0
 8003f14:	d07b      	beq.n	800400e <HAL_UART_IRQHandler+0x11e>
 8003f16:	e8bd 4070 	ldmia.w	sp!, {r4, r5, r6, lr}
 8003f1a:	4718      	bx	r3
 8003f1c:	4e9c      	ldr	r6, [pc, #624]	@ (8004190 <HAL_UART_IRQHandler+0x2a0>)
 8003f1e:	f005 0001 	and.w	r0, r5, #1
 8003f22:	400e      	ands	r6, r1
 8003f24:	4306      	orrs	r6, r0
 8003f26:	d078      	beq.n	800401a <HAL_UART_IRQHandler+0x12a>
 8003f28:	07d5      	lsls	r5, r2, #31
 8003f2a:	d509      	bpl.n	8003f40 <HAL_UART_IRQHandler+0x50>
 8003f2c:	05ce      	lsls	r6, r1, #23
 8003f2e:	d507      	bpl.n	8003f40 <HAL_UART_IRQHandler+0x50>
 8003f30:	2501      	movs	r5, #1
 8003f32:	621d      	str	r5, [r3, #32]
 8003f34:	f8d4 5084 	ldr.w	r5, [r4, #132]	@ 0x84
 8003f38:	f045 0501 	orr.w	r5, r5, #1
 8003f3c:	f8c4 5084 	str.w	r5, [r4, #132]	@ 0x84
 8003f40:	0795      	lsls	r5, r2, #30
 8003f42:	d508      	bpl.n	8003f56 <HAL_UART_IRQHandler+0x66>
 8003f44:	b138      	cbz	r0, 8003f56 <HAL_UART_IRQHandler+0x66>
 8003f46:	2502      	movs	r5, #2
 8003f48:	621d      	str	r5, [r3, #32]
 8003f4a:	f8d4 5084 	ldr.w	r5, [r4, #132]	@ 0x84
 8003f4e:	f045 0504 	orr.w	r5, r5, #4
 8003f52:	f8c4 5084 	str.w	r5, [r4, #132]	@ 0x84
 8003f56:	0756      	lsls	r6, r2, #29
 8003f58:	d508      	bpl.n	8003f6c <HAL_UART_IRQHandler+0x7c>
 8003f5a:	b138      	cbz	r0, 8003f6c <HAL_UART_IRQHandler+0x7c>
 8003f5c:	2504      	movs	r5, #4
 8003f5e:	621d      	str	r5, [r3, #32]
 8003f60:	f8d4 5084 	ldr.w	r5, [r4, #132]	@ 0x84
 8003f64:	f045 0502 	orr.w	r5, r5, #2
 8003f68:	f8c4 5084 	str.w	r5, [r4, #132]	@ 0x84
 8003f6c:	0715      	lsls	r5, r2, #28
 8003f6e:	d50b      	bpl.n	8003f88 <HAL_UART_IRQHandler+0x98>
 8003f70:	f001 0520 	and.w	r5, r1, #32
 8003f74:	4305      	orrs	r5, r0
 8003f76:	d007      	beq.n	8003f88 <HAL_UART_IRQHandler+0x98>
 8003f78:	2008      	movs	r0, #8
 8003f7a:	6218      	str	r0, [r3, #32]
 8003f7c:	f8d4 0084 	ldr.w	r0, [r4, #132]	@ 0x84
 8003f80:	f040 0008 	orr.w	r0, r0, #8
 8003f84:	f8c4 0084 	str.w	r0, [r4, #132]	@ 0x84
 8003f88:	0516      	lsls	r6, r2, #20
 8003f8a:	d50a      	bpl.n	8003fa2 <HAL_UART_IRQHandler+0xb2>
 8003f8c:	014d      	lsls	r5, r1, #5
 8003f8e:	d508      	bpl.n	8003fa2 <HAL_UART_IRQHandler+0xb2>
 8003f90:	f44f 6000 	mov.w	r0, #2048	@ 0x800
 8003f94:	6218      	str	r0, [r3, #32]
 8003f96:	f8d4 3084 	ldr.w	r3, [r4, #132]	@ 0x84
 8003f9a:	f043 0320 	orr.w	r3, r3, #32
 8003f9e:	f8c4 3084 	str.w	r3, [r4, #132]	@ 0x84
 8003fa2:	f8d4 3084 	ldr.w	r3, [r4, #132]	@ 0x84
 8003fa6:	2b00      	cmp	r3, #0
 8003fa8:	d031      	beq.n	800400e <HAL_UART_IRQHandler+0x11e>
 8003faa:	0690      	lsls	r0, r2, #26
 8003fac:	d505      	bpl.n	8003fba <HAL_UART_IRQHandler+0xca>
 8003fae:	068a      	lsls	r2, r1, #26
 8003fb0:	d503      	bpl.n	8003fba <HAL_UART_IRQHandler+0xca>
 8003fb2:	6ea3      	ldr	r3, [r4, #104]	@ 0x68
 8003fb4:	b10b      	cbz	r3, 8003fba <HAL_UART_IRQHandler+0xca>
 8003fb6:	4620      	mov	r0, r4
 8003fb8:	4798      	blx	r3
 8003fba:	6826      	ldr	r6, [r4, #0]
 8003fbc:	f8d4 2084 	ldr.w	r2, [r4, #132]	@ 0x84
 8003fc0:	68b3      	ldr	r3, [r6, #8]
 8003fc2:	f002 0228 	and.w	r2, r2, #40	@ 0x28
 8003fc6:	f003 0340 	and.w	r3, r3, #64	@ 0x40
 8003fca:	ea53 0502 	orrs.w	r5, r3, r2
 8003fce:	4620      	mov	r0, r4
 8003fd0:	d01e      	beq.n	8004010 <HAL_UART_IRQHandler+0x120>
 8003fd2:	f7ff ff2c 	bl	8003e2e <UART_EndRxTransfer>
 8003fd6:	68b3      	ldr	r3, [r6, #8]
 8003fd8:	065b      	lsls	r3, r3, #25
 8003fda:	d515      	bpl.n	8004008 <HAL_UART_IRQHandler+0x118>
 8003fdc:	6822      	ldr	r2, [r4, #0]
 8003fde:	f102 0308 	add.w	r3, r2, #8
 8003fe2:	e853 3f00 	ldrex	r3, [r3]
 8003fe6:	f023 0340 	bic.w	r3, r3, #64	@ 0x40
 8003fea:	3208      	adds	r2, #8
 8003fec:	e842 3100 	strex	r1, r3, [r2]
 8003ff0:	2900      	cmp	r1, #0
 8003ff2:	d1f3      	bne.n	8003fdc <HAL_UART_IRQHandler+0xec>
 8003ff4:	6f60      	ldr	r0, [r4, #116]	@ 0x74
 8003ff6:	b138      	cbz	r0, 8004008 <HAL_UART_IRQHandler+0x118>
 8003ff8:	4b66      	ldr	r3, [pc, #408]	@ (8004194 <HAL_UART_IRQHandler+0x2a4>)
 8003ffa:	6383      	str	r3, [r0, #56]	@ 0x38
 8003ffc:	f7fe f9d7 	bl	80023ae <HAL_DMA_Abort_IT>
 8004000:	b128      	cbz	r0, 800400e <HAL_UART_IRQHandler+0x11e>
 8004002:	6f60      	ldr	r0, [r4, #116]	@ 0x74
 8004004:	6b83      	ldr	r3, [r0, #56]	@ 0x38
 8004006:	e786      	b.n	8003f16 <HAL_UART_IRQHandler+0x26>
 8004008:	4620      	mov	r0, r4
 800400a:	f7fd fb19 	bl	8001640 <HAL_UART_ErrorCallback>
 800400e:	bd70      	pop	{r4, r5, r6, pc}
 8004010:	f7fd fb16 	bl	8001640 <HAL_UART_ErrorCallback>
 8004014:	f8c4 5084 	str.w	r5, [r4, #132]	@ 0x84
 8004018:	e7f9      	b.n	800400e <HAL_UART_IRQHandler+0x11e>
 800401a:	6e20      	ldr	r0, [r4, #96]	@ 0x60
 800401c:	2801      	cmp	r0, #1
 800401e:	f040 808b 	bne.w	8004138 <HAL_UART_IRQHandler+0x248>
 8004022:	06d6      	lsls	r6, r2, #27
 8004024:	f140 8088 	bpl.w	8004138 <HAL_UART_IRQHandler+0x248>
 8004028:	06c8      	lsls	r0, r1, #27
 800402a:	f140 8085 	bpl.w	8004138 <HAL_UART_IRQHandler+0x248>
 800402e:	2210      	movs	r2, #16
 8004030:	621a      	str	r2, [r3, #32]
 8004032:	6899      	ldr	r1, [r3, #8]
 8004034:	f8b4 2058 	ldrh.w	r2, [r4, #88]	@ 0x58
 8004038:	0649      	lsls	r1, r1, #25
 800403a:	d54f      	bpl.n	80040dc <HAL_UART_IRQHandler+0x1ec>
 800403c:	6f61      	ldr	r1, [r4, #116]	@ 0x74
 800403e:	6808      	ldr	r0, [r1, #0]
 8004040:	6841      	ldr	r1, [r0, #4]
 8004042:	b289      	uxth	r1, r1
 8004044:	2900      	cmp	r1, #0
 8004046:	d041      	beq.n	80040cc <HAL_UART_IRQHandler+0x1dc>
 8004048:	4291      	cmp	r1, r2
 800404a:	d23f      	bcs.n	80040cc <HAL_UART_IRQHandler+0x1dc>
 800404c:	f8a4 105a 	strh.w	r1, [r4, #90]	@ 0x5a
 8004050:	6802      	ldr	r2, [r0, #0]
 8004052:	0692      	lsls	r2, r2, #26
 8004054:	d42e      	bmi.n	80040b4 <HAL_UART_IRQHandler+0x1c4>
 8004056:	e853 2f00 	ldrex	r2, [r3]
 800405a:	f422 7280 	bic.w	r2, r2, #256	@ 0x100
 800405e:	e843 2100 	strex	r1, r2, [r3]
 8004062:	2900      	cmp	r1, #0
 8004064:	d1f7      	bne.n	8004056 <HAL_UART_IRQHandler+0x166>
 8004066:	f103 0208 	add.w	r2, r3, #8
 800406a:	e852 2f00 	ldrex	r2, [r2]
 800406e:	f022 0201 	bic.w	r2, r2, #1
 8004072:	f103 0008 	add.w	r0, r3, #8
 8004076:	e840 2100 	strex	r1, r2, [r0]
 800407a:	2900      	cmp	r1, #0
 800407c:	d1f3      	bne.n	8004066 <HAL_UART_IRQHandler+0x176>
 800407e:	f103 0208 	add.w	r2, r3, #8
 8004082:	e852 2f00 	ldrex	r2, [r2]
 8004086:	f022 0240 	bic.w	r2, r2, #64	@ 0x40
 800408a:	f103 0008 	add.w	r0, r3, #8
 800408e:	e840 2100 	strex	r1, r2, [r0]
 8004092:	2900      	cmp	r1, #0
 8004094:	d1f3      	bne.n	800407e <HAL_UART_IRQHandler+0x18e>
 8004096:	2220      	movs	r2, #32
 8004098:	f8c4 2080 	str.w	r2, [r4, #128]	@ 0x80
 800409c:	6621      	str	r1, [r4, #96]	@ 0x60
 800409e:	e853 2f00 	ldrex	r2, [r3]
 80040a2:	f022 0210 	bic.w	r2, r2, #16
 80040a6:	e843 2100 	strex	r1, r2, [r3]
 80040aa:	2900      	cmp	r1, #0
 80040ac:	d1f7      	bne.n	800409e <HAL_UART_IRQHandler+0x1ae>
 80040ae:	6f60      	ldr	r0, [r4, #116]	@ 0x74
 80040b0:	f7fe f95c 	bl	800236c <HAL_DMA_Abort>
 80040b4:	2302      	movs	r3, #2
 80040b6:	6663      	str	r3, [r4, #100]	@ 0x64
 80040b8:	f8b4 305a 	ldrh.w	r3, [r4, #90]	@ 0x5a
 80040bc:	f8b4 1058 	ldrh.w	r1, [r4, #88]	@ 0x58
 80040c0:	1ac9      	subs	r1, r1, r3
 80040c2:	b289      	uxth	r1, r1
 80040c4:	4620      	mov	r0, r4
 80040c6:	f7ff ff12 	bl	8003eee <HAL_UARTEx_RxEventCallback>
 80040ca:	e7a0      	b.n	800400e <HAL_UART_IRQHandler+0x11e>
 80040cc:	4291      	cmp	r1, r2
 80040ce:	d19e      	bne.n	800400e <HAL_UART_IRQHandler+0x11e>
 80040d0:	6803      	ldr	r3, [r0, #0]
 80040d2:	069b      	lsls	r3, r3, #26
 80040d4:	d59b      	bpl.n	800400e <HAL_UART_IRQHandler+0x11e>
 80040d6:	2302      	movs	r3, #2
 80040d8:	6663      	str	r3, [r4, #100]	@ 0x64
 80040da:	e7f3      	b.n	80040c4 <HAL_UART_IRQHandler+0x1d4>
 80040dc:	f8b4 105a 	ldrh.w	r1, [r4, #90]	@ 0x5a
 80040e0:	f8b4 005a 	ldrh.w	r0, [r4, #90]	@ 0x5a
 80040e4:	b280      	uxth	r0, r0
 80040e6:	b289      	uxth	r1, r1
 80040e8:	2800      	cmp	r0, #0
 80040ea:	d090      	beq.n	800400e <HAL_UART_IRQHandler+0x11e>
 80040ec:	1a51      	subs	r1, r2, r1
 80040ee:	b289      	uxth	r1, r1
 80040f0:	2900      	cmp	r1, #0
 80040f2:	d08c      	beq.n	800400e <HAL_UART_IRQHandler+0x11e>
 80040f4:	e853 2f00 	ldrex	r2, [r3]
 80040f8:	f422 7290 	bic.w	r2, r2, #288	@ 0x120
 80040fc:	e843 2000 	strex	r0, r2, [r3]
 8004100:	2800      	cmp	r0, #0
 8004102:	d1f7      	bne.n	80040f4 <HAL_UART_IRQHandler+0x204>
 8004104:	f103 0208 	add.w	r2, r3, #8
 8004108:	e852 2f00 	ldrex	r2, [r2]
 800410c:	f022 0201 	bic.w	r2, r2, #1
 8004110:	f103 0508 	add.w	r5, r3, #8
 8004114:	e845 2000 	strex	r0, r2, [r5]
 8004118:	2800      	cmp	r0, #0
 800411a:	d1f3      	bne.n	8004104 <HAL_UART_IRQHandler+0x214>
 800411c:	2220      	movs	r2, #32
 800411e:	f8c4 2080 	str.w	r2, [r4, #128]	@ 0x80
 8004122:	66a0      	str	r0, [r4, #104]	@ 0x68
 8004124:	6620      	str	r0, [r4, #96]	@ 0x60
 8004126:	e853 2f00 	ldrex	r2, [r3]
 800412a:	f022 0210 	bic.w	r2, r2, #16
 800412e:	e843 2000 	strex	r0, r2, [r3]
 8004132:	2800      	cmp	r0, #0
 8004134:	d1f7      	bne.n	8004126 <HAL_UART_IRQHandler+0x236>
 8004136:	e7ce      	b.n	80040d6 <HAL_UART_IRQHandler+0x1e6>
 8004138:	02d6      	lsls	r6, r2, #11
 800413a:	d509      	bpl.n	8004150 <HAL_UART_IRQHandler+0x260>
 800413c:	0268      	lsls	r0, r5, #9
 800413e:	d507      	bpl.n	8004150 <HAL_UART_IRQHandler+0x260>
 8004140:	f44f 1280 	mov.w	r2, #1048576	@ 0x100000
 8004144:	4620      	mov	r0, r4
 8004146:	621a      	str	r2, [r3, #32]
 8004148:	e8bd 4070 	ldmia.w	sp!, {r4, r5, r6, lr}
 800414c:	f000 bae6 	b.w	800471c <HAL_UARTEx_WakeupCallback>
 8004150:	0616      	lsls	r6, r2, #24
 8004152:	d507      	bpl.n	8004164 <HAL_UART_IRQHandler+0x274>
 8004154:	060d      	lsls	r5, r1, #24
 8004156:	d505      	bpl.n	8004164 <HAL_UART_IRQHandler+0x274>
 8004158:	6ee3      	ldr	r3, [r4, #108]	@ 0x6c
 800415a:	2b00      	cmp	r3, #0
 800415c:	f43f af57 	beq.w	800400e <HAL_UART_IRQHandler+0x11e>
 8004160:	4620      	mov	r0, r4
 8004162:	e6d8      	b.n	8003f16 <HAL_UART_IRQHandler+0x26>
 8004164:	0650      	lsls	r0, r2, #25
 8004166:	f57f af52 	bpl.w	800400e <HAL_UART_IRQHandler+0x11e>
 800416a:	064a      	lsls	r2, r1, #25
 800416c:	f57f af4f 	bpl.w	800400e <HAL_UART_IRQHandler+0x11e>
 8004170:	e853 2f00 	ldrex	r2, [r3]
 8004174:	f022 0240 	bic.w	r2, r2, #64	@ 0x40
 8004178:	e843 2100 	strex	r1, r2, [r3]
 800417c:	2900      	cmp	r1, #0
 800417e:	d1f7      	bne.n	8004170 <HAL_UART_IRQHandler+0x280>
 8004180:	2320      	movs	r3, #32
 8004182:	67e3      	str	r3, [r4, #124]	@ 0x7c
 8004184:	66e1      	str	r1, [r4, #108]	@ 0x6c
 8004186:	4620      	mov	r0, r4
 8004188:	f7ff fe79 	bl	8003e7e <HAL_UART_TxCpltCallback>
 800418c:	e73f      	b.n	800400e <HAL_UART_IRQHandler+0x11e>
 800418e:	bf00      	nop
 8004190:	04000120 	.word	0x04000120
 8004194:	08003edb 	.word	0x08003edb

08004198 <UART_DMARxHalfCplt>:
 8004198:	6a80      	ldr	r0, [r0, #40]	@ 0x28
 800419a:	b508      	push	{r3, lr}
 800419c:	2301      	movs	r3, #1
 800419e:	6643      	str	r3, [r0, #100]	@ 0x64
 80041a0:	6e03      	ldr	r3, [r0, #96]	@ 0x60
 80041a2:	2b01      	cmp	r3, #1
 80041a4:	d105      	bne.n	80041b2 <UART_DMARxHalfCplt+0x1a>
 80041a6:	f8b0 1058 	ldrh.w	r1, [r0, #88]	@ 0x58
 80041aa:	0849      	lsrs	r1, r1, #1
 80041ac:	f7ff fe9f 	bl	8003eee <HAL_UARTEx_RxEventCallback>
 80041b0:	bd08      	pop	{r3, pc}
 80041b2:	f7ff fe66 	bl	8003e82 <HAL_UART_RxHalfCpltCallback>
 80041b6:	e7fb      	b.n	80041b0 <UART_DMARxHalfCplt+0x18>

080041b8 <UART_DMAReceiveCplt>:
 80041b8:	b508      	push	{r3, lr}
 80041ba:	4603      	mov	r3, r0
 80041bc:	6a80      	ldr	r0, [r0, #40]	@ 0x28
 80041be:	681b      	ldr	r3, [r3, #0]
 80041c0:	681b      	ldr	r3, [r3, #0]
 80041c2:	f013 0320 	ands.w	r3, r3, #32
 80041c6:	d131      	bne.n	800422c <UART_DMAReceiveCplt+0x74>
 80041c8:	f8a0 305a 	strh.w	r3, [r0, #90]	@ 0x5a
 80041cc:	6802      	ldr	r2, [r0, #0]
 80041ce:	e852 3f00 	ldrex	r3, [r2]
 80041d2:	f423 7380 	bic.w	r3, r3, #256	@ 0x100
 80041d6:	e842 3100 	strex	r1, r3, [r2]
 80041da:	6803      	ldr	r3, [r0, #0]
 80041dc:	2900      	cmp	r1, #0
 80041de:	d1f5      	bne.n	80041cc <UART_DMAReceiveCplt+0x14>
 80041e0:	f103 0208 	add.w	r2, r3, #8
 80041e4:	e852 2f00 	ldrex	r2, [r2]
 80041e8:	f022 0201 	bic.w	r2, r2, #1
 80041ec:	f103 0c08 	add.w	ip, r3, #8
 80041f0:	e84c 2100 	strex	r1, r2, [ip]
 80041f4:	2900      	cmp	r1, #0
 80041f6:	d1f3      	bne.n	80041e0 <UART_DMAReceiveCplt+0x28>
 80041f8:	f103 0208 	add.w	r2, r3, #8
 80041fc:	e852 2f00 	ldrex	r2, [r2]
 8004200:	f022 0240 	bic.w	r2, r2, #64	@ 0x40
 8004204:	f103 0c08 	add.w	ip, r3, #8
 8004208:	e84c 2100 	strex	r1, r2, [ip]
 800420c:	2900      	cmp	r1, #0
 800420e:	d1f3      	bne.n	80041f8 <UART_DMAReceiveCplt+0x40>
 8004210:	2220      	movs	r2, #32
 8004212:	f8c0 2080 	str.w	r2, [r0, #128]	@ 0x80
 8004216:	6e02      	ldr	r2, [r0, #96]	@ 0x60
 8004218:	2a01      	cmp	r2, #1
 800421a:	d107      	bne.n	800422c <UART_DMAReceiveCplt+0x74>
 800421c:	e853 2f00 	ldrex	r2, [r3]
 8004220:	f022 0210 	bic.w	r2, r2, #16
 8004224:	e843 2100 	strex	r1, r2, [r3]
 8004228:	2900      	cmp	r1, #0
 800422a:	d1f7      	bne.n	800421c <UART_DMAReceiveCplt+0x64>
 800422c:	2300      	movs	r3, #0
 800422e:	6643      	str	r3, [r0, #100]	@ 0x64
 8004230:	6e03      	ldr	r3, [r0, #96]	@ 0x60
 8004232:	2b01      	cmp	r3, #1
 8004234:	d104      	bne.n	8004240 <UART_DMAReceiveCplt+0x88>
 8004236:	f8b0 1058 	ldrh.w	r1, [r0, #88]	@ 0x58
 800423a:	f7ff fe58 	bl	8003eee <HAL_UARTEx_RxEventCallback>
 800423e:	bd08      	pop	{r3, pc}
 8004240:	f7ff fe1e 	bl	8003e80 <HAL_UART_RxCpltCallback>
 8004244:	e7fb      	b.n	800423e <UART_DMAReceiveCplt+0x86>
	...

08004248 <UART_SetConfig>:
 8004248:	b538      	push	{r3, r4, r5, lr}
 800424a:	4604      	mov	r4, r0
 800424c:	69c0      	ldr	r0, [r0, #28]
 800424e:	6921      	ldr	r1, [r4, #16]
 8004250:	68a2      	ldr	r2, [r4, #8]
 8004252:	6823      	ldr	r3, [r4, #0]
 8004254:	430a      	orrs	r2, r1
 8004256:	6961      	ldr	r1, [r4, #20]
 8004258:	681d      	ldr	r5, [r3, #0]
 800425a:	430a      	orrs	r2, r1
 800425c:	495e      	ldr	r1, [pc, #376]	@ (80043d8 <UART_SetConfig+0x190>)
 800425e:	4302      	orrs	r2, r0
 8004260:	4029      	ands	r1, r5
 8004262:	430a      	orrs	r2, r1
 8004264:	601a      	str	r2, [r3, #0]
 8004266:	685a      	ldr	r2, [r3, #4]
 8004268:	68e1      	ldr	r1, [r4, #12]
 800426a:	f422 5240 	bic.w	r2, r2, #12288	@ 0x3000
 800426e:	430a      	orrs	r2, r1
 8004270:	605a      	str	r2, [r3, #4]
 8004272:	4a5a      	ldr	r2, [pc, #360]	@ (80043dc <UART_SetConfig+0x194>)
 8004274:	69a1      	ldr	r1, [r4, #24]
 8004276:	4293      	cmp	r3, r2
 8004278:	bf1c      	itt	ne
 800427a:	6a22      	ldrne	r2, [r4, #32]
 800427c:	4311      	orrne	r1, r2
 800427e:	689a      	ldr	r2, [r3, #8]
 8004280:	f422 6230 	bic.w	r2, r2, #2816	@ 0xb00
 8004284:	430a      	orrs	r2, r1
 8004286:	609a      	str	r2, [r3, #8]
 8004288:	4a55      	ldr	r2, [pc, #340]	@ (80043e0 <UART_SetConfig+0x198>)
 800428a:	4293      	cmp	r3, r2
 800428c:	d114      	bne.n	80042b8 <UART_SetConfig+0x70>
 800428e:	4b55      	ldr	r3, [pc, #340]	@ (80043e4 <UART_SetConfig+0x19c>)
 8004290:	f8d3 3088 	ldr.w	r3, [r3, #136]	@ 0x88
 8004294:	f003 0303 	and.w	r3, r3, #3
 8004298:	2b02      	cmp	r3, #2
 800429a:	f000 8094 	beq.w	80043c6 <UART_SetConfig+0x17e>
 800429e:	2b03      	cmp	r3, #3
 80042a0:	f000 808b 	beq.w	80043ba <UART_SetConfig+0x172>
 80042a4:	2b01      	cmp	r3, #1
 80042a6:	f000 8082 	beq.w	80043ae <UART_SetConfig+0x166>
 80042aa:	f5b0 4f00 	cmp.w	r0, #32768	@ 0x8000
 80042ae:	f000 808f 	beq.w	80043d0 <UART_SetConfig+0x188>
 80042b2:	f7fe fddf 	bl	8002e74 <HAL_RCC_GetPCLK2Freq>
 80042b6:	e011      	b.n	80042dc <UART_SetConfig+0x94>
 80042b8:	4a4b      	ldr	r2, [pc, #300]	@ (80043e8 <UART_SetConfig+0x1a0>)
 80042ba:	4293      	cmp	r3, r2
 80042bc:	d121      	bne.n	8004302 <UART_SetConfig+0xba>
 80042be:	4b49      	ldr	r3, [pc, #292]	@ (80043e4 <UART_SetConfig+0x19c>)
 80042c0:	f8d3 3088 	ldr.w	r3, [r3, #136]	@ 0x88
 80042c4:	f003 030c 	and.w	r3, r3, #12
 80042c8:	2b08      	cmp	r3, #8
 80042ca:	d07c      	beq.n	80043c6 <UART_SetConfig+0x17e>
 80042cc:	d815      	bhi.n	80042fa <UART_SetConfig+0xb2>
 80042ce:	2b00      	cmp	r3, #0
 80042d0:	d16d      	bne.n	80043ae <UART_SetConfig+0x166>
 80042d2:	f5b0 4f00 	cmp.w	r0, #32768	@ 0x8000
 80042d6:	d04e      	beq.n	8004376 <UART_SetConfig+0x12e>
 80042d8:	f7fe fdba 	bl	8002e50 <HAL_RCC_GetPCLK1Freq>
 80042dc:	b308      	cbz	r0, 8004322 <UART_SetConfig+0xda>
 80042de:	6862      	ldr	r2, [r4, #4]
 80042e0:	eb00 0352 	add.w	r3, r0, r2, lsr #1
 80042e4:	fbb3 f3f2 	udiv	r3, r3, r2
 80042e8:	f64f 72ef 	movw	r2, #65519	@ 0xffef
 80042ec:	f1a3 0110 	sub.w	r1, r3, #16
 80042f0:	4291      	cmp	r1, r2
 80042f2:	d804      	bhi.n	80042fe <UART_SetConfig+0xb6>
 80042f4:	6822      	ldr	r2, [r4, #0]
 80042f6:	60d3      	str	r3, [r2, #12]
 80042f8:	e013      	b.n	8004322 <UART_SetConfig+0xda>
 80042fa:	2b0c      	cmp	r3, #12
 80042fc:	d05d      	beq.n	80043ba <UART_SetConfig+0x172>
 80042fe:	2001      	movs	r0, #1
 8004300:	e010      	b.n	8004324 <UART_SetConfig+0xdc>
 8004302:	4a36      	ldr	r2, [pc, #216]	@ (80043dc <UART_SetConfig+0x194>)
 8004304:	4293      	cmp	r3, r2
 8004306:	d1fa      	bne.n	80042fe <UART_SetConfig+0xb6>
 8004308:	4b36      	ldr	r3, [pc, #216]	@ (80043e4 <UART_SetConfig+0x19c>)
 800430a:	f8d3 3088 	ldr.w	r3, [r3, #136]	@ 0x88
 800430e:	f403 6340 	and.w	r3, r3, #3072	@ 0xc00
 8004312:	f5b3 6f00 	cmp.w	r3, #2048	@ 0x800
 8004316:	d012      	beq.n	800433e <UART_SetConfig+0xf6>
 8004318:	d808      	bhi.n	800432c <UART_SetConfig+0xe4>
 800431a:	b96b      	cbnz	r3, 8004338 <UART_SetConfig+0xf0>
 800431c:	f7fe fd98 	bl	8002e50 <HAL_RCC_GetPCLK1Freq>
 8004320:	b970      	cbnz	r0, 8004340 <UART_SetConfig+0xf8>
 8004322:	2000      	movs	r0, #0
 8004324:	2300      	movs	r3, #0
 8004326:	e9c4 331a 	strd	r3, r3, [r4, #104]	@ 0x68
 800432a:	bd38      	pop	{r3, r4, r5, pc}
 800432c:	f5b3 6f40 	cmp.w	r3, #3072	@ 0xc00
 8004330:	d1e5      	bne.n	80042fe <UART_SetConfig+0xb6>
 8004332:	f44f 4000 	mov.w	r0, #32768	@ 0x8000
 8004336:	e003      	b.n	8004340 <UART_SetConfig+0xf8>
 8004338:	f7fe f9f4 	bl	8002724 <HAL_RCC_GetSysClockFreq>
 800433c:	e7f0      	b.n	8004320 <UART_SetConfig+0xd8>
 800433e:	482b      	ldr	r0, [pc, #172]	@ (80043ec <UART_SetConfig+0x1a4>)
 8004340:	6862      	ldr	r2, [r4, #4]
 8004342:	eb02 0342 	add.w	r3, r2, r2, lsl #1
 8004346:	4283      	cmp	r3, r0
 8004348:	d8d9      	bhi.n	80042fe <UART_SetConfig+0xb6>
 800434a:	ebb0 3f02 	cmp.w	r0, r2, lsl #12
 800434e:	d8d6      	bhi.n	80042fe <UART_SetConfig+0xb6>
 8004350:	0851      	lsrs	r1, r2, #1
 8004352:	2300      	movs	r3, #0
 8004354:	468c      	mov	ip, r1
 8004356:	f44f 7580 	mov.w	r5, #256	@ 0x100
 800435a:	4619      	mov	r1, r3
 800435c:	fbe0 c105 	umlal	ip, r1, r0, r5
 8004360:	4660      	mov	r0, ip
 8004362:	f7fc fc03 	bl	8000b6c <__aeabi_uldivmod>
 8004366:	4b22      	ldr	r3, [pc, #136]	@ (80043f0 <UART_SetConfig+0x1a8>)
 8004368:	f5a0 7240 	sub.w	r2, r0, #768	@ 0x300
 800436c:	429a      	cmp	r2, r3
 800436e:	d8c6      	bhi.n	80042fe <UART_SetConfig+0xb6>
 8004370:	6823      	ldr	r3, [r4, #0]
 8004372:	60d8      	str	r0, [r3, #12]
 8004374:	e7d5      	b.n	8004322 <UART_SetConfig+0xda>
 8004376:	f7fe fd6b 	bl	8002e50 <HAL_RCC_GetPCLK1Freq>
 800437a:	2800      	cmp	r0, #0
 800437c:	d0d1      	beq.n	8004322 <UART_SetConfig+0xda>
 800437e:	6862      	ldr	r2, [r4, #4]
 8004380:	0853      	lsrs	r3, r2, #1
 8004382:	eb03 0340 	add.w	r3, r3, r0, lsl #1
 8004386:	fbb3 f3f2 	udiv	r3, r3, r2
 800438a:	f64f 72ef 	movw	r2, #65519	@ 0xffef
 800438e:	f1a3 0110 	sub.w	r1, r3, #16
 8004392:	4291      	cmp	r1, r2
 8004394:	d8b3      	bhi.n	80042fe <UART_SetConfig+0xb6>
 8004396:	f023 020f 	bic.w	r2, r3, #15
 800439a:	6821      	ldr	r1, [r4, #0]
 800439c:	b292      	uxth	r2, r2
 800439e:	f3c3 0342 	ubfx	r3, r3, #1, #3
 80043a2:	4313      	orrs	r3, r2
 80043a4:	60cb      	str	r3, [r1, #12]
 80043a6:	e7bc      	b.n	8004322 <UART_SetConfig+0xda>
 80043a8:	f7fe f9bc 	bl	8002724 <HAL_RCC_GetSysClockFreq>
 80043ac:	e796      	b.n	80042dc <UART_SetConfig+0x94>
 80043ae:	f5b0 4f00 	cmp.w	r0, #32768	@ 0x8000
 80043b2:	d1f9      	bne.n	80043a8 <UART_SetConfig+0x160>
 80043b4:	f7fe f9b6 	bl	8002724 <HAL_RCC_GetSysClockFreq>
 80043b8:	e7df      	b.n	800437a <UART_SetConfig+0x132>
 80043ba:	f5b0 4f00 	cmp.w	r0, #32768	@ 0x8000
 80043be:	d0de      	beq.n	800437e <UART_SetConfig+0x136>
 80043c0:	f44f 4000 	mov.w	r0, #32768	@ 0x8000
 80043c4:	e78b      	b.n	80042de <UART_SetConfig+0x96>
 80043c6:	f5b0 4f00 	cmp.w	r0, #32768	@ 0x8000
 80043ca:	4808      	ldr	r0, [pc, #32]	@ (80043ec <UART_SetConfig+0x1a4>)
 80043cc:	d187      	bne.n	80042de <UART_SetConfig+0x96>
 80043ce:	e7d6      	b.n	800437e <UART_SetConfig+0x136>
 80043d0:	f7fe fd50 	bl	8002e74 <HAL_RCC_GetPCLK2Freq>
 80043d4:	e7d1      	b.n	800437a <UART_SetConfig+0x132>
 80043d6:	bf00      	nop
 80043d8:	efff69f3 	.word	0xefff69f3
 80043dc:	40008000 	.word	0x40008000
 80043e0:	40013800 	.word	0x40013800
 80043e4:	40021000 	.word	0x40021000
 80043e8:	40004400 	.word	0x40004400
 80043ec:	00f42400 	.word	0x00f42400
 80043f0:	000ffcff 	.word	0x000ffcff

080043f4 <UART_AdvFeatureConfig>:
 80043f4:	6a43      	ldr	r3, [r0, #36]	@ 0x24
 80043f6:	071a      	lsls	r2, r3, #28
 80043f8:	b510      	push	{r4, lr}
 80043fa:	d506      	bpl.n	800440a <UART_AdvFeatureConfig+0x16>
 80043fc:	6801      	ldr	r1, [r0, #0]
 80043fe:	6b44      	ldr	r4, [r0, #52]	@ 0x34
 8004400:	684a      	ldr	r2, [r1, #4]
 8004402:	f422 4200 	bic.w	r2, r2, #32768	@ 0x8000
 8004406:	4322      	orrs	r2, r4
 8004408:	604a      	str	r2, [r1, #4]
 800440a:	07dc      	lsls	r4, r3, #31
 800440c:	d506      	bpl.n	800441c <UART_AdvFeatureConfig+0x28>
 800440e:	6801      	ldr	r1, [r0, #0]
 8004410:	6a84      	ldr	r4, [r0, #40]	@ 0x28
 8004412:	684a      	ldr	r2, [r1, #4]
 8004414:	f422 3200 	bic.w	r2, r2, #131072	@ 0x20000
 8004418:	4322      	orrs	r2, r4
 800441a:	604a      	str	r2, [r1, #4]
 800441c:	0799      	lsls	r1, r3, #30
 800441e:	d506      	bpl.n	800442e <UART_AdvFeatureConfig+0x3a>
 8004420:	6801      	ldr	r1, [r0, #0]
 8004422:	6ac4      	ldr	r4, [r0, #44]	@ 0x2c
 8004424:	684a      	ldr	r2, [r1, #4]
 8004426:	f422 3280 	bic.w	r2, r2, #65536	@ 0x10000
 800442a:	4322      	orrs	r2, r4
 800442c:	604a      	str	r2, [r1, #4]
 800442e:	075a      	lsls	r2, r3, #29
 8004430:	d506      	bpl.n	8004440 <UART_AdvFeatureConfig+0x4c>
 8004432:	6801      	ldr	r1, [r0, #0]
 8004434:	6b04      	ldr	r4, [r0, #48]	@ 0x30
 8004436:	684a      	ldr	r2, [r1, #4]
 8004438:	f422 2280 	bic.w	r2, r2, #262144	@ 0x40000
 800443c:	4322      	orrs	r2, r4
 800443e:	604a      	str	r2, [r1, #4]
 8004440:	06dc      	lsls	r4, r3, #27
 8004442:	d506      	bpl.n	8004452 <UART_AdvFeatureConfig+0x5e>
 8004444:	6801      	ldr	r1, [r0, #0]
 8004446:	6b84      	ldr	r4, [r0, #56]	@ 0x38
 8004448:	688a      	ldr	r2, [r1, #8]
 800444a:	f422 5280 	bic.w	r2, r2, #4096	@ 0x1000
 800444e:	4322      	orrs	r2, r4
 8004450:	608a      	str	r2, [r1, #8]
 8004452:	0699      	lsls	r1, r3, #26
 8004454:	d506      	bpl.n	8004464 <UART_AdvFeatureConfig+0x70>
 8004456:	6801      	ldr	r1, [r0, #0]
 8004458:	6bc4      	ldr	r4, [r0, #60]	@ 0x3c
 800445a:	688a      	ldr	r2, [r1, #8]
 800445c:	f422 5200 	bic.w	r2, r2, #8192	@ 0x2000
 8004460:	4322      	orrs	r2, r4
 8004462:	608a      	str	r2, [r1, #8]
 8004464:	065a      	lsls	r2, r3, #25
 8004466:	d50f      	bpl.n	8004488 <UART_AdvFeatureConfig+0x94>
 8004468:	6801      	ldr	r1, [r0, #0]
 800446a:	6c04      	ldr	r4, [r0, #64]	@ 0x40
 800446c:	684a      	ldr	r2, [r1, #4]
 800446e:	f422 1280 	bic.w	r2, r2, #1048576	@ 0x100000
 8004472:	4322      	orrs	r2, r4
 8004474:	f5b4 1f80 	cmp.w	r4, #1048576	@ 0x100000
 8004478:	604a      	str	r2, [r1, #4]
 800447a:	d105      	bne.n	8004488 <UART_AdvFeatureConfig+0x94>
 800447c:	684a      	ldr	r2, [r1, #4]
 800447e:	6c44      	ldr	r4, [r0, #68]	@ 0x44
 8004480:	f422 02c0 	bic.w	r2, r2, #6291456	@ 0x600000
 8004484:	4322      	orrs	r2, r4
 8004486:	604a      	str	r2, [r1, #4]
 8004488:	061b      	lsls	r3, r3, #24
 800448a:	d506      	bpl.n	800449a <UART_AdvFeatureConfig+0xa6>
 800448c:	6802      	ldr	r2, [r0, #0]
 800448e:	6c81      	ldr	r1, [r0, #72]	@ 0x48
 8004490:	6853      	ldr	r3, [r2, #4]
 8004492:	f423 2300 	bic.w	r3, r3, #524288	@ 0x80000
 8004496:	430b      	orrs	r3, r1
 8004498:	6053      	str	r3, [r2, #4]
 800449a:	bd10      	pop	{r4, pc}

0800449c <UART_WaitOnFlagUntilTimeout>:
 800449c:	e92d 43f8 	stmdb	sp!, {r3, r4, r5, r6, r7, r8, r9, lr}
 80044a0:	f8dd 9020 	ldr.w	r9, [sp, #32]
 80044a4:	4604      	mov	r4, r0
 80044a6:	460d      	mov	r5, r1
 80044a8:	4617      	mov	r7, r2
 80044aa:	4698      	mov	r8, r3
 80044ac:	6822      	ldr	r2, [r4, #0]
 80044ae:	69d3      	ldr	r3, [r2, #28]
 80044b0:	ea35 0303 	bics.w	r3, r5, r3
 80044b4:	bf0c      	ite	eq
 80044b6:	2301      	moveq	r3, #1
 80044b8:	2300      	movne	r3, #0
 80044ba:	42bb      	cmp	r3, r7
 80044bc:	d001      	beq.n	80044c2 <UART_WaitOnFlagUntilTimeout+0x26>
 80044be:	2000      	movs	r0, #0
 80044c0:	e022      	b.n	8004508 <UART_WaitOnFlagUntilTimeout+0x6c>
 80044c2:	f1b9 3fff 	cmp.w	r9, #4294967295
 80044c6:	d0f2      	beq.n	80044ae <UART_WaitOnFlagUntilTimeout+0x12>
 80044c8:	f7fd fe32 	bl	8002130 <HAL_GetTick>
 80044cc:	eba0 0008 	sub.w	r0, r0, r8
 80044d0:	4548      	cmp	r0, r9
 80044d2:	d829      	bhi.n	8004528 <UART_WaitOnFlagUntilTimeout+0x8c>
 80044d4:	f1b9 0f00 	cmp.w	r9, #0
 80044d8:	d026      	beq.n	8004528 <UART_WaitOnFlagUntilTimeout+0x8c>
 80044da:	6821      	ldr	r1, [r4, #0]
 80044dc:	680b      	ldr	r3, [r1, #0]
 80044de:	075a      	lsls	r2, r3, #29
 80044e0:	d5e4      	bpl.n	80044ac <UART_WaitOnFlagUntilTimeout+0x10>
 80044e2:	2d80      	cmp	r5, #128	@ 0x80
 80044e4:	d0e2      	beq.n	80044ac <UART_WaitOnFlagUntilTimeout+0x10>
 80044e6:	2d40      	cmp	r5, #64	@ 0x40
 80044e8:	d0e0      	beq.n	80044ac <UART_WaitOnFlagUntilTimeout+0x10>
 80044ea:	69ce      	ldr	r6, [r1, #28]
 80044ec:	f016 0608 	ands.w	r6, r6, #8
 80044f0:	d00c      	beq.n	800450c <UART_WaitOnFlagUntilTimeout+0x70>
 80044f2:	2508      	movs	r5, #8
 80044f4:	4620      	mov	r0, r4
 80044f6:	620d      	str	r5, [r1, #32]
 80044f8:	f7ff fc99 	bl	8003e2e <UART_EndRxTransfer>
 80044fc:	2300      	movs	r3, #0
 80044fe:	f8c4 5084 	str.w	r5, [r4, #132]	@ 0x84
 8004502:	f884 3078 	strb.w	r3, [r4, #120]	@ 0x78
 8004506:	2001      	movs	r0, #1
 8004508:	e8bd 83f8 	ldmia.w	sp!, {r3, r4, r5, r6, r7, r8, r9, pc}
 800450c:	69cb      	ldr	r3, [r1, #28]
 800450e:	051b      	lsls	r3, r3, #20
 8004510:	d5cc      	bpl.n	80044ac <UART_WaitOnFlagUntilTimeout+0x10>
 8004512:	f44f 6300 	mov.w	r3, #2048	@ 0x800
 8004516:	620b      	str	r3, [r1, #32]
 8004518:	4620      	mov	r0, r4
 800451a:	f7ff fc88 	bl	8003e2e <UART_EndRxTransfer>
 800451e:	2320      	movs	r3, #32
 8004520:	f8c4 3084 	str.w	r3, [r4, #132]	@ 0x84
 8004524:	f884 6078 	strb.w	r6, [r4, #120]	@ 0x78
 8004528:	2003      	movs	r0, #3
 800452a:	e7ed      	b.n	8004508 <UART_WaitOnFlagUntilTimeout+0x6c>

0800452c <UART_CheckIdleState>:
 800452c:	b573      	push	{r0, r1, r4, r5, r6, lr}
 800452e:	4604      	mov	r4, r0
 8004530:	2600      	movs	r6, #0
 8004532:	f8c0 6084 	str.w	r6, [r0, #132]	@ 0x84
 8004536:	f7fd fdfb 	bl	8002130 <HAL_GetTick>
 800453a:	6823      	ldr	r3, [r4, #0]
 800453c:	681b      	ldr	r3, [r3, #0]
 800453e:	071a      	lsls	r2, r3, #28
 8004540:	4605      	mov	r5, r0
 8004542:	d51b      	bpl.n	800457c <UART_CheckIdleState+0x50>
 8004544:	f06f 437e 	mvn.w	r3, #4261412864	@ 0xfe000000
 8004548:	9300      	str	r3, [sp, #0]
 800454a:	4632      	mov	r2, r6
 800454c:	4603      	mov	r3, r0
 800454e:	f44f 1100 	mov.w	r1, #2097152	@ 0x200000
 8004552:	4620      	mov	r0, r4
 8004554:	f7ff ffa2 	bl	800449c <UART_WaitOnFlagUntilTimeout>
 8004558:	b180      	cbz	r0, 800457c <UART_CheckIdleState+0x50>
 800455a:	6822      	ldr	r2, [r4, #0]
 800455c:	e852 3f00 	ldrex	r3, [r2]
 8004560:	f023 0380 	bic.w	r3, r3, #128	@ 0x80
 8004564:	e842 3100 	strex	r1, r3, [r2]
 8004568:	2900      	cmp	r1, #0
 800456a:	d1f6      	bne.n	800455a <UART_CheckIdleState+0x2e>
 800456c:	2320      	movs	r3, #32
 800456e:	67e3      	str	r3, [r4, #124]	@ 0x7c
 8004570:	2003      	movs	r0, #3
 8004572:	2300      	movs	r3, #0
 8004574:	f884 3078 	strb.w	r3, [r4, #120]	@ 0x78
 8004578:	b002      	add	sp, #8
 800457a:	bd70      	pop	{r4, r5, r6, pc}
 800457c:	6823      	ldr	r3, [r4, #0]
 800457e:	681b      	ldr	r3, [r3, #0]
 8004580:	075b      	lsls	r3, r3, #29
 8004582:	d524      	bpl.n	80045ce <UART_CheckIdleState+0xa2>
 8004584:	f06f 437e 	mvn.w	r3, #4261412864	@ 0xfe000000
 8004588:	9300      	str	r3, [sp, #0]
 800458a:	2200      	movs	r2, #0
 800458c:	462b      	mov	r3, r5
 800458e:	f44f 0180 	mov.w	r1, #4194304	@ 0x400000
 8004592:	4620      	mov	r0, r4
 8004594:	f7ff ff82 	bl	800449c <UART_WaitOnFlagUntilTimeout>
 8004598:	b1c8      	cbz	r0, 80045ce <UART_CheckIdleState+0xa2>
 800459a:	6822      	ldr	r2, [r4, #0]
 800459c:	e852 3f00 	ldrex	r3, [r2]
 80045a0:	f423 7390 	bic.w	r3, r3, #288	@ 0x120
 80045a4:	e842 3100 	strex	r1, r3, [r2]
 80045a8:	6822      	ldr	r2, [r4, #0]
 80045aa:	2900      	cmp	r1, #0
 80045ac:	d1f5      	bne.n	800459a <UART_CheckIdleState+0x6e>
 80045ae:	f102 0308 	add.w	r3, r2, #8
 80045b2:	e853 3f00 	ldrex	r3, [r3]
 80045b6:	f023 0301 	bic.w	r3, r3, #1
 80045ba:	f102 0008 	add.w	r0, r2, #8
 80045be:	e840 3100 	strex	r1, r3, [r0]
 80045c2:	2900      	cmp	r1, #0
 80045c4:	d1f3      	bne.n	80045ae <UART_CheckIdleState+0x82>
 80045c6:	2320      	movs	r3, #32
 80045c8:	f8c4 3080 	str.w	r3, [r4, #128]	@ 0x80
 80045cc:	e7d0      	b.n	8004570 <UART_CheckIdleState+0x44>
 80045ce:	2320      	movs	r3, #32
 80045d0:	2000      	movs	r0, #0
 80045d2:	67e3      	str	r3, [r4, #124]	@ 0x7c
 80045d4:	f8c4 3080 	str.w	r3, [r4, #128]	@ 0x80
 80045d8:	6620      	str	r0, [r4, #96]	@ 0x60
 80045da:	6660      	str	r0, [r4, #100]	@ 0x64
 80045dc:	e7c9      	b.n	8004572 <UART_CheckIdleState+0x46>

080045de <HAL_UART_Init>:
 80045de:	b510      	push	{r4, lr}
 80045e0:	4604      	mov	r4, r0
 80045e2:	b340      	cbz	r0, 8004636 <HAL_UART_Init+0x58>
 80045e4:	6fc3      	ldr	r3, [r0, #124]	@ 0x7c
 80045e6:	b91b      	cbnz	r3, 80045f0 <HAL_UART_Init+0x12>
 80045e8:	f880 3078 	strb.w	r3, [r0, #120]	@ 0x78
 80045ec:	f7fd fcc6 	bl	8001f7c <HAL_UART_MspInit>
 80045f0:	6822      	ldr	r2, [r4, #0]
 80045f2:	2324      	movs	r3, #36	@ 0x24
 80045f4:	67e3      	str	r3, [r4, #124]	@ 0x7c
 80045f6:	6813      	ldr	r3, [r2, #0]
 80045f8:	f023 0301 	bic.w	r3, r3, #1
 80045fc:	6013      	str	r3, [r2, #0]
 80045fe:	6a63      	ldr	r3, [r4, #36]	@ 0x24
 8004600:	b113      	cbz	r3, 8004608 <HAL_UART_Init+0x2a>
 8004602:	4620      	mov	r0, r4
 8004604:	f7ff fef6 	bl	80043f4 <UART_AdvFeatureConfig>
 8004608:	4620      	mov	r0, r4
 800460a:	f7ff fe1d 	bl	8004248 <UART_SetConfig>
 800460e:	2801      	cmp	r0, #1
 8004610:	d011      	beq.n	8004636 <HAL_UART_Init+0x58>
 8004612:	6823      	ldr	r3, [r4, #0]
 8004614:	685a      	ldr	r2, [r3, #4]
 8004616:	f422 4290 	bic.w	r2, r2, #18432	@ 0x4800
 800461a:	605a      	str	r2, [r3, #4]
 800461c:	689a      	ldr	r2, [r3, #8]
 800461e:	f022 022a 	bic.w	r2, r2, #42	@ 0x2a
 8004622:	609a      	str	r2, [r3, #8]
 8004624:	681a      	ldr	r2, [r3, #0]
 8004626:	f042 0201 	orr.w	r2, r2, #1
 800462a:	4620      	mov	r0, r4
 800462c:	601a      	str	r2, [r3, #0]
 800462e:	e8bd 4010 	ldmia.w	sp!, {r4, lr}
 8004632:	f7ff bf7b 	b.w	800452c <UART_CheckIdleState>
 8004636:	2001      	movs	r0, #1
 8004638:	bd10      	pop	{r4, pc}
	...

0800463c <UART_Start_Receive_DMA>:
 800463c:	b570      	push	{r4, r5, r6, lr}
 800463e:	4613      	mov	r3, r2
 8004640:	4604      	mov	r4, r0
 8004642:	f8a0 2058 	strh.w	r2, [r0, #88]	@ 0x58
 8004646:	2200      	movs	r2, #0
 8004648:	6541      	str	r1, [r0, #84]	@ 0x54
 800464a:	f8c0 2084 	str.w	r2, [r0, #132]	@ 0x84
 800464e:	2022      	movs	r0, #34	@ 0x22
 8004650:	f8c4 0080 	str.w	r0, [r4, #128]	@ 0x80
 8004654:	6f60      	ldr	r0, [r4, #116]	@ 0x74
 8004656:	6825      	ldr	r5, [r4, #0]
 8004658:	b1a0      	cbz	r0, 8004684 <UART_Start_Receive_DMA+0x48>
 800465a:	4e1c      	ldr	r6, [pc, #112]	@ (80046cc <UART_Start_Receive_DMA+0x90>)
 800465c:	62c6      	str	r6, [r0, #44]	@ 0x2c
 800465e:	4e1c      	ldr	r6, [pc, #112]	@ (80046d0 <UART_Start_Receive_DMA+0x94>)
 8004660:	6306      	str	r6, [r0, #48]	@ 0x30
 8004662:	4e1c      	ldr	r6, [pc, #112]	@ (80046d4 <UART_Start_Receive_DMA+0x98>)
 8004664:	e9c0 620d 	strd	r6, r2, [r0, #52]	@ 0x34
 8004668:	460a      	mov	r2, r1
 800466a:	f105 0124 	add.w	r1, r5, #36	@ 0x24
 800466e:	f7fd fe3f 	bl	80022f0 <HAL_DMA_Start_IT>
 8004672:	b138      	cbz	r0, 8004684 <UART_Start_Receive_DMA+0x48>
 8004674:	2310      	movs	r3, #16
 8004676:	f8c4 3084 	str.w	r3, [r4, #132]	@ 0x84
 800467a:	2320      	movs	r3, #32
 800467c:	f8c4 3080 	str.w	r3, [r4, #128]	@ 0x80
 8004680:	2001      	movs	r0, #1
 8004682:	bd70      	pop	{r4, r5, r6, pc}
 8004684:	6922      	ldr	r2, [r4, #16]
 8004686:	6823      	ldr	r3, [r4, #0]
 8004688:	b13a      	cbz	r2, 800469a <UART_Start_Receive_DMA+0x5e>
 800468a:	e853 2f00 	ldrex	r2, [r3]
 800468e:	f442 7280 	orr.w	r2, r2, #256	@ 0x100
 8004692:	e843 2100 	strex	r1, r2, [r3]
 8004696:	2900      	cmp	r1, #0
 8004698:	d1f7      	bne.n	800468a <UART_Start_Receive_DMA+0x4e>
 800469a:	f103 0208 	add.w	r2, r3, #8
 800469e:	e852 2f00 	ldrex	r2, [r2]
 80046a2:	f042 0201 	orr.w	r2, r2, #1
 80046a6:	f103 0008 	add.w	r0, r3, #8
 80046aa:	e840 2100 	strex	r1, r2, [r0]
 80046ae:	2900      	cmp	r1, #0
 80046b0:	d1f3      	bne.n	800469a <UART_Start_Receive_DMA+0x5e>
 80046b2:	f103 0208 	add.w	r2, r3, #8
 80046b6:	e852 2f00 	ldrex	r2, [r2]
 80046ba:	f042 0240 	orr.w	r2, r2, #64	@ 0x40
 80046be:	f103 0108 	add.w	r1, r3, #8
 80046c2:	e841 2000 	strex	r0, r2, [r1]
 80046c6:	2800      	cmp	r0, #0
 80046c8:	d1f3      	bne.n	80046b2 <UART_Start_Receive_DMA+0x76>
 80046ca:	e7da      	b.n	8004682 <UART_Start_Receive_DMA+0x46>
 80046cc:	080041b9 	.word	0x080041b9
 80046d0:	08004199 	.word	0x08004199
 80046d4:	08003e85 	.word	0x08003e85

080046d8 <HAL_UART_Receive_DMA>:
 80046d8:	f8d0 3080 	ldr.w	r3, [r0, #128]	@ 0x80
 80046dc:	2b20      	cmp	r3, #32
 80046de:	b430      	push	{r4, r5}
 80046e0:	d115      	bne.n	800470e <HAL_UART_Receive_DMA+0x36>
 80046e2:	b1b9      	cbz	r1, 8004714 <HAL_UART_Receive_DMA+0x3c>
 80046e4:	b1b2      	cbz	r2, 8004714 <HAL_UART_Receive_DMA+0x3c>
 80046e6:	2300      	movs	r3, #0
 80046e8:	6804      	ldr	r4, [r0, #0]
 80046ea:	6603      	str	r3, [r0, #96]	@ 0x60
 80046ec:	4b0a      	ldr	r3, [pc, #40]	@ (8004718 <HAL_UART_Receive_DMA+0x40>)
 80046ee:	429c      	cmp	r4, r3
 80046f0:	d00a      	beq.n	8004708 <HAL_UART_Receive_DMA+0x30>
 80046f2:	6863      	ldr	r3, [r4, #4]
 80046f4:	021b      	lsls	r3, r3, #8
 80046f6:	d507      	bpl.n	8004708 <HAL_UART_Receive_DMA+0x30>
 80046f8:	e854 3f00 	ldrex	r3, [r4]
 80046fc:	f043 6380 	orr.w	r3, r3, #67108864	@ 0x4000000
 8004700:	e844 3500 	strex	r5, r3, [r4]
 8004704:	2d00      	cmp	r5, #0
 8004706:	d1f7      	bne.n	80046f8 <HAL_UART_Receive_DMA+0x20>
 8004708:	bc30      	pop	{r4, r5}
 800470a:	f7ff bf97 	b.w	800463c <UART_Start_Receive_DMA>
 800470e:	2002      	movs	r0, #2
 8004710:	bc30      	pop	{r4, r5}
 8004712:	4770      	bx	lr
 8004714:	2001      	movs	r0, #1
 8004716:	e7fb      	b.n	8004710 <HAL_UART_Receive_DMA+0x38>
 8004718:	40008000 	.word	0x40008000

0800471c <HAL_UARTEx_WakeupCallback>:
 800471c:	4770      	bx	lr

0800471e <regUpdate>:
 800471e:	b580      	push	{r7, lr}
 8004720:	b082      	sub	sp, #8
 8004722:	af00      	add	r7, sp, #0
 8004724:	6078      	str	r0, [r7, #4]
 8004726:	460b      	mov	r3, r1
 8004728:	70fb      	strb	r3, [r7, #3]
 800472a:	78fb      	ldrb	r3, [r7, #3]
 800472c:	4619      	mov	r1, r3
 800472e:	6878      	ldr	r0, [r7, #4]
 8004730:	f000 f859 	bl	80047e6 <SCPI_RegGet>
 8004734:	4603      	mov	r3, r0
 8004736:	461a      	mov	r2, r3
 8004738:	78fb      	ldrb	r3, [r7, #3]
 800473a:	4619      	mov	r1, r3
 800473c:	6878      	ldr	r0, [r7, #4]
 800473e:	f000 f88d 	bl	800485c <SCPI_RegSet>
 8004742:	bf00      	nop
 8004744:	3708      	adds	r7, #8
 8004746:	46bd      	mov	sp, r7
 8004748:	bd80      	pop	{r7, pc}

0800474a <regUpdateEvent>:
 800474a:	b590      	push	{r4, r7, lr}
 800474c:	b085      	sub	sp, #20
 800474e:	af00      	add	r7, sp, #0
 8004750:	60f8      	str	r0, [r7, #12]
 8004752:	4608      	mov	r0, r1
 8004754:	4611      	mov	r1, r2
 8004756:	461a      	mov	r2, r3
 8004758:	4603      	mov	r3, r0
 800475a:	817b      	strh	r3, [r7, #10]
 800475c:	460b      	mov	r3, r1
 800475e:	813b      	strh	r3, [r7, #8]
 8004760:	4613      	mov	r3, r2
 8004762:	71fb      	strb	r3, [r7, #7]
 8004764:	897b      	ldrh	r3, [r7, #10]
 8004766:	43db      	mvns	r3, r3
 8004768:	b29a      	uxth	r2, r3
 800476a:	893b      	ldrh	r3, [r7, #8]
 800476c:	4013      	ands	r3, r2
 800476e:	b29c      	uxth	r4, r3
 8004770:	79fb      	ldrb	r3, [r7, #7]
 8004772:	4619      	mov	r1, r3
 8004774:	68f8      	ldr	r0, [r7, #12]
 8004776:	f000 f836 	bl	80047e6 <SCPI_RegGet>
 800477a:	4603      	mov	r3, r0
 800477c:	4323      	orrs	r3, r4
 800477e:	b29a      	uxth	r2, r3
 8004780:	79fb      	ldrb	r3, [r7, #7]
 8004782:	4619      	mov	r1, r3
 8004784:	68f8      	ldr	r0, [r7, #12]
 8004786:	f000 f869 	bl	800485c <SCPI_RegSet>
 800478a:	bf00      	nop
 800478c:	3714      	adds	r7, #20
 800478e:	46bd      	mov	sp, r7
 8004790:	bd90      	pop	{r4, r7, pc}

08004792 <regUpdateSTB>:
 8004792:	b580      	push	{r7, lr}
 8004794:	b084      	sub	sp, #16
 8004796:	af00      	add	r7, sp, #0
 8004798:	60f8      	str	r0, [r7, #12]
 800479a:	4608      	mov	r0, r1
 800479c:	4611      	mov	r1, r2
 800479e:	461a      	mov	r2, r3
 80047a0:	4603      	mov	r3, r0
 80047a2:	817b      	strh	r3, [r7, #10]
 80047a4:	460b      	mov	r3, r1
 80047a6:	727b      	strb	r3, [r7, #9]
 80047a8:	4613      	mov	r3, r2
 80047aa:	80fb      	strh	r3, [r7, #6]
 80047ac:	7a7b      	ldrb	r3, [r7, #9]
 80047ae:	4619      	mov	r1, r3
 80047b0:	68f8      	ldr	r0, [r7, #12]
 80047b2:	f000 f818 	bl	80047e6 <SCPI_RegGet>
 80047b6:	4603      	mov	r3, r0
 80047b8:	461a      	mov	r2, r3
 80047ba:	897b      	ldrh	r3, [r7, #10]
 80047bc:	4013      	ands	r3, r2
 80047be:	b29b      	uxth	r3, r3
 80047c0:	2b00      	cmp	r3, #0
 80047c2:	d006      	beq.n	80047d2 <regUpdateSTB+0x40>
 80047c4:	88fb      	ldrh	r3, [r7, #6]
 80047c6:	461a      	mov	r2, r3
 80047c8:	2100      	movs	r1, #0
 80047ca:	68f8      	ldr	r0, [r7, #12]
 80047cc:	f000 f8f0 	bl	80049b0 <SCPI_RegSetBits>
 80047d0:	e005      	b.n	80047de <regUpdateSTB+0x4c>
 80047d2:	88fb      	ldrh	r3, [r7, #6]
 80047d4:	461a      	mov	r2, r3
 80047d6:	2100      	movs	r1, #0
 80047d8:	68f8      	ldr	r0, [r7, #12]
 80047da:	f000 f904 	bl	80049e6 <SCPI_RegClearBits>
 80047de:	bf00      	nop
 80047e0:	3710      	adds	r7, #16
 80047e2:	46bd      	mov	sp, r7
 80047e4:	bd80      	pop	{r7, pc}

080047e6 <SCPI_RegGet>:
 80047e6:	b480      	push	{r7}
 80047e8:	b083      	sub	sp, #12
 80047ea:	af00      	add	r7, sp, #0
 80047ec:	6078      	str	r0, [r7, #4]
 80047ee:	460b      	mov	r3, r1
 80047f0:	70fb      	strb	r3, [r7, #3]
 80047f2:	78fb      	ldrb	r3, [r7, #3]
 80047f4:	2b09      	cmp	r3, #9
 80047f6:	d808      	bhi.n	800480a <SCPI_RegGet+0x24>
 80047f8:	687b      	ldr	r3, [r7, #4]
 80047fa:	2b00      	cmp	r3, #0
 80047fc:	d005      	beq.n	800480a <SCPI_RegGet+0x24>
 80047fe:	78fa      	ldrb	r2, [r7, #3]
 8004800:	687b      	ldr	r3, [r7, #4]
 8004802:	3224      	adds	r2, #36	@ 0x24
 8004804:	f833 3012 	ldrh.w	r3, [r3, r2, lsl #1]
 8004808:	e000      	b.n	800480c <SCPI_RegGet+0x26>
 800480a:	2300      	movs	r3, #0
 800480c:	4618      	mov	r0, r3
 800480e:	370c      	adds	r7, #12
 8004810:	46bd      	mov	sp, r7
 8004812:	f85d 7b04 	ldr.w	r7, [sp], #4
 8004816:	4770      	bx	lr

08004818 <writeControl>:
 8004818:	b580      	push	{r7, lr}
 800481a:	b082      	sub	sp, #8
 800481c:	af00      	add	r7, sp, #0
 800481e:	6078      	str	r0, [r7, #4]
 8004820:	460b      	mov	r3, r1
 8004822:	70fb      	strb	r3, [r7, #3]
 8004824:	4613      	mov	r3, r2
 8004826:	803b      	strh	r3, [r7, #0]
 8004828:	687b      	ldr	r3, [r7, #4]
 800482a:	2b00      	cmp	r3, #0
 800482c:	d011      	beq.n	8004852 <writeControl+0x3a>
 800482e:	687b      	ldr	r3, [r7, #4]
 8004830:	6adb      	ldr	r3, [r3, #44]	@ 0x2c
 8004832:	2b00      	cmp	r3, #0
 8004834:	d00d      	beq.n	8004852 <writeControl+0x3a>
 8004836:	687b      	ldr	r3, [r7, #4]
 8004838:	6adb      	ldr	r3, [r3, #44]	@ 0x2c
 800483a:	689b      	ldr	r3, [r3, #8]
 800483c:	2b00      	cmp	r3, #0
 800483e:	d008      	beq.n	8004852 <writeControl+0x3a>
 8004840:	687b      	ldr	r3, [r7, #4]
 8004842:	6adb      	ldr	r3, [r3, #44]	@ 0x2c
 8004844:	689b      	ldr	r3, [r3, #8]
 8004846:	883a      	ldrh	r2, [r7, #0]
 8004848:	78f9      	ldrb	r1, [r7, #3]
 800484a:	6878      	ldr	r0, [r7, #4]
 800484c:	4798      	blx	r3
 800484e:	4603      	mov	r3, r0
 8004850:	e000      	b.n	8004854 <writeControl+0x3c>
 8004852:	2300      	movs	r3, #0
 8004854:	4618      	mov	r0, r3
 8004856:	3708      	adds	r7, #8
 8004858:	46bd      	mov	sp, r7
 800485a:	bd80      	pop	{r7, pc}

0800485c <SCPI_RegSet>:
 800485c:	b580      	push	{r7, lr}
 800485e:	b084      	sub	sp, #16
 8004860:	af00      	add	r7, sp, #0
 8004862:	6078      	str	r0, [r7, #4]
 8004864:	460b      	mov	r3, r1
 8004866:	70fb      	strb	r3, [r7, #3]
 8004868:	4613      	mov	r3, r2
 800486a:	803b      	strh	r3, [r7, #0]
 800486c:	2300      	movs	r3, #0
 800486e:	73fb      	strb	r3, [r7, #15]
 8004870:	78fb      	ldrb	r3, [r7, #3]
 8004872:	2b09      	cmp	r3, #9
 8004874:	f200 8098 	bhi.w	80049a8 <SCPI_RegSet+0x14c>
 8004878:	687b      	ldr	r3, [r7, #4]
 800487a:	2b00      	cmp	r3, #0
 800487c:	f000 8094 	beq.w	80049a8 <SCPI_RegSet+0x14c>
 8004880:	78fa      	ldrb	r2, [r7, #3]
 8004882:	687b      	ldr	r3, [r7, #4]
 8004884:	3224      	adds	r2, #36	@ 0x24
 8004886:	f833 3012 	ldrh.w	r3, [r3, r2, lsl #1]
 800488a:	81bb      	strh	r3, [r7, #12]
 800488c:	78fa      	ldrb	r2, [r7, #3]
 800488e:	687b      	ldr	r3, [r7, #4]
 8004890:	3224      	adds	r2, #36	@ 0x24
 8004892:	8839      	ldrh	r1, [r7, #0]
 8004894:	f823 1012 	strh.w	r1, [r3, r2, lsl #1]
 8004898:	78fb      	ldrb	r3, [r7, #3]
 800489a:	2b0a      	cmp	r3, #10
 800489c:	d870      	bhi.n	8004980 <SCPI_RegSet+0x124>
 800489e:	a201      	add	r2, pc, #4	@ (adr r2, 80048a4 <SCPI_RegSet+0x48>)
 80048a0:	f852 f023 	ldr.w	pc, [r2, r3, lsl #2]
 80048a4:	080048d1 	.word	0x080048d1
 80048a8:	08004911 	.word	0x08004911
 80048ac:	0800491b 	.word	0x0800491b
 80048b0:	08004929 	.word	0x08004929
 80048b4:	08004959 	.word	0x08004959
 80048b8:	08004967 	.word	0x08004967
 80048bc:	08004971 	.word	0x08004971
 80048c0:	08004933 	.word	0x08004933
 80048c4:	08004941 	.word	0x08004941
 80048c8:	0800494b 	.word	0x0800494b
 80048cc:	08004981 	.word	0x08004981
 80048d0:	2101      	movs	r1, #1
 80048d2:	6878      	ldr	r0, [r7, #4]
 80048d4:	f7ff ff87 	bl	80047e6 <SCPI_RegGet>
 80048d8:	4603      	mov	r3, r0
 80048da:	817b      	strh	r3, [r7, #10]
 80048dc:	897b      	ldrh	r3, [r7, #10]
 80048de:	f023 0340 	bic.w	r3, r3, #64	@ 0x40
 80048e2:	817b      	strh	r3, [r7, #10]
 80048e4:	883a      	ldrh	r2, [r7, #0]
 80048e6:	897b      	ldrh	r3, [r7, #10]
 80048e8:	4013      	ands	r3, r2
 80048ea:	b29b      	uxth	r3, r3
 80048ec:	2b00      	cmp	r3, #0
 80048ee:	d00a      	beq.n	8004906 <SCPI_RegSet+0xaa>
 80048f0:	883b      	ldrh	r3, [r7, #0]
 80048f2:	f043 0340 	orr.w	r3, r3, #64	@ 0x40
 80048f6:	803b      	strh	r3, [r7, #0]
 80048f8:	89ba      	ldrh	r2, [r7, #12]
 80048fa:	883b      	ldrh	r3, [r7, #0]
 80048fc:	429a      	cmp	r2, r3
 80048fe:	d03e      	beq.n	800497e <SCPI_RegSet+0x122>
 8004900:	2301      	movs	r3, #1
 8004902:	73fb      	strb	r3, [r7, #15]
 8004904:	e03b      	b.n	800497e <SCPI_RegSet+0x122>
 8004906:	883b      	ldrh	r3, [r7, #0]
 8004908:	f023 0340 	bic.w	r3, r3, #64	@ 0x40
 800490c:	803b      	strh	r3, [r7, #0]
 800490e:	e036      	b.n	800497e <SCPI_RegSet+0x122>
 8004910:	2100      	movs	r1, #0
 8004912:	6878      	ldr	r0, [r7, #4]
 8004914:	f7ff ff03 	bl	800471e <regUpdate>
 8004918:	e032      	b.n	8004980 <SCPI_RegSet+0x124>
 800491a:	8839      	ldrh	r1, [r7, #0]
 800491c:	2320      	movs	r3, #32
 800491e:	2203      	movs	r2, #3
 8004920:	6878      	ldr	r0, [r7, #4]
 8004922:	f7ff ff36 	bl	8004792 <regUpdateSTB>
 8004926:	e02b      	b.n	8004980 <SCPI_RegSet+0x124>
 8004928:	2102      	movs	r1, #2
 800492a:	6878      	ldr	r0, [r7, #4]
 800492c:	f7ff fef7 	bl	800471e <regUpdate>
 8004930:	e026      	b.n	8004980 <SCPI_RegSet+0x124>
 8004932:	8839      	ldrh	r1, [r7, #0]
 8004934:	2308      	movs	r3, #8
 8004936:	2208      	movs	r2, #8
 8004938:	6878      	ldr	r0, [r7, #4]
 800493a:	f7ff ff2a 	bl	8004792 <regUpdateSTB>
 800493e:	e01f      	b.n	8004980 <SCPI_RegSet+0x124>
 8004940:	2107      	movs	r1, #7
 8004942:	6878      	ldr	r0, [r7, #4]
 8004944:	f7ff feeb 	bl	800471e <regUpdate>
 8004948:	e01a      	b.n	8004980 <SCPI_RegSet+0x124>
 800494a:	883a      	ldrh	r2, [r7, #0]
 800494c:	89b9      	ldrh	r1, [r7, #12]
 800494e:	2307      	movs	r3, #7
 8004950:	6878      	ldr	r0, [r7, #4]
 8004952:	f7ff fefa 	bl	800474a <regUpdateEvent>
 8004956:	e013      	b.n	8004980 <SCPI_RegSet+0x124>
 8004958:	8839      	ldrh	r1, [r7, #0]
 800495a:	2380      	movs	r3, #128	@ 0x80
 800495c:	2205      	movs	r2, #5
 800495e:	6878      	ldr	r0, [r7, #4]
 8004960:	f7ff ff17 	bl	8004792 <regUpdateSTB>
 8004964:	e00c      	b.n	8004980 <SCPI_RegSet+0x124>
 8004966:	2104      	movs	r1, #4
 8004968:	6878      	ldr	r0, [r7, #4]
 800496a:	f7ff fed8 	bl	800471e <regUpdate>
 800496e:	e007      	b.n	8004980 <SCPI_RegSet+0x124>
 8004970:	883a      	ldrh	r2, [r7, #0]
 8004972:	89b9      	ldrh	r1, [r7, #12]
 8004974:	2304      	movs	r3, #4
 8004976:	6878      	ldr	r0, [r7, #4]
 8004978:	f7ff fee7 	bl	800474a <regUpdateEvent>
 800497c:	e000      	b.n	8004980 <SCPI_RegSet+0x124>
 800497e:	bf00      	nop
 8004980:	78fa      	ldrb	r2, [r7, #3]
 8004982:	687b      	ldr	r3, [r7, #4]
 8004984:	3224      	adds	r2, #36	@ 0x24
 8004986:	8839      	ldrh	r1, [r7, #0]
 8004988:	f823 1012 	strh.w	r1, [r3, r2, lsl #1]
 800498c:	7bfb      	ldrb	r3, [r7, #15]
 800498e:	2b00      	cmp	r3, #0
 8004990:	d00b      	beq.n	80049aa <SCPI_RegSet+0x14e>
 8004992:	2100      	movs	r1, #0
 8004994:	6878      	ldr	r0, [r7, #4]
 8004996:	f7ff ff26 	bl	80047e6 <SCPI_RegGet>
 800499a:	4603      	mov	r3, r0
 800499c:	461a      	mov	r2, r3
 800499e:	2101      	movs	r1, #1
 80049a0:	6878      	ldr	r0, [r7, #4]
 80049a2:	f7ff ff39 	bl	8004818 <writeControl>
 80049a6:	e000      	b.n	80049aa <SCPI_RegSet+0x14e>
 80049a8:	bf00      	nop
 80049aa:	3710      	adds	r7, #16
 80049ac:	46bd      	mov	sp, r7
 80049ae:	bd80      	pop	{r7, pc}

080049b0 <SCPI_RegSetBits>:
 80049b0:	b580      	push	{r7, lr}
 80049b2:	b082      	sub	sp, #8
 80049b4:	af00      	add	r7, sp, #0
 80049b6:	6078      	str	r0, [r7, #4]
 80049b8:	460b      	mov	r3, r1
 80049ba:	70fb      	strb	r3, [r7, #3]
 80049bc:	4613      	mov	r3, r2
 80049be:	803b      	strh	r3, [r7, #0]
 80049c0:	78fb      	ldrb	r3, [r7, #3]
 80049c2:	4619      	mov	r1, r3
 80049c4:	6878      	ldr	r0, [r7, #4]
 80049c6:	f7ff ff0e 	bl	80047e6 <SCPI_RegGet>
 80049ca:	4603      	mov	r3, r0
 80049cc:	461a      	mov	r2, r3
 80049ce:	883b      	ldrh	r3, [r7, #0]
 80049d0:	4313      	orrs	r3, r2
 80049d2:	b29a      	uxth	r2, r3
 80049d4:	78fb      	ldrb	r3, [r7, #3]
 80049d6:	4619      	mov	r1, r3
 80049d8:	6878      	ldr	r0, [r7, #4]
 80049da:	f7ff ff3f 	bl	800485c <SCPI_RegSet>
 80049de:	bf00      	nop
 80049e0:	3708      	adds	r7, #8
 80049e2:	46bd      	mov	sp, r7
 80049e4:	bd80      	pop	{r7, pc}

080049e6 <SCPI_RegClearBits>:
 80049e6:	b580      	push	{r7, lr}
 80049e8:	b082      	sub	sp, #8
 80049ea:	af00      	add	r7, sp, #0
 80049ec:	6078      	str	r0, [r7, #4]
 80049ee:	460b      	mov	r3, r1
 80049f0:	70fb      	strb	r3, [r7, #3]
 80049f2:	4613      	mov	r3, r2
 80049f4:	803b      	strh	r3, [r7, #0]
 80049f6:	78fb      	ldrb	r3, [r7, #3]
 80049f8:	4619      	mov	r1, r3
 80049fa:	6878      	ldr	r0, [r7, #4]
 80049fc:	f7ff fef3 	bl	80047e6 <SCPI_RegGet>
 8004a00:	4603      	mov	r3, r0
 8004a02:	b21a      	sxth	r2, r3
 8004a04:	f9b7 3000 	ldrsh.w	r3, [r7]
 8004a08:	43db      	mvns	r3, r3
 8004a0a:	b21b      	sxth	r3, r3
 8004a0c:	4013      	ands	r3, r2
 8004a0e:	b21b      	sxth	r3, r3
 8004a10:	b29a      	uxth	r2, r3
 8004a12:	78fb      	ldrb	r3, [r7, #3]
 8004a14:	4619      	mov	r1, r3
 8004a16:	6878      	ldr	r0, [r7, #4]
 8004a18:	f7ff ff20 	bl	800485c <SCPI_RegSet>
 8004a1c:	bf00      	nop
 8004a1e:	3708      	adds	r7, #8
 8004a20:	46bd      	mov	sp, r7
 8004a22:	bd80      	pop	{r7, pc}

08004a24 <SCPI_EventClear>:
 8004a24:	b580      	push	{r7, lr}
 8004a26:	b082      	sub	sp, #8
 8004a28:	af00      	add	r7, sp, #0
 8004a2a:	6078      	str	r0, [r7, #4]
 8004a2c:	2200      	movs	r2, #0
 8004a2e:	2102      	movs	r1, #2
 8004a30:	6878      	ldr	r0, [r7, #4]
 8004a32:	f7ff ff13 	bl	800485c <SCPI_RegSet>
 8004a36:	bf00      	nop
 8004a38:	3708      	adds	r7, #8
 8004a3a:	46bd      	mov	sp, r7
 8004a3c:	bd80      	pop	{r7, pc}

08004a3e <SCPI_CoreCls>:
 8004a3e:	b580      	push	{r7, lr}
 8004a40:	b082      	sub	sp, #8
 8004a42:	af00      	add	r7, sp, #0
 8004a44:	6078      	str	r0, [r7, #4]
 8004a46:	6878      	ldr	r0, [r7, #4]
 8004a48:	f7ff ffec 	bl	8004a24 <SCPI_EventClear>
 8004a4c:	6878      	ldr	r0, [r7, #4]
 8004a4e:	f003 f978 	bl	8007d42 <SCPI_ErrorClear>
 8004a52:	2200      	movs	r2, #0
 8004a54:	2104      	movs	r1, #4
 8004a56:	6878      	ldr	r0, [r7, #4]
 8004a58:	f7ff ff00 	bl	800485c <SCPI_RegSet>
 8004a5c:	2200      	movs	r2, #0
 8004a5e:	2107      	movs	r1, #7
 8004a60:	6878      	ldr	r0, [r7, #4]
 8004a62:	f7ff fefb 	bl	800485c <SCPI_RegSet>
 8004a66:	2301      	movs	r3, #1
 8004a68:	4618      	mov	r0, r3
 8004a6a:	3708      	adds	r7, #8
 8004a6c:	46bd      	mov	sp, r7
 8004a6e:	bd80      	pop	{r7, pc}

08004a70 <SCPI_CoreEse>:
 8004a70:	b580      	push	{r7, lr}
 8004a72:	b084      	sub	sp, #16
 8004a74:	af00      	add	r7, sp, #0
 8004a76:	6078      	str	r0, [r7, #4]
 8004a78:	f107 030c 	add.w	r3, r7, #12
 8004a7c:	2201      	movs	r2, #1
 8004a7e:	4619      	mov	r1, r3
 8004a80:	6878      	ldr	r0, [r7, #4]
 8004a82:	f000 ffcd 	bl	8005a20 <SCPI_ParamInt32>
 8004a86:	4603      	mov	r3, r0
 8004a88:	2b00      	cmp	r3, #0
 8004a8a:	d008      	beq.n	8004a9e <SCPI_CoreEse+0x2e>
 8004a8c:	68fb      	ldr	r3, [r7, #12]
 8004a8e:	b29b      	uxth	r3, r3
 8004a90:	461a      	mov	r2, r3
 8004a92:	2103      	movs	r1, #3
 8004a94:	6878      	ldr	r0, [r7, #4]
 8004a96:	f7ff fee1 	bl	800485c <SCPI_RegSet>
 8004a9a:	2301      	movs	r3, #1
 8004a9c:	e001      	b.n	8004aa2 <SCPI_CoreEse+0x32>
 8004a9e:	f04f 33ff 	mov.w	r3, #4294967295
 8004aa2:	4618      	mov	r0, r3
 8004aa4:	3710      	adds	r7, #16
 8004aa6:	46bd      	mov	sp, r7
 8004aa8:	bd80      	pop	{r7, pc}

08004aaa <SCPI_CoreEseQ>:
 8004aaa:	b580      	push	{r7, lr}
 8004aac:	b082      	sub	sp, #8
 8004aae:	af00      	add	r7, sp, #0
 8004ab0:	6078      	str	r0, [r7, #4]
 8004ab2:	2103      	movs	r1, #3
 8004ab4:	6878      	ldr	r0, [r7, #4]
 8004ab6:	f7ff fe96 	bl	80047e6 <SCPI_RegGet>
 8004aba:	4603      	mov	r3, r0
 8004abc:	4619      	mov	r1, r3
 8004abe:	6878      	ldr	r0, [r7, #4]
 8004ac0:	f000 fc2f 	bl	8005322 <SCPI_ResultInt32>
 8004ac4:	2301      	movs	r3, #1
 8004ac6:	4618      	mov	r0, r3
 8004ac8:	3708      	adds	r7, #8
 8004aca:	46bd      	mov	sp, r7
 8004acc:	bd80      	pop	{r7, pc}

08004ace <SCPI_CoreEsrQ>:
 8004ace:	b580      	push	{r7, lr}
 8004ad0:	b082      	sub	sp, #8
 8004ad2:	af00      	add	r7, sp, #0
 8004ad4:	6078      	str	r0, [r7, #4]
 8004ad6:	2102      	movs	r1, #2
 8004ad8:	6878      	ldr	r0, [r7, #4]
 8004ada:	f7ff fe84 	bl	80047e6 <SCPI_RegGet>
 8004ade:	4603      	mov	r3, r0
 8004ae0:	4619      	mov	r1, r3
 8004ae2:	6878      	ldr	r0, [r7, #4]
 8004ae4:	f000 fc1d 	bl	8005322 <SCPI_ResultInt32>
 8004ae8:	2200      	movs	r2, #0
 8004aea:	2102      	movs	r1, #2
 8004aec:	6878      	ldr	r0, [r7, #4]
 8004aee:	f7ff feb5 	bl	800485c <SCPI_RegSet>
 8004af2:	2301      	movs	r3, #1
 8004af4:	4618      	mov	r0, r3
 8004af6:	3708      	adds	r7, #8
 8004af8:	46bd      	mov	sp, r7
 8004afa:	bd80      	pop	{r7, pc}

08004afc <SCPI_CoreIdnQ>:
 8004afc:	b590      	push	{r4, r7, lr}
 8004afe:	b085      	sub	sp, #20
 8004b00:	af00      	add	r7, sp, #0
 8004b02:	6078      	str	r0, [r7, #4]
 8004b04:	2300      	movs	r3, #0
 8004b06:	60fb      	str	r3, [r7, #12]
 8004b08:	e025      	b.n	8004b56 <SCPI_CoreIdnQ+0x5a>
 8004b0a:	687a      	ldr	r2, [r7, #4]
 8004b0c:	68fb      	ldr	r3, [r7, #12]
 8004b0e:	3320      	adds	r3, #32
 8004b10:	009b      	lsls	r3, r3, #2
 8004b12:	4413      	add	r3, r2
 8004b14:	685b      	ldr	r3, [r3, #4]
 8004b16:	2b00      	cmp	r3, #0
 8004b18:	d015      	beq.n	8004b46 <SCPI_CoreIdnQ+0x4a>
 8004b1a:	687a      	ldr	r2, [r7, #4]
 8004b1c:	68fb      	ldr	r3, [r7, #12]
 8004b1e:	3320      	adds	r3, #32
 8004b20:	009b      	lsls	r3, r3, #2
 8004b22:	4413      	add	r3, r2
 8004b24:	685c      	ldr	r4, [r3, #4]
 8004b26:	687a      	ldr	r2, [r7, #4]
 8004b28:	68fb      	ldr	r3, [r7, #12]
 8004b2a:	3320      	adds	r3, #32
 8004b2c:	009b      	lsls	r3, r3, #2
 8004b2e:	4413      	add	r3, r2
 8004b30:	685b      	ldr	r3, [r3, #4]
 8004b32:	4618      	mov	r0, r3
 8004b34:	f7fb fb4c 	bl	80001d0 <strlen>
 8004b38:	4603      	mov	r3, r0
 8004b3a:	461a      	mov	r2, r3
 8004b3c:	4621      	mov	r1, r4
 8004b3e:	6878      	ldr	r0, [r7, #4]
 8004b40:	f000 fb62 	bl	8005208 <SCPI_ResultCharacters>
 8004b44:	e004      	b.n	8004b50 <SCPI_CoreIdnQ+0x54>
 8004b46:	2201      	movs	r2, #1
 8004b48:	4907      	ldr	r1, [pc, #28]	@ (8004b68 <SCPI_CoreIdnQ+0x6c>)
 8004b4a:	6878      	ldr	r0, [r7, #4]
 8004b4c:	f000 fb5c 	bl	8005208 <SCPI_ResultCharacters>
 8004b50:	68fb      	ldr	r3, [r7, #12]
 8004b52:	3301      	adds	r3, #1
 8004b54:	60fb      	str	r3, [r7, #12]
 8004b56:	68fb      	ldr	r3, [r7, #12]
 8004b58:	2b03      	cmp	r3, #3
 8004b5a:	ddd6      	ble.n	8004b0a <SCPI_CoreIdnQ+0xe>
 8004b5c:	2301      	movs	r3, #1
 8004b5e:	4618      	mov	r0, r3
 8004b60:	3714      	adds	r7, #20
 8004b62:	46bd      	mov	sp, r7
 8004b64:	bd90      	pop	{r4, r7, pc}
 8004b66:	bf00      	nop
 8004b68:	0800b800 	.word	0x0800b800

08004b6c <SCPI_CoreOpc>:
 8004b6c:	b580      	push	{r7, lr}
 8004b6e:	b082      	sub	sp, #8
 8004b70:	af00      	add	r7, sp, #0
 8004b72:	6078      	str	r0, [r7, #4]
 8004b74:	2201      	movs	r2, #1
 8004b76:	2102      	movs	r1, #2
 8004b78:	6878      	ldr	r0, [r7, #4]
 8004b7a:	f7ff ff19 	bl	80049b0 <SCPI_RegSetBits>
 8004b7e:	2301      	movs	r3, #1
 8004b80:	4618      	mov	r0, r3
 8004b82:	3708      	adds	r7, #8
 8004b84:	46bd      	mov	sp, r7
 8004b86:	bd80      	pop	{r7, pc}

08004b88 <SCPI_CoreOpcQ>:
 8004b88:	b580      	push	{r7, lr}
 8004b8a:	b082      	sub	sp, #8
 8004b8c:	af00      	add	r7, sp, #0
 8004b8e:	6078      	str	r0, [r7, #4]
 8004b90:	2101      	movs	r1, #1
 8004b92:	6878      	ldr	r0, [r7, #4]
 8004b94:	f000 fbc5 	bl	8005322 <SCPI_ResultInt32>
 8004b98:	2301      	movs	r3, #1
 8004b9a:	4618      	mov	r0, r3
 8004b9c:	3708      	adds	r7, #8
 8004b9e:	46bd      	mov	sp, r7
 8004ba0:	bd80      	pop	{r7, pc}

08004ba2 <SCPI_CoreRst>:
 8004ba2:	b580      	push	{r7, lr}
 8004ba4:	b082      	sub	sp, #8
 8004ba6:	af00      	add	r7, sp, #0
 8004ba8:	6078      	str	r0, [r7, #4]
 8004baa:	687b      	ldr	r3, [r7, #4]
 8004bac:	2b00      	cmp	r3, #0
 8004bae:	d00f      	beq.n	8004bd0 <SCPI_CoreRst+0x2e>
 8004bb0:	687b      	ldr	r3, [r7, #4]
 8004bb2:	6adb      	ldr	r3, [r3, #44]	@ 0x2c
 8004bb4:	2b00      	cmp	r3, #0
 8004bb6:	d00b      	beq.n	8004bd0 <SCPI_CoreRst+0x2e>
 8004bb8:	687b      	ldr	r3, [r7, #4]
 8004bba:	6adb      	ldr	r3, [r3, #44]	@ 0x2c
 8004bbc:	691b      	ldr	r3, [r3, #16]
 8004bbe:	2b00      	cmp	r3, #0
 8004bc0:	d006      	beq.n	8004bd0 <SCPI_CoreRst+0x2e>
 8004bc2:	687b      	ldr	r3, [r7, #4]
 8004bc4:	6adb      	ldr	r3, [r3, #44]	@ 0x2c
 8004bc6:	691b      	ldr	r3, [r3, #16]
 8004bc8:	6878      	ldr	r0, [r7, #4]
 8004bca:	4798      	blx	r3
 8004bcc:	4603      	mov	r3, r0
 8004bce:	e000      	b.n	8004bd2 <SCPI_CoreRst+0x30>
 8004bd0:	2301      	movs	r3, #1
 8004bd2:	4618      	mov	r0, r3
 8004bd4:	3708      	adds	r7, #8
 8004bd6:	46bd      	mov	sp, r7
 8004bd8:	bd80      	pop	{r7, pc}

08004bda <SCPI_CoreSre>:
 8004bda:	b580      	push	{r7, lr}
 8004bdc:	b084      	sub	sp, #16
 8004bde:	af00      	add	r7, sp, #0
 8004be0:	6078      	str	r0, [r7, #4]
 8004be2:	f107 030c 	add.w	r3, r7, #12
 8004be6:	2201      	movs	r2, #1
 8004be8:	4619      	mov	r1, r3
 8004bea:	6878      	ldr	r0, [r7, #4]
 8004bec:	f000 ff18 	bl	8005a20 <SCPI_ParamInt32>
 8004bf0:	4603      	mov	r3, r0
 8004bf2:	2b00      	cmp	r3, #0
 8004bf4:	d008      	beq.n	8004c08 <SCPI_CoreSre+0x2e>
 8004bf6:	68fb      	ldr	r3, [r7, #12]
 8004bf8:	b29b      	uxth	r3, r3
 8004bfa:	461a      	mov	r2, r3
 8004bfc:	2101      	movs	r1, #1
 8004bfe:	6878      	ldr	r0, [r7, #4]
 8004c00:	f7ff fe2c 	bl	800485c <SCPI_RegSet>
 8004c04:	2301      	movs	r3, #1
 8004c06:	e001      	b.n	8004c0c <SCPI_CoreSre+0x32>
 8004c08:	f04f 33ff 	mov.w	r3, #4294967295
 8004c0c:	4618      	mov	r0, r3
 8004c0e:	3710      	adds	r7, #16
 8004c10:	46bd      	mov	sp, r7
 8004c12:	bd80      	pop	{r7, pc}

08004c14 <SCPI_CoreSreQ>:
 8004c14:	b580      	push	{r7, lr}
 8004c16:	b082      	sub	sp, #8
 8004c18:	af00      	add	r7, sp, #0
 8004c1a:	6078      	str	r0, [r7, #4]
 8004c1c:	2101      	movs	r1, #1
 8004c1e:	6878      	ldr	r0, [r7, #4]
 8004c20:	f7ff fde1 	bl	80047e6 <SCPI_RegGet>
 8004c24:	4603      	mov	r3, r0
 8004c26:	4619      	mov	r1, r3
 8004c28:	6878      	ldr	r0, [r7, #4]
 8004c2a:	f000 fb7a 	bl	8005322 <SCPI_ResultInt32>
 8004c2e:	2301      	movs	r3, #1
 8004c30:	4618      	mov	r0, r3
 8004c32:	3708      	adds	r7, #8
 8004c34:	46bd      	mov	sp, r7
 8004c36:	bd80      	pop	{r7, pc}

08004c38 <SCPI_CoreStbQ>:
 8004c38:	b580      	push	{r7, lr}
 8004c3a:	b082      	sub	sp, #8
 8004c3c:	af00      	add	r7, sp, #0
 8004c3e:	6078      	str	r0, [r7, #4]
 8004c40:	2100      	movs	r1, #0
 8004c42:	6878      	ldr	r0, [r7, #4]
 8004c44:	f7ff fdcf 	bl	80047e6 <SCPI_RegGet>
 8004c48:	4603      	mov	r3, r0
 8004c4a:	4619      	mov	r1, r3
 8004c4c:	6878      	ldr	r0, [r7, #4]
 8004c4e:	f000 fb68 	bl	8005322 <SCPI_ResultInt32>
 8004c52:	2301      	movs	r3, #1
 8004c54:	4618      	mov	r0, r3
 8004c56:	3708      	adds	r7, #8
 8004c58:	46bd      	mov	sp, r7
 8004c5a:	bd80      	pop	{r7, pc}

08004c5c <SCPI_CoreWai>:
 8004c5c:	b480      	push	{r7}
 8004c5e:	b083      	sub	sp, #12
 8004c60:	af00      	add	r7, sp, #0
 8004c62:	6078      	str	r0, [r7, #4]
 8004c64:	2301      	movs	r3, #1
 8004c66:	4618      	mov	r0, r3
 8004c68:	370c      	adds	r7, #12
 8004c6a:	46bd      	mov	sp, r7
 8004c6c:	f85d 7b04 	ldr.w	r7, [sp], #4
 8004c70:	4770      	bx	lr
	...

08004c74 <SCPI_SystemVersionQ>:
 8004c74:	b580      	push	{r7, lr}
 8004c76:	b082      	sub	sp, #8
 8004c78:	af00      	add	r7, sp, #0
 8004c7a:	6078      	str	r0, [r7, #4]
 8004c7c:	2206      	movs	r2, #6
 8004c7e:	4904      	ldr	r1, [pc, #16]	@ (8004c90 <SCPI_SystemVersionQ+0x1c>)
 8004c80:	6878      	ldr	r0, [r7, #4]
 8004c82:	f000 fac1 	bl	8005208 <SCPI_ResultCharacters>
 8004c86:	2301      	movs	r3, #1
 8004c88:	4618      	mov	r0, r3
 8004c8a:	3708      	adds	r7, #8
 8004c8c:	46bd      	mov	sp, r7
 8004c8e:	bd80      	pop	{r7, pc}
 8004c90:	0800b804 	.word	0x0800b804

08004c94 <SCPI_SystemErrorNextQ>:
 8004c94:	b580      	push	{r7, lr}
 8004c96:	b084      	sub	sp, #16
 8004c98:	af00      	add	r7, sp, #0
 8004c9a:	6078      	str	r0, [r7, #4]
 8004c9c:	f107 030c 	add.w	r3, r7, #12
 8004ca0:	4619      	mov	r1, r3
 8004ca2:	6878      	ldr	r0, [r7, #4]
 8004ca4:	f003 f85d 	bl	8007d62 <SCPI_ErrorPop>
 8004ca8:	f107 030c 	add.w	r3, r7, #12
 8004cac:	4619      	mov	r1, r3
 8004cae:	6878      	ldr	r0, [r7, #4]
 8004cb0:	f000 fb5a 	bl	8005368 <SCPI_ResultError>
 8004cb4:	2301      	movs	r3, #1
 8004cb6:	4618      	mov	r0, r3
 8004cb8:	3710      	adds	r7, #16
 8004cba:	46bd      	mov	sp, r7
 8004cbc:	bd80      	pop	{r7, pc}

08004cbe <SCPI_SystemErrorCountQ>:
 8004cbe:	b580      	push	{r7, lr}
 8004cc0:	b082      	sub	sp, #8
 8004cc2:	af00      	add	r7, sp, #0
 8004cc4:	6078      	str	r0, [r7, #4]
 8004cc6:	6878      	ldr	r0, [r7, #4]
 8004cc8:	f003 f869 	bl	8007d9e <SCPI_ErrorCount>
 8004ccc:	4603      	mov	r3, r0
 8004cce:	4619      	mov	r1, r3
 8004cd0:	6878      	ldr	r0, [r7, #4]
 8004cd2:	f000 fb26 	bl	8005322 <SCPI_ResultInt32>
 8004cd6:	2301      	movs	r3, #1
 8004cd8:	4618      	mov	r0, r3
 8004cda:	3708      	adds	r7, #8
 8004cdc:	46bd      	mov	sp, r7
 8004cde:	bd80      	pop	{r7, pc}

08004ce0 <writeData>:
 8004ce0:	b580      	push	{r7, lr}
 8004ce2:	b084      	sub	sp, #16
 8004ce4:	af00      	add	r7, sp, #0
 8004ce6:	60f8      	str	r0, [r7, #12]
 8004ce8:	60b9      	str	r1, [r7, #8]
 8004cea:	607a      	str	r2, [r7, #4]
 8004cec:	687b      	ldr	r3, [r7, #4]
 8004cee:	2b00      	cmp	r3, #0
 8004cf0:	d008      	beq.n	8004d04 <writeData+0x24>
 8004cf2:	68fb      	ldr	r3, [r7, #12]
 8004cf4:	6adb      	ldr	r3, [r3, #44]	@ 0x2c
 8004cf6:	685b      	ldr	r3, [r3, #4]
 8004cf8:	687a      	ldr	r2, [r7, #4]
 8004cfa:	68b9      	ldr	r1, [r7, #8]
 8004cfc:	68f8      	ldr	r0, [r7, #12]
 8004cfe:	4798      	blx	r3
 8004d00:	4603      	mov	r3, r0
 8004d02:	e000      	b.n	8004d06 <writeData+0x26>
 8004d04:	2300      	movs	r3, #0
 8004d06:	4618      	mov	r0, r3
 8004d08:	3710      	adds	r7, #16
 8004d0a:	46bd      	mov	sp, r7
 8004d0c:	bd80      	pop	{r7, pc}

08004d0e <flushData>:
 8004d0e:	b580      	push	{r7, lr}
 8004d10:	b082      	sub	sp, #8
 8004d12:	af00      	add	r7, sp, #0
 8004d14:	6078      	str	r0, [r7, #4]
 8004d16:	687b      	ldr	r3, [r7, #4]
 8004d18:	2b00      	cmp	r3, #0
 8004d1a:	d00f      	beq.n	8004d3c <flushData+0x2e>
 8004d1c:	687b      	ldr	r3, [r7, #4]
 8004d1e:	6adb      	ldr	r3, [r3, #44]	@ 0x2c
 8004d20:	2b00      	cmp	r3, #0
 8004d22:	d00b      	beq.n	8004d3c <flushData+0x2e>
 8004d24:	687b      	ldr	r3, [r7, #4]
 8004d26:	6adb      	ldr	r3, [r3, #44]	@ 0x2c
 8004d28:	68db      	ldr	r3, [r3, #12]
 8004d2a:	2b00      	cmp	r3, #0
 8004d2c:	d006      	beq.n	8004d3c <flushData+0x2e>
 8004d2e:	687b      	ldr	r3, [r7, #4]
 8004d30:	6adb      	ldr	r3, [r3, #44]	@ 0x2c
 8004d32:	68db      	ldr	r3, [r3, #12]
 8004d34:	6878      	ldr	r0, [r7, #4]
 8004d36:	4798      	blx	r3
 8004d38:	4603      	mov	r3, r0
 8004d3a:	e000      	b.n	8004d3e <flushData+0x30>
 8004d3c:	2301      	movs	r3, #1
 8004d3e:	4618      	mov	r0, r3
 8004d40:	3708      	adds	r7, #8
 8004d42:	46bd      	mov	sp, r7
 8004d44:	bd80      	pop	{r7, pc}
	...

08004d48 <writeDelimiter>:
 8004d48:	b580      	push	{r7, lr}
 8004d4a:	b082      	sub	sp, #8
 8004d4c:	af00      	add	r7, sp, #0
 8004d4e:	6078      	str	r0, [r7, #4]
 8004d50:	687b      	ldr	r3, [r7, #4]
 8004d52:	6b1b      	ldr	r3, [r3, #48]	@ 0x30
 8004d54:	2b00      	cmp	r3, #0
 8004d56:	dd06      	ble.n	8004d66 <writeDelimiter+0x1e>
 8004d58:	2201      	movs	r2, #1
 8004d5a:	4905      	ldr	r1, [pc, #20]	@ (8004d70 <writeDelimiter+0x28>)
 8004d5c:	6878      	ldr	r0, [r7, #4]
 8004d5e:	f7ff ffbf 	bl	8004ce0 <writeData>
 8004d62:	4603      	mov	r3, r0
 8004d64:	e000      	b.n	8004d68 <writeDelimiter+0x20>
 8004d66:	2300      	movs	r3, #0
 8004d68:	4618      	mov	r0, r3
 8004d6a:	3708      	adds	r7, #8
 8004d6c:	46bd      	mov	sp, r7
 8004d6e:	bd80      	pop	{r7, pc}
 8004d70:	0800b80c 	.word	0x0800b80c

08004d74 <writeNewLine>:
 8004d74:	b580      	push	{r7, lr}
 8004d76:	b084      	sub	sp, #16
 8004d78:	af00      	add	r7, sp, #0
 8004d7a:	6078      	str	r0, [r7, #4]
 8004d7c:	687b      	ldr	r3, [r7, #4]
 8004d7e:	6b1b      	ldr	r3, [r3, #48]	@ 0x30
 8004d80:	2b00      	cmp	r3, #0
 8004d82:	dd0a      	ble.n	8004d9a <writeNewLine+0x26>
 8004d84:	2202      	movs	r2, #2
 8004d86:	4907      	ldr	r1, [pc, #28]	@ (8004da4 <writeNewLine+0x30>)
 8004d88:	6878      	ldr	r0, [r7, #4]
 8004d8a:	f7ff ffa9 	bl	8004ce0 <writeData>
 8004d8e:	60f8      	str	r0, [r7, #12]
 8004d90:	6878      	ldr	r0, [r7, #4]
 8004d92:	f7ff ffbc 	bl	8004d0e <flushData>
 8004d96:	68fb      	ldr	r3, [r7, #12]
 8004d98:	e000      	b.n	8004d9c <writeNewLine+0x28>
 8004d9a:	2300      	movs	r3, #0
 8004d9c:	4618      	mov	r0, r3
 8004d9e:	3710      	adds	r7, #16
 8004da0:	46bd      	mov	sp, r7
 8004da2:	bd80      	pop	{r7, pc}
 8004da4:	0800b810 	.word	0x0800b810

08004da8 <writeSemicolon>:
 8004da8:	b580      	push	{r7, lr}
 8004daa:	b082      	sub	sp, #8
 8004dac:	af00      	add	r7, sp, #0
 8004dae:	6078      	str	r0, [r7, #4]
 8004db0:	687b      	ldr	r3, [r7, #4]
 8004db2:	6b1b      	ldr	r3, [r3, #48]	@ 0x30
 8004db4:	2b00      	cmp	r3, #0
 8004db6:	dd06      	ble.n	8004dc6 <writeSemicolon+0x1e>
 8004db8:	2201      	movs	r2, #1
 8004dba:	4905      	ldr	r1, [pc, #20]	@ (8004dd0 <writeSemicolon+0x28>)
 8004dbc:	6878      	ldr	r0, [r7, #4]
 8004dbe:	f7ff ff8f 	bl	8004ce0 <writeData>
 8004dc2:	4603      	mov	r3, r0
 8004dc4:	e000      	b.n	8004dc8 <writeSemicolon+0x20>
 8004dc6:	2300      	movs	r3, #0
 8004dc8:	4618      	mov	r0, r3
 8004dca:	3708      	adds	r7, #8
 8004dcc:	46bd      	mov	sp, r7
 8004dce:	bd80      	pop	{r7, pc}
 8004dd0:	0800b814 	.word	0x0800b814

08004dd4 <processCommand>:
 8004dd4:	b580      	push	{r7, lr}
 8004dd6:	b086      	sub	sp, #24
 8004dd8:	af00      	add	r7, sp, #0
 8004dda:	6078      	str	r0, [r7, #4]
 8004ddc:	687b      	ldr	r3, [r7, #4]
 8004dde:	691b      	ldr	r3, [r3, #16]
 8004de0:	613b      	str	r3, [r7, #16]
 8004de2:	687b      	ldr	r3, [r7, #4]
 8004de4:	3314      	adds	r3, #20
 8004de6:	60fb      	str	r3, [r7, #12]
 8004de8:	2301      	movs	r3, #1
 8004dea:	75fb      	strb	r3, [r7, #23]
 8004dec:	6878      	ldr	r0, [r7, #4]
 8004dee:	f7ff ffdb 	bl	8004da8 <writeSemicolon>
 8004df2:	687b      	ldr	r3, [r7, #4]
 8004df4:	2200      	movs	r2, #0
 8004df6:	f883 2038 	strb.w	r2, [r3, #56]	@ 0x38
 8004dfa:	687b      	ldr	r3, [r7, #4]
 8004dfc:	2200      	movs	r2, #0
 8004dfe:	631a      	str	r2, [r3, #48]	@ 0x30
 8004e00:	687b      	ldr	r3, [r7, #4]
 8004e02:	2200      	movs	r2, #0
 8004e04:	635a      	str	r2, [r3, #52]	@ 0x34
 8004e06:	687b      	ldr	r3, [r7, #4]
 8004e08:	2200      	movs	r2, #0
 8004e0a:	f8c3 2094 	str.w	r2, [r3, #148]	@ 0x94
 8004e0e:	693b      	ldr	r3, [r7, #16]
 8004e10:	685b      	ldr	r3, [r3, #4]
 8004e12:	2b00      	cmp	r3, #0
 8004e14:	d01d      	beq.n	8004e52 <processCommand+0x7e>
 8004e16:	693b      	ldr	r3, [r7, #16]
 8004e18:	685b      	ldr	r3, [r3, #4]
 8004e1a:	6878      	ldr	r0, [r7, #4]
 8004e1c:	4798      	blx	r3
 8004e1e:	4603      	mov	r3, r0
 8004e20:	2b01      	cmp	r3, #1
 8004e22:	d00f      	beq.n	8004e44 <processCommand+0x70>
 8004e24:	687b      	ldr	r3, [r7, #4]
 8004e26:	f893 3038 	ldrb.w	r3, [r3, #56]	@ 0x38
 8004e2a:	f083 0301 	eor.w	r3, r3, #1
 8004e2e:	b2db      	uxtb	r3, r3
 8004e30:	2b00      	cmp	r3, #0
 8004e32:	d004      	beq.n	8004e3e <processCommand+0x6a>
 8004e34:	f06f 01c7 	mvn.w	r1, #199	@ 0xc7
 8004e38:	6878      	ldr	r0, [r7, #4]
 8004e3a:	f003 f86f 	bl	8007f1c <SCPI_ErrorPush>
 8004e3e:	2300      	movs	r3, #0
 8004e40:	75fb      	strb	r3, [r7, #23]
 8004e42:	e006      	b.n	8004e52 <processCommand+0x7e>
 8004e44:	687b      	ldr	r3, [r7, #4]
 8004e46:	f893 3038 	ldrb.w	r3, [r3, #56]	@ 0x38
 8004e4a:	2b00      	cmp	r3, #0
 8004e4c:	d001      	beq.n	8004e52 <processCommand+0x7e>
 8004e4e:	2300      	movs	r3, #0
 8004e50:	75fb      	strb	r3, [r7, #23]
 8004e52:	68fb      	ldr	r3, [r7, #12]
 8004e54:	685a      	ldr	r2, [r3, #4]
 8004e56:	68fb      	ldr	r3, [r7, #12]
 8004e58:	681b      	ldr	r3, [r3, #0]
 8004e5a:	68f9      	ldr	r1, [r7, #12]
 8004e5c:	6889      	ldr	r1, [r1, #8]
 8004e5e:	440b      	add	r3, r1
 8004e60:	429a      	cmp	r2, r3
 8004e62:	d20e      	bcs.n	8004e82 <processCommand+0xae>
 8004e64:	687b      	ldr	r3, [r7, #4]
 8004e66:	f893 3038 	ldrb.w	r3, [r3, #56]	@ 0x38
 8004e6a:	f083 0301 	eor.w	r3, r3, #1
 8004e6e:	b2db      	uxtb	r3, r3
 8004e70:	2b00      	cmp	r3, #0
 8004e72:	d006      	beq.n	8004e82 <processCommand+0xae>
 8004e74:	f06f 016b 	mvn.w	r1, #107	@ 0x6b
 8004e78:	6878      	ldr	r0, [r7, #4]
 8004e7a:	f003 f84f 	bl	8007f1c <SCPI_ErrorPush>
 8004e7e:	2300      	movs	r3, #0
 8004e80:	75fb      	strb	r3, [r7, #23]
 8004e82:	7dfb      	ldrb	r3, [r7, #23]
 8004e84:	4618      	mov	r0, r3
 8004e86:	3718      	adds	r7, #24
 8004e88:	46bd      	mov	sp, r7
 8004e8a:	bd80      	pop	{r7, pc}

08004e8c <findCommandHeader>:
 8004e8c:	b580      	push	{r7, lr}
 8004e8e:	b088      	sub	sp, #32
 8004e90:	af02      	add	r7, sp, #8
 8004e92:	60f8      	str	r0, [r7, #12]
 8004e94:	60b9      	str	r1, [r7, #8]
 8004e96:	607a      	str	r2, [r7, #4]
 8004e98:	2300      	movs	r3, #0
 8004e9a:	617b      	str	r3, [r7, #20]
 8004e9c:	e01e      	b.n	8004edc <findCommandHeader+0x50>
 8004e9e:	68fb      	ldr	r3, [r7, #12]
 8004ea0:	6819      	ldr	r1, [r3, #0]
 8004ea2:	697a      	ldr	r2, [r7, #20]
 8004ea4:	4613      	mov	r3, r2
 8004ea6:	005b      	lsls	r3, r3, #1
 8004ea8:	4413      	add	r3, r2
 8004eaa:	009b      	lsls	r3, r3, #2
 8004eac:	440b      	add	r3, r1
 8004eae:	613b      	str	r3, [r7, #16]
 8004eb0:	693b      	ldr	r3, [r7, #16]
 8004eb2:	6818      	ldr	r0, [r3, #0]
 8004eb4:	687a      	ldr	r2, [r7, #4]
 8004eb6:	2300      	movs	r3, #0
 8004eb8:	9301      	str	r3, [sp, #4]
 8004eba:	2300      	movs	r3, #0
 8004ebc:	9300      	str	r3, [sp, #0]
 8004ebe:	2300      	movs	r3, #0
 8004ec0:	68b9      	ldr	r1, [r7, #8]
 8004ec2:	f001 fc5c 	bl	800677e <matchCommand>
 8004ec6:	4603      	mov	r3, r0
 8004ec8:	2b00      	cmp	r3, #0
 8004eca:	d004      	beq.n	8004ed6 <findCommandHeader+0x4a>
 8004ecc:	68fb      	ldr	r3, [r7, #12]
 8004ece:	693a      	ldr	r2, [r7, #16]
 8004ed0:	611a      	str	r2, [r3, #16]
 8004ed2:	2301      	movs	r3, #1
 8004ed4:	e00e      	b.n	8004ef4 <findCommandHeader+0x68>
 8004ed6:	697b      	ldr	r3, [r7, #20]
 8004ed8:	3301      	adds	r3, #1
 8004eda:	617b      	str	r3, [r7, #20]
 8004edc:	68fb      	ldr	r3, [r7, #12]
 8004ede:	6819      	ldr	r1, [r3, #0]
 8004ee0:	697a      	ldr	r2, [r7, #20]
 8004ee2:	4613      	mov	r3, r2
 8004ee4:	005b      	lsls	r3, r3, #1
 8004ee6:	4413      	add	r3, r2
 8004ee8:	009b      	lsls	r3, r3, #2
 8004eea:	440b      	add	r3, r1
 8004eec:	681b      	ldr	r3, [r3, #0]
 8004eee:	2b00      	cmp	r3, #0
 8004ef0:	d1d5      	bne.n	8004e9e <findCommandHeader+0x12>
 8004ef2:	2300      	movs	r3, #0
 8004ef4:	4618      	mov	r0, r3
 8004ef6:	3718      	adds	r7, #24
 8004ef8:	46bd      	mov	sp, r7
 8004efa:	bd80      	pop	{r7, pc}

08004efc <SCPI_Parse>:
 8004efc:	b580      	push	{r7, lr}
 8004efe:	b08c      	sub	sp, #48	@ 0x30
 8004f00:	af00      	add	r7, sp, #0
 8004f02:	60f8      	str	r0, [r7, #12]
 8004f04:	60b9      	str	r1, [r7, #8]
 8004f06:	607a      	str	r2, [r7, #4]
 8004f08:	2301      	movs	r3, #1
 8004f0a:	f887 302f 	strb.w	r3, [r7, #47]	@ 0x2f
 8004f0e:	231a      	movs	r3, #26
 8004f10:	753b      	strb	r3, [r7, #20]
 8004f12:	2300      	movs	r3, #0
 8004f14:	61bb      	str	r3, [r7, #24]
 8004f16:	2300      	movs	r3, #0
 8004f18:	61fb      	str	r3, [r7, #28]
 8004f1a:	68fb      	ldr	r3, [r7, #12]
 8004f1c:	2b00      	cmp	r3, #0
 8004f1e:	d101      	bne.n	8004f24 <SCPI_Parse+0x28>
 8004f20:	2300      	movs	r3, #0
 8004f22:	e08f      	b.n	8005044 <SCPI_Parse+0x148>
 8004f24:	68fb      	ldr	r3, [r7, #12]
 8004f26:	3364      	adds	r3, #100	@ 0x64
 8004f28:	627b      	str	r3, [r7, #36]	@ 0x24
 8004f2a:	68fb      	ldr	r3, [r7, #12]
 8004f2c:	2200      	movs	r2, #0
 8004f2e:	631a      	str	r2, [r3, #48]	@ 0x30
 8004f30:	687a      	ldr	r2, [r7, #4]
 8004f32:	68b9      	ldr	r1, [r7, #8]
 8004f34:	6a78      	ldr	r0, [r7, #36]	@ 0x24
 8004f36:	f000 ff74 	bl	8005e22 <scpiParser_detectProgramMessageUnit>
 8004f3a:	6238      	str	r0, [r7, #32]
 8004f3c:	6a7b      	ldr	r3, [r7, #36]	@ 0x24
 8004f3e:	781b      	ldrb	r3, [r3, #0]
 8004f40:	2b19      	cmp	r3, #25
 8004f42:	d108      	bne.n	8004f56 <SCPI_Parse+0x5a>
 8004f44:	f06f 0164 	mvn.w	r1, #100	@ 0x64
 8004f48:	68f8      	ldr	r0, [r7, #12]
 8004f4a:	f002 ffe7 	bl	8007f1c <SCPI_ErrorPush>
 8004f4e:	2300      	movs	r3, #0
 8004f50:	f887 302f 	strb.w	r3, [r7, #47]	@ 0x2f
 8004f54:	e063      	b.n	800501e <SCPI_Parse+0x122>
 8004f56:	6a7b      	ldr	r3, [r7, #36]	@ 0x24
 8004f58:	689b      	ldr	r3, [r3, #8]
 8004f5a:	2b00      	cmp	r3, #0
 8004f5c:	dd5f      	ble.n	800501e <SCPI_Parse+0x122>
 8004f5e:	6a7a      	ldr	r2, [r7, #36]	@ 0x24
 8004f60:	f107 0314 	add.w	r3, r7, #20
 8004f64:	4611      	mov	r1, r2
 8004f66:	4618      	mov	r0, r3
 8004f68:	f001 fdd2 	bl	8006b10 <composeCompoundCommand>
 8004f6c:	6a7b      	ldr	r3, [r7, #36]	@ 0x24
 8004f6e:	6859      	ldr	r1, [r3, #4]
 8004f70:	6a7b      	ldr	r3, [r7, #36]	@ 0x24
 8004f72:	689b      	ldr	r3, [r3, #8]
 8004f74:	461a      	mov	r2, r3
 8004f76:	68f8      	ldr	r0, [r7, #12]
 8004f78:	f7ff ff88 	bl	8004e8c <findCommandHeader>
 8004f7c:	4603      	mov	r3, r0
 8004f7e:	2b00      	cmp	r3, #0
 8004f80:	d02c      	beq.n	8004fdc <SCPI_Parse+0xe0>
 8004f82:	6a7b      	ldr	r3, [r7, #36]	@ 0x24
 8004f84:	691a      	ldr	r2, [r3, #16]
 8004f86:	68fb      	ldr	r3, [r7, #12]
 8004f88:	615a      	str	r2, [r3, #20]
 8004f8a:	68fb      	ldr	r3, [r7, #12]
 8004f8c:	695a      	ldr	r2, [r3, #20]
 8004f8e:	68fb      	ldr	r3, [r7, #12]
 8004f90:	619a      	str	r2, [r3, #24]
 8004f92:	6a7b      	ldr	r3, [r7, #36]	@ 0x24
 8004f94:	695a      	ldr	r2, [r3, #20]
 8004f96:	68fb      	ldr	r3, [r7, #12]
 8004f98:	61da      	str	r2, [r3, #28]
 8004f9a:	6a7b      	ldr	r3, [r7, #36]	@ 0x24
 8004f9c:	685a      	ldr	r2, [r3, #4]
 8004f9e:	68fb      	ldr	r3, [r7, #12]
 8004fa0:	629a      	str	r2, [r3, #40]	@ 0x28
 8004fa2:	68fb      	ldr	r3, [r7, #12]
 8004fa4:	2200      	movs	r2, #0
 8004fa6:	625a      	str	r2, [r3, #36]	@ 0x24
 8004fa8:	6a7b      	ldr	r3, [r7, #36]	@ 0x24
 8004faa:	689b      	ldr	r3, [r3, #8]
 8004fac:	461a      	mov	r2, r3
 8004fae:	68fb      	ldr	r3, [r7, #12]
 8004fb0:	621a      	str	r2, [r3, #32]
 8004fb2:	68f8      	ldr	r0, [r7, #12]
 8004fb4:	f7ff ff0e 	bl	8004dd4 <processCommand>
 8004fb8:	4603      	mov	r3, r0
 8004fba:	461a      	mov	r2, r3
 8004fbc:	f897 302f 	ldrb.w	r3, [r7, #47]	@ 0x2f
 8004fc0:	4013      	ands	r3, r2
 8004fc2:	2b00      	cmp	r3, #0
 8004fc4:	bf14      	ite	ne
 8004fc6:	2301      	movne	r3, #1
 8004fc8:	2300      	moveq	r3, #0
 8004fca:	f887 302f 	strb.w	r3, [r7, #47]	@ 0x2f
 8004fce:	6a7a      	ldr	r2, [r7, #36]	@ 0x24
 8004fd0:	f107 0314 	add.w	r3, r7, #20
 8004fd4:	ca07      	ldmia	r2, {r0, r1, r2}
 8004fd6:	e883 0007 	stmia.w	r3, {r0, r1, r2}
 8004fda:	e020      	b.n	800501e <SCPI_Parse+0x122>
 8004fdc:	6a3b      	ldr	r3, [r7, #32]
 8004fde:	62bb      	str	r3, [r7, #40]	@ 0x28
 8004fe0:	e002      	b.n	8004fe8 <SCPI_Parse+0xec>
 8004fe2:	6abb      	ldr	r3, [r7, #40]	@ 0x28
 8004fe4:	3b01      	subs	r3, #1
 8004fe6:	62bb      	str	r3, [r7, #40]	@ 0x28
 8004fe8:	6abb      	ldr	r3, [r7, #40]	@ 0x28
 8004fea:	2b00      	cmp	r3, #0
 8004fec:	d00d      	beq.n	800500a <SCPI_Parse+0x10e>
 8004fee:	6abb      	ldr	r3, [r7, #40]	@ 0x28
 8004ff0:	3b01      	subs	r3, #1
 8004ff2:	68ba      	ldr	r2, [r7, #8]
 8004ff4:	4413      	add	r3, r2
 8004ff6:	781b      	ldrb	r3, [r3, #0]
 8004ff8:	2b0d      	cmp	r3, #13
 8004ffa:	d0f2      	beq.n	8004fe2 <SCPI_Parse+0xe6>
 8004ffc:	6abb      	ldr	r3, [r7, #40]	@ 0x28
 8004ffe:	3b01      	subs	r3, #1
 8005000:	68ba      	ldr	r2, [r7, #8]
 8005002:	4413      	add	r3, r2
 8005004:	781b      	ldrb	r3, [r3, #0]
 8005006:	2b0a      	cmp	r3, #10
 8005008:	d0eb      	beq.n	8004fe2 <SCPI_Parse+0xe6>
 800500a:	6abb      	ldr	r3, [r7, #40]	@ 0x28
 800500c:	68ba      	ldr	r2, [r7, #8]
 800500e:	f06f 0170 	mvn.w	r1, #112	@ 0x70
 8005012:	68f8      	ldr	r0, [r7, #12]
 8005014:	f002 ff0c 	bl	8007e30 <SCPI_ErrorPushEx>
 8005018:	2300      	movs	r3, #0
 800501a:	f887 302f 	strb.w	r3, [r7, #47]	@ 0x2f
 800501e:	6a3a      	ldr	r2, [r7, #32]
 8005020:	687b      	ldr	r3, [r7, #4]
 8005022:	429a      	cmp	r2, r3
 8005024:	da08      	bge.n	8005038 <SCPI_Parse+0x13c>
 8005026:	6a3b      	ldr	r3, [r7, #32]
 8005028:	68ba      	ldr	r2, [r7, #8]
 800502a:	4413      	add	r3, r2
 800502c:	60bb      	str	r3, [r7, #8]
 800502e:	687a      	ldr	r2, [r7, #4]
 8005030:	6a3b      	ldr	r3, [r7, #32]
 8005032:	1ad3      	subs	r3, r2, r3
 8005034:	607b      	str	r3, [r7, #4]
 8005036:	e77b      	b.n	8004f30 <SCPI_Parse+0x34>
 8005038:	bf00      	nop
 800503a:	68f8      	ldr	r0, [r7, #12]
 800503c:	f7ff fe9a 	bl	8004d74 <writeNewLine>
 8005040:	f897 302f 	ldrb.w	r3, [r7, #47]	@ 0x2f
 8005044:	4618      	mov	r0, r3
 8005046:	3730      	adds	r7, #48	@ 0x30
 8005048:	46bd      	mov	sp, r7
 800504a:	bd80      	pop	{r7, pc}

0800504c <SCPI_Init>:
 800504c:	b580      	push	{r7, lr}
 800504e:	b084      	sub	sp, #16
 8005050:	af00      	add	r7, sp, #0
 8005052:	60f8      	str	r0, [r7, #12]
 8005054:	60b9      	str	r1, [r7, #8]
 8005056:	607a      	str	r2, [r7, #4]
 8005058:	603b      	str	r3, [r7, #0]
 800505a:	2298      	movs	r2, #152	@ 0x98
 800505c:	2100      	movs	r1, #0
 800505e:	68f8      	ldr	r0, [r7, #12]
 8005060:	f004 fb2f 	bl	80096c2 <memset>
 8005064:	68fb      	ldr	r3, [r7, #12]
 8005066:	68ba      	ldr	r2, [r7, #8]
 8005068:	601a      	str	r2, [r3, #0]
 800506a:	68fb      	ldr	r3, [r7, #12]
 800506c:	687a      	ldr	r2, [r7, #4]
 800506e:	62da      	str	r2, [r3, #44]	@ 0x2c
 8005070:	68fb      	ldr	r3, [r7, #12]
 8005072:	683a      	ldr	r2, [r7, #0]
 8005074:	65da      	str	r2, [r3, #92]	@ 0x5c
 8005076:	68fb      	ldr	r3, [r7, #12]
 8005078:	69ba      	ldr	r2, [r7, #24]
 800507a:	f8c3 2084 	str.w	r2, [r3, #132]	@ 0x84
 800507e:	68fb      	ldr	r3, [r7, #12]
 8005080:	69fa      	ldr	r2, [r7, #28]
 8005082:	f8c3 2088 	str.w	r2, [r3, #136]	@ 0x88
 8005086:	68fb      	ldr	r3, [r7, #12]
 8005088:	6a3a      	ldr	r2, [r7, #32]
 800508a:	f8c3 208c 	str.w	r2, [r3, #140]	@ 0x8c
 800508e:	68fb      	ldr	r3, [r7, #12]
 8005090:	6a7a      	ldr	r2, [r7, #36]	@ 0x24
 8005092:	f8c3 2090 	str.w	r2, [r3, #144]	@ 0x90
 8005096:	68fb      	ldr	r3, [r7, #12]
 8005098:	6aba      	ldr	r2, [r7, #40]	@ 0x28
 800509a:	60da      	str	r2, [r3, #12]
 800509c:	68fb      	ldr	r3, [r7, #12]
 800509e:	6afa      	ldr	r2, [r7, #44]	@ 0x2c
 80050a0:	605a      	str	r2, [r3, #4]
 80050a2:	68fb      	ldr	r3, [r7, #12]
 80050a4:	2200      	movs	r2, #0
 80050a6:	609a      	str	r2, [r3, #8]
 80050a8:	f9b7 3034 	ldrsh.w	r3, [r7, #52]	@ 0x34
 80050ac:	461a      	mov	r2, r3
 80050ae:	6b39      	ldr	r1, [r7, #48]	@ 0x30
 80050b0:	68f8      	ldr	r0, [r7, #12]
 80050b2:	f002 fde8 	bl	8007c86 <SCPI_ErrorInit>
 80050b6:	bf00      	nop
 80050b8:	3710      	adds	r7, #16
 80050ba:	46bd      	mov	sp, r7
 80050bc:	bd80      	pop	{r7, pc}

080050be <SCPI_Input>:
 80050be:	b580      	push	{r7, lr}
 80050c0:	b088      	sub	sp, #32
 80050c2:	af00      	add	r7, sp, #0
 80050c4:	60f8      	str	r0, [r7, #12]
 80050c6:	60b9      	str	r1, [r7, #8]
 80050c8:	607a      	str	r2, [r7, #4]
 80050ca:	2301      	movs	r3, #1
 80050cc:	77fb      	strb	r3, [r7, #31]
 80050ce:	2300      	movs	r3, #0
 80050d0:	61bb      	str	r3, [r7, #24]
 80050d2:	2300      	movs	r3, #0
 80050d4:	617b      	str	r3, [r7, #20]
 80050d6:	687b      	ldr	r3, [r7, #4]
 80050d8:	2b00      	cmp	r3, #0
 80050da:	d114      	bne.n	8005106 <SCPI_Input+0x48>
 80050dc:	68fb      	ldr	r3, [r7, #12]
 80050de:	68da      	ldr	r2, [r3, #12]
 80050e0:	68fb      	ldr	r3, [r7, #12]
 80050e2:	689b      	ldr	r3, [r3, #8]
 80050e4:	4413      	add	r3, r2
 80050e6:	2200      	movs	r2, #0
 80050e8:	701a      	strb	r2, [r3, #0]
 80050ea:	68fb      	ldr	r3, [r7, #12]
 80050ec:	68d9      	ldr	r1, [r3, #12]
 80050ee:	68fb      	ldr	r3, [r7, #12]
 80050f0:	689b      	ldr	r3, [r3, #8]
 80050f2:	461a      	mov	r2, r3
 80050f4:	68f8      	ldr	r0, [r7, #12]
 80050f6:	f7ff ff01 	bl	8004efc <SCPI_Parse>
 80050fa:	4603      	mov	r3, r0
 80050fc:	77fb      	strb	r3, [r7, #31]
 80050fe:	68fb      	ldr	r3, [r7, #12]
 8005100:	2200      	movs	r2, #0
 8005102:	609a      	str	r2, [r3, #8]
 8005104:	e07b      	b.n	80051fe <SCPI_Input+0x140>
 8005106:	68fb      	ldr	r3, [r7, #12]
 8005108:	685a      	ldr	r2, [r3, #4]
 800510a:	68fb      	ldr	r3, [r7, #12]
 800510c:	689b      	ldr	r3, [r3, #8]
 800510e:	1ad3      	subs	r3, r2, r3
 8005110:	613b      	str	r3, [r7, #16]
 8005112:	693a      	ldr	r2, [r7, #16]
 8005114:	687b      	ldr	r3, [r7, #4]
 8005116:	429a      	cmp	r2, r3
 8005118:	dc10      	bgt.n	800513c <SCPI_Input+0x7e>
 800511a:	68fb      	ldr	r3, [r7, #12]
 800511c:	2200      	movs	r2, #0
 800511e:	609a      	str	r2, [r3, #8]
 8005120:	68fb      	ldr	r3, [r7, #12]
 8005122:	68da      	ldr	r2, [r3, #12]
 8005124:	68fb      	ldr	r3, [r7, #12]
 8005126:	689b      	ldr	r3, [r3, #8]
 8005128:	4413      	add	r3, r2
 800512a:	2200      	movs	r2, #0
 800512c:	701a      	strb	r2, [r3, #0]
 800512e:	f46f 71b5 	mvn.w	r1, #362	@ 0x16a
 8005132:	68f8      	ldr	r0, [r7, #12]
 8005134:	f002 fef2 	bl	8007f1c <SCPI_ErrorPush>
 8005138:	2300      	movs	r3, #0
 800513a:	e061      	b.n	8005200 <SCPI_Input+0x142>
 800513c:	68fb      	ldr	r3, [r7, #12]
 800513e:	68da      	ldr	r2, [r3, #12]
 8005140:	68fb      	ldr	r3, [r7, #12]
 8005142:	689b      	ldr	r3, [r3, #8]
 8005144:	4413      	add	r3, r2
 8005146:	687a      	ldr	r2, [r7, #4]
 8005148:	68b9      	ldr	r1, [r7, #8]
 800514a:	4618      	mov	r0, r3
 800514c:	f004 fb73 	bl	8009836 <memcpy>
 8005150:	68fb      	ldr	r3, [r7, #12]
 8005152:	689a      	ldr	r2, [r3, #8]
 8005154:	687b      	ldr	r3, [r7, #4]
 8005156:	441a      	add	r2, r3
 8005158:	68fb      	ldr	r3, [r7, #12]
 800515a:	609a      	str	r2, [r3, #8]
 800515c:	68fb      	ldr	r3, [r7, #12]
 800515e:	68da      	ldr	r2, [r3, #12]
 8005160:	68fb      	ldr	r3, [r7, #12]
 8005162:	689b      	ldr	r3, [r3, #8]
 8005164:	4413      	add	r3, r2
 8005166:	2200      	movs	r2, #0
 8005168:	701a      	strb	r2, [r3, #0]
 800516a:	68fb      	ldr	r3, [r7, #12]
 800516c:	f103 0064 	add.w	r0, r3, #100	@ 0x64
 8005170:	68fb      	ldr	r3, [r7, #12]
 8005172:	68da      	ldr	r2, [r3, #12]
 8005174:	69bb      	ldr	r3, [r7, #24]
 8005176:	18d1      	adds	r1, r2, r3
 8005178:	68fb      	ldr	r3, [r7, #12]
 800517a:	689a      	ldr	r2, [r3, #8]
 800517c:	69bb      	ldr	r3, [r7, #24]
 800517e:	1ad3      	subs	r3, r2, r3
 8005180:	461a      	mov	r2, r3
 8005182:	f000 fe4e 	bl	8005e22 <scpiParser_detectProgramMessageUnit>
 8005186:	6178      	str	r0, [r7, #20]
 8005188:	697b      	ldr	r3, [r7, #20]
 800518a:	69ba      	ldr	r2, [r7, #24]
 800518c:	4413      	add	r3, r2
 800518e:	61bb      	str	r3, [r7, #24]
 8005190:	68fb      	ldr	r3, [r7, #12]
 8005192:	f893 3080 	ldrb.w	r3, [r3, #128]	@ 0x80
 8005196:	2b01      	cmp	r3, #1
 8005198:	d11e      	bne.n	80051d8 <SCPI_Input+0x11a>
 800519a:	68fb      	ldr	r3, [r7, #12]
 800519c:	68db      	ldr	r3, [r3, #12]
 800519e:	69ba      	ldr	r2, [r7, #24]
 80051a0:	4619      	mov	r1, r3
 80051a2:	68f8      	ldr	r0, [r7, #12]
 80051a4:	f7ff feaa 	bl	8004efc <SCPI_Parse>
 80051a8:	4603      	mov	r3, r0
 80051aa:	77fb      	strb	r3, [r7, #31]
 80051ac:	68fb      	ldr	r3, [r7, #12]
 80051ae:	68d8      	ldr	r0, [r3, #12]
 80051b0:	68fb      	ldr	r3, [r7, #12]
 80051b2:	68da      	ldr	r2, [r3, #12]
 80051b4:	69bb      	ldr	r3, [r7, #24]
 80051b6:	18d1      	adds	r1, r2, r3
 80051b8:	68fb      	ldr	r3, [r7, #12]
 80051ba:	689a      	ldr	r2, [r3, #8]
 80051bc:	69bb      	ldr	r3, [r7, #24]
 80051be:	1ad3      	subs	r3, r2, r3
 80051c0:	461a      	mov	r2, r3
 80051c2:	f004 fa64 	bl	800968e <memmove>
 80051c6:	68fb      	ldr	r3, [r7, #12]
 80051c8:	689a      	ldr	r2, [r3, #8]
 80051ca:	69bb      	ldr	r3, [r7, #24]
 80051cc:	1ad2      	subs	r2, r2, r3
 80051ce:	68fb      	ldr	r3, [r7, #12]
 80051d0:	609a      	str	r2, [r3, #8]
 80051d2:	2300      	movs	r3, #0
 80051d4:	61bb      	str	r3, [r7, #24]
 80051d6:	e7c8      	b.n	800516a <SCPI_Input+0xac>
 80051d8:	68fb      	ldr	r3, [r7, #12]
 80051da:	f893 3064 	ldrb.w	r3, [r3, #100]	@ 0x64
 80051de:	2b1a      	cmp	r3, #26
 80051e0:	d104      	bne.n	80051ec <SCPI_Input+0x12e>
 80051e2:	68fb      	ldr	r3, [r7, #12]
 80051e4:	f893 3080 	ldrb.w	r3, [r3, #128]	@ 0x80
 80051e8:	2b00      	cmp	r3, #0
 80051ea:	d005      	beq.n	80051f8 <SCPI_Input+0x13a>
 80051ec:	68fb      	ldr	r3, [r7, #12]
 80051ee:	689b      	ldr	r3, [r3, #8]
 80051f0:	69ba      	ldr	r2, [r7, #24]
 80051f2:	429a      	cmp	r2, r3
 80051f4:	d202      	bcs.n	80051fc <SCPI_Input+0x13e>
 80051f6:	e7b8      	b.n	800516a <SCPI_Input+0xac>
 80051f8:	bf00      	nop
 80051fa:	e000      	b.n	80051fe <SCPI_Input+0x140>
 80051fc:	bf00      	nop
 80051fe:	7ffb      	ldrb	r3, [r7, #31]
 8005200:	4618      	mov	r0, r3
 8005202:	3720      	adds	r7, #32
 8005204:	46bd      	mov	sp, r7
 8005206:	bd80      	pop	{r7, pc}

08005208 <SCPI_ResultCharacters>:
 8005208:	b580      	push	{r7, lr}
 800520a:	b086      	sub	sp, #24
 800520c:	af00      	add	r7, sp, #0
 800520e:	60f8      	str	r0, [r7, #12]
 8005210:	60b9      	str	r1, [r7, #8]
 8005212:	607a      	str	r2, [r7, #4]
 8005214:	2300      	movs	r3, #0
 8005216:	617b      	str	r3, [r7, #20]
 8005218:	68f8      	ldr	r0, [r7, #12]
 800521a:	f7ff fd95 	bl	8004d48 <writeDelimiter>
 800521e:	4602      	mov	r2, r0
 8005220:	697b      	ldr	r3, [r7, #20]
 8005222:	4413      	add	r3, r2
 8005224:	617b      	str	r3, [r7, #20]
 8005226:	687a      	ldr	r2, [r7, #4]
 8005228:	68b9      	ldr	r1, [r7, #8]
 800522a:	68f8      	ldr	r0, [r7, #12]
 800522c:	f7ff fd58 	bl	8004ce0 <writeData>
 8005230:	4602      	mov	r2, r0
 8005232:	697b      	ldr	r3, [r7, #20]
 8005234:	4413      	add	r3, r2
 8005236:	617b      	str	r3, [r7, #20]
 8005238:	68fb      	ldr	r3, [r7, #12]
 800523a:	6b1b      	ldr	r3, [r3, #48]	@ 0x30
 800523c:	1c5a      	adds	r2, r3, #1
 800523e:	68fb      	ldr	r3, [r7, #12]
 8005240:	631a      	str	r2, [r3, #48]	@ 0x30
 8005242:	697b      	ldr	r3, [r7, #20]
 8005244:	4618      	mov	r0, r3
 8005246:	3718      	adds	r7, #24
 8005248:	46bd      	mov	sp, r7
 800524a:	bd80      	pop	{r7, pc}

0800524c <getBasePrefix>:
 800524c:	b480      	push	{r7}
 800524e:	b083      	sub	sp, #12
 8005250:	af00      	add	r7, sp, #0
 8005252:	4603      	mov	r3, r0
 8005254:	71fb      	strb	r3, [r7, #7]
 8005256:	f997 3007 	ldrsb.w	r3, [r7, #7]
 800525a:	2b10      	cmp	r3, #16
 800525c:	d00a      	beq.n	8005274 <getBasePrefix+0x28>
 800525e:	2b10      	cmp	r3, #16
 8005260:	dc0a      	bgt.n	8005278 <getBasePrefix+0x2c>
 8005262:	2b02      	cmp	r3, #2
 8005264:	d002      	beq.n	800526c <getBasePrefix+0x20>
 8005266:	2b08      	cmp	r3, #8
 8005268:	d002      	beq.n	8005270 <getBasePrefix+0x24>
 800526a:	e005      	b.n	8005278 <getBasePrefix+0x2c>
 800526c:	4b06      	ldr	r3, [pc, #24]	@ (8005288 <getBasePrefix+0x3c>)
 800526e:	e004      	b.n	800527a <getBasePrefix+0x2e>
 8005270:	4b06      	ldr	r3, [pc, #24]	@ (800528c <getBasePrefix+0x40>)
 8005272:	e002      	b.n	800527a <getBasePrefix+0x2e>
 8005274:	4b06      	ldr	r3, [pc, #24]	@ (8005290 <getBasePrefix+0x44>)
 8005276:	e000      	b.n	800527a <getBasePrefix+0x2e>
 8005278:	2300      	movs	r3, #0
 800527a:	4618      	mov	r0, r3
 800527c:	370c      	adds	r7, #12
 800527e:	46bd      	mov	sp, r7
 8005280:	f85d 7b04 	ldr.w	r7, [sp], #4
 8005284:	4770      	bx	lr
 8005286:	bf00      	nop
 8005288:	0800b818 	.word	0x0800b818
 800528c:	0800b81c 	.word	0x0800b81c
 8005290:	0800b820 	.word	0x0800b820

08005294 <resultUInt32BaseSign>:
 8005294:	b580      	push	{r7, lr}
 8005296:	b092      	sub	sp, #72	@ 0x48
 8005298:	af02      	add	r7, sp, #8
 800529a:	60f8      	str	r0, [r7, #12]
 800529c:	60b9      	str	r1, [r7, #8]
 800529e:	4611      	mov	r1, r2
 80052a0:	461a      	mov	r2, r3
 80052a2:	460b      	mov	r3, r1
 80052a4:	71fb      	strb	r3, [r7, #7]
 80052a6:	4613      	mov	r3, r2
 80052a8:	71bb      	strb	r3, [r7, #6]
 80052aa:	2300      	movs	r3, #0
 80052ac:	63fb      	str	r3, [r7, #60]	@ 0x3c
 80052ae:	f997 2007 	ldrsb.w	r2, [r7, #7]
 80052b2:	f107 0110 	add.w	r1, r7, #16
 80052b6:	79bb      	ldrb	r3, [r7, #6]
 80052b8:	9300      	str	r3, [sp, #0]
 80052ba:	4613      	mov	r3, r2
 80052bc:	2221      	movs	r2, #33	@ 0x21
 80052be:	68b8      	ldr	r0, [r7, #8]
 80052c0:	f000 ffe6 	bl	8006290 <UInt32ToStrBaseSign>
 80052c4:	63b8      	str	r0, [r7, #56]	@ 0x38
 80052c6:	f997 3007 	ldrsb.w	r3, [r7, #7]
 80052ca:	4618      	mov	r0, r3
 80052cc:	f7ff ffbe 	bl	800524c <getBasePrefix>
 80052d0:	6378      	str	r0, [r7, #52]	@ 0x34
 80052d2:	68f8      	ldr	r0, [r7, #12]
 80052d4:	f7ff fd38 	bl	8004d48 <writeDelimiter>
 80052d8:	4602      	mov	r2, r0
 80052da:	6bfb      	ldr	r3, [r7, #60]	@ 0x3c
 80052dc:	4413      	add	r3, r2
 80052de:	63fb      	str	r3, [r7, #60]	@ 0x3c
 80052e0:	6b7b      	ldr	r3, [r7, #52]	@ 0x34
 80052e2:	2b00      	cmp	r3, #0
 80052e4:	d008      	beq.n	80052f8 <resultUInt32BaseSign+0x64>
 80052e6:	2202      	movs	r2, #2
 80052e8:	6b79      	ldr	r1, [r7, #52]	@ 0x34
 80052ea:	68f8      	ldr	r0, [r7, #12]
 80052ec:	f7ff fcf8 	bl	8004ce0 <writeData>
 80052f0:	4602      	mov	r2, r0
 80052f2:	6bfb      	ldr	r3, [r7, #60]	@ 0x3c
 80052f4:	4413      	add	r3, r2
 80052f6:	63fb      	str	r3, [r7, #60]	@ 0x3c
 80052f8:	f107 0310 	add.w	r3, r7, #16
 80052fc:	6bba      	ldr	r2, [r7, #56]	@ 0x38
 80052fe:	4619      	mov	r1, r3
 8005300:	68f8      	ldr	r0, [r7, #12]
 8005302:	f7ff fced 	bl	8004ce0 <writeData>
 8005306:	4602      	mov	r2, r0
 8005308:	6bfb      	ldr	r3, [r7, #60]	@ 0x3c
 800530a:	4413      	add	r3, r2
 800530c:	63fb      	str	r3, [r7, #60]	@ 0x3c
 800530e:	68fb      	ldr	r3, [r7, #12]
 8005310:	6b1b      	ldr	r3, [r3, #48]	@ 0x30
 8005312:	1c5a      	adds	r2, r3, #1
 8005314:	68fb      	ldr	r3, [r7, #12]
 8005316:	631a      	str	r2, [r3, #48]	@ 0x30
 8005318:	6bfb      	ldr	r3, [r7, #60]	@ 0x3c
 800531a:	4618      	mov	r0, r3
 800531c:	3740      	adds	r7, #64	@ 0x40
 800531e:	46bd      	mov	sp, r7
 8005320:	bd80      	pop	{r7, pc}

08005322 <SCPI_ResultInt32>:
 8005322:	b580      	push	{r7, lr}
 8005324:	b082      	sub	sp, #8
 8005326:	af00      	add	r7, sp, #0
 8005328:	6078      	str	r0, [r7, #4]
 800532a:	6039      	str	r1, [r7, #0]
 800532c:	6839      	ldr	r1, [r7, #0]
 800532e:	2301      	movs	r3, #1
 8005330:	220a      	movs	r2, #10
 8005332:	6878      	ldr	r0, [r7, #4]
 8005334:	f7ff ffae 	bl	8005294 <resultUInt32BaseSign>
 8005338:	4603      	mov	r3, r0
 800533a:	4618      	mov	r0, r3
 800533c:	3708      	adds	r7, #8
 800533e:	46bd      	mov	sp, r7
 8005340:	bd80      	pop	{r7, pc}

08005342 <SCPI_ResultUInt32Base>:
 8005342:	b580      	push	{r7, lr}
 8005344:	b084      	sub	sp, #16
 8005346:	af00      	add	r7, sp, #0
 8005348:	60f8      	str	r0, [r7, #12]
 800534a:	60b9      	str	r1, [r7, #8]
 800534c:	4613      	mov	r3, r2
 800534e:	71fb      	strb	r3, [r7, #7]
 8005350:	f997 2007 	ldrsb.w	r2, [r7, #7]
 8005354:	2300      	movs	r3, #0
 8005356:	68b9      	ldr	r1, [r7, #8]
 8005358:	68f8      	ldr	r0, [r7, #12]
 800535a:	f7ff ff9b 	bl	8005294 <resultUInt32BaseSign>
 800535e:	4603      	mov	r3, r0
 8005360:	4618      	mov	r0, r3
 8005362:	3710      	adds	r7, #16
 8005364:	46bd      	mov	sp, r7
 8005366:	bd80      	pop	{r7, pc}

08005368 <SCPI_ResultError>:
 8005368:	b580      	push	{r7, lr}
 800536a:	b08a      	sub	sp, #40	@ 0x28
 800536c:	af00      	add	r7, sp, #0
 800536e:	6078      	str	r0, [r7, #4]
 8005370:	6039      	str	r1, [r7, #0]
 8005372:	2300      	movs	r3, #0
 8005374:	627b      	str	r3, [r7, #36]	@ 0x24
 8005376:	23ff      	movs	r3, #255	@ 0xff
 8005378:	623b      	str	r3, [r7, #32]
 800537a:	2300      	movs	r3, #0
 800537c:	61bb      	str	r3, [r7, #24]
 800537e:	683b      	ldr	r3, [r7, #0]
 8005380:	f9b3 3000 	ldrsh.w	r3, [r3]
 8005384:	4618      	mov	r0, r3
 8005386:	f002 fddb 	bl	8007f40 <SCPI_ErrorTranslate>
 800538a:	4603      	mov	r3, r0
 800538c:	613b      	str	r3, [r7, #16]
 800538e:	693b      	ldr	r3, [r7, #16]
 8005390:	4618      	mov	r0, r3
 8005392:	f7fa ff1d 	bl	80001d0 <strlen>
 8005396:	4603      	mov	r3, r0
 8005398:	60fb      	str	r3, [r7, #12]
 800539a:	683b      	ldr	r3, [r7, #0]
 800539c:	f9b3 3000 	ldrsh.w	r3, [r3]
 80053a0:	4619      	mov	r1, r3
 80053a2:	6878      	ldr	r0, [r7, #4]
 80053a4:	f7ff ffbd 	bl	8005322 <SCPI_ResultInt32>
 80053a8:	4602      	mov	r2, r0
 80053aa:	6a7b      	ldr	r3, [r7, #36]	@ 0x24
 80053ac:	4413      	add	r3, r2
 80053ae:	627b      	str	r3, [r7, #36]	@ 0x24
 80053b0:	6878      	ldr	r0, [r7, #4]
 80053b2:	f7ff fcc9 	bl	8004d48 <writeDelimiter>
 80053b6:	4602      	mov	r2, r0
 80053b8:	6a7b      	ldr	r3, [r7, #36]	@ 0x24
 80053ba:	4413      	add	r3, r2
 80053bc:	627b      	str	r3, [r7, #36]	@ 0x24
 80053be:	2201      	movs	r2, #1
 80053c0:	496d      	ldr	r1, [pc, #436]	@ (8005578 <SCPI_ResultError+0x210>)
 80053c2:	6878      	ldr	r0, [r7, #4]
 80053c4:	f7ff fc8c 	bl	8004ce0 <writeData>
 80053c8:	4602      	mov	r2, r0
 80053ca:	6a7b      	ldr	r3, [r7, #36]	@ 0x24
 80053cc:	4413      	add	r3, r2
 80053ce:	627b      	str	r3, [r7, #36]	@ 0x24
 80053d0:	2300      	movs	r3, #0
 80053d2:	61fb      	str	r3, [r7, #28]
 80053d4:	e0b3      	b.n	800553e <SCPI_ResultError+0x1d6>
 80053d6:	69fb      	ldr	r3, [r7, #28]
 80053d8:	2b01      	cmp	r3, #1
 80053da:	d109      	bne.n	80053f0 <SCPI_ResultError+0x88>
 80053dc:	6878      	ldr	r0, [r7, #4]
 80053de:	f7ff fce3 	bl	8004da8 <writeSemicolon>
 80053e2:	4602      	mov	r2, r0
 80053e4:	6a7b      	ldr	r3, [r7, #36]	@ 0x24
 80053e6:	4413      	add	r3, r2
 80053e8:	627b      	str	r3, [r7, #36]	@ 0x24
 80053ea:	6a3b      	ldr	r3, [r7, #32]
 80053ec:	3b01      	subs	r3, #1
 80053ee:	623b      	str	r3, [r7, #32]
 80053f0:	69fb      	ldr	r3, [r7, #28]
 80053f2:	009b      	lsls	r3, r3, #2
 80053f4:	3328      	adds	r3, #40	@ 0x28
 80053f6:	443b      	add	r3, r7
 80053f8:	f853 3c1c 	ldr.w	r3, [r3, #-28]
 80053fc:	6a3a      	ldr	r2, [r7, #32]
 80053fe:	429a      	cmp	r2, r3
 8005400:	d269      	bcs.n	80054d6 <SCPI_ResultError+0x16e>
 8005402:	69fb      	ldr	r3, [r7, #28]
 8005404:	009b      	lsls	r3, r3, #2
 8005406:	3328      	adds	r3, #40	@ 0x28
 8005408:	443b      	add	r3, r7
 800540a:	6a3a      	ldr	r2, [r7, #32]
 800540c:	f843 2c1c 	str.w	r2, [r3, #-28]
 8005410:	e061      	b.n	80054d6 <SCPI_ResultError+0x16e>
 8005412:	69fb      	ldr	r3, [r7, #28]
 8005414:	009b      	lsls	r3, r3, #2
 8005416:	3328      	adds	r3, #40	@ 0x28
 8005418:	443b      	add	r3, r7
 800541a:	f853 3c18 	ldr.w	r3, [r3, #-24]
 800541e:	697a      	ldr	r2, [r7, #20]
 8005420:	1ad3      	subs	r3, r2, r3
 8005422:	3301      	adds	r3, #1
 8005424:	61bb      	str	r3, [r7, #24]
 8005426:	69ba      	ldr	r2, [r7, #24]
 8005428:	6a3b      	ldr	r3, [r7, #32]
 800542a:	429a      	cmp	r2, r3
 800542c:	d310      	bcc.n	8005450 <SCPI_ResultError+0xe8>
 800542e:	69fb      	ldr	r3, [r7, #28]
 8005430:	009b      	lsls	r3, r3, #2
 8005432:	3328      	adds	r3, #40	@ 0x28
 8005434:	443b      	add	r3, r7
 8005436:	f853 3c1c 	ldr.w	r3, [r3, #-28]
 800543a:	1e5a      	subs	r2, r3, #1
 800543c:	69fb      	ldr	r3, [r7, #28]
 800543e:	009b      	lsls	r3, r3, #2
 8005440:	3328      	adds	r3, #40	@ 0x28
 8005442:	443b      	add	r3, r7
 8005444:	f843 2c1c 	str.w	r2, [r3, #-28]
 8005448:	6a3b      	ldr	r3, [r7, #32]
 800544a:	3b01      	subs	r3, #1
 800544c:	623b      	str	r3, [r7, #32]
 800544e:	e056      	b.n	80054fe <SCPI_ResultError+0x196>
 8005450:	69fb      	ldr	r3, [r7, #28]
 8005452:	009b      	lsls	r3, r3, #2
 8005454:	3328      	adds	r3, #40	@ 0x28
 8005456:	443b      	add	r3, r7
 8005458:	f853 3c18 	ldr.w	r3, [r3, #-24]
 800545c:	69ba      	ldr	r2, [r7, #24]
 800545e:	4619      	mov	r1, r3
 8005460:	6878      	ldr	r0, [r7, #4]
 8005462:	f7ff fc3d 	bl	8004ce0 <writeData>
 8005466:	4602      	mov	r2, r0
 8005468:	6a7b      	ldr	r3, [r7, #36]	@ 0x24
 800546a:	4413      	add	r3, r2
 800546c:	627b      	str	r3, [r7, #36]	@ 0x24
 800546e:	2201      	movs	r2, #1
 8005470:	4941      	ldr	r1, [pc, #260]	@ (8005578 <SCPI_ResultError+0x210>)
 8005472:	6878      	ldr	r0, [r7, #4]
 8005474:	f7ff fc34 	bl	8004ce0 <writeData>
 8005478:	4602      	mov	r2, r0
 800547a:	6a7b      	ldr	r3, [r7, #36]	@ 0x24
 800547c:	4413      	add	r3, r2
 800547e:	627b      	str	r3, [r7, #36]	@ 0x24
 8005480:	69fb      	ldr	r3, [r7, #28]
 8005482:	009b      	lsls	r3, r3, #2
 8005484:	3328      	adds	r3, #40	@ 0x28
 8005486:	443b      	add	r3, r7
 8005488:	f853 2c1c 	ldr.w	r2, [r3, #-28]
 800548c:	69bb      	ldr	r3, [r7, #24]
 800548e:	1ad2      	subs	r2, r2, r3
 8005490:	69fb      	ldr	r3, [r7, #28]
 8005492:	009b      	lsls	r3, r3, #2
 8005494:	3328      	adds	r3, #40	@ 0x28
 8005496:	443b      	add	r3, r7
 8005498:	f843 2c1c 	str.w	r2, [r3, #-28]
 800549c:	6a3a      	ldr	r2, [r7, #32]
 800549e:	69bb      	ldr	r3, [r7, #24]
 80054a0:	1ad3      	subs	r3, r2, r3
 80054a2:	3b01      	subs	r3, #1
 80054a4:	623b      	str	r3, [r7, #32]
 80054a6:	697b      	ldr	r3, [r7, #20]
 80054a8:	1c5a      	adds	r2, r3, #1
 80054aa:	69fb      	ldr	r3, [r7, #28]
 80054ac:	009b      	lsls	r3, r3, #2
 80054ae:	3328      	adds	r3, #40	@ 0x28
 80054b0:	443b      	add	r3, r7
 80054b2:	f843 2c18 	str.w	r2, [r3, #-24]
 80054b6:	69fb      	ldr	r3, [r7, #28]
 80054b8:	009b      	lsls	r3, r3, #2
 80054ba:	3328      	adds	r3, #40	@ 0x28
 80054bc:	443b      	add	r3, r7
 80054be:	f853 3c1c 	ldr.w	r3, [r3, #-28]
 80054c2:	6a3a      	ldr	r2, [r7, #32]
 80054c4:	429a      	cmp	r2, r3
 80054c6:	d206      	bcs.n	80054d6 <SCPI_ResultError+0x16e>
 80054c8:	69fb      	ldr	r3, [r7, #28]
 80054ca:	009b      	lsls	r3, r3, #2
 80054cc:	3328      	adds	r3, #40	@ 0x28
 80054ce:	443b      	add	r3, r7
 80054d0:	6a3a      	ldr	r2, [r7, #32]
 80054d2:	f843 2c1c 	str.w	r2, [r3, #-28]
 80054d6:	69fb      	ldr	r3, [r7, #28]
 80054d8:	009b      	lsls	r3, r3, #2
 80054da:	3328      	adds	r3, #40	@ 0x28
 80054dc:	443b      	add	r3, r7
 80054de:	f853 0c18 	ldr.w	r0, [r3, #-24]
 80054e2:	69fb      	ldr	r3, [r7, #28]
 80054e4:	009b      	lsls	r3, r3, #2
 80054e6:	3328      	adds	r3, #40	@ 0x28
 80054e8:	443b      	add	r3, r7
 80054ea:	f853 3c1c 	ldr.w	r3, [r3, #-28]
 80054ee:	4a22      	ldr	r2, [pc, #136]	@ (8005578 <SCPI_ResultError+0x210>)
 80054f0:	4619      	mov	r1, r3
 80054f2:	f000 fe9d 	bl	8006230 <strnpbrk>
 80054f6:	6178      	str	r0, [r7, #20]
 80054f8:	697b      	ldr	r3, [r7, #20]
 80054fa:	2b00      	cmp	r3, #0
 80054fc:	d189      	bne.n	8005412 <SCPI_ResultError+0xaa>
 80054fe:	69fb      	ldr	r3, [r7, #28]
 8005500:	009b      	lsls	r3, r3, #2
 8005502:	3328      	adds	r3, #40	@ 0x28
 8005504:	443b      	add	r3, r7
 8005506:	f853 1c18 	ldr.w	r1, [r3, #-24]
 800550a:	69fb      	ldr	r3, [r7, #28]
 800550c:	009b      	lsls	r3, r3, #2
 800550e:	3328      	adds	r3, #40	@ 0x28
 8005510:	443b      	add	r3, r7
 8005512:	f853 3c1c 	ldr.w	r3, [r3, #-28]
 8005516:	461a      	mov	r2, r3
 8005518:	6878      	ldr	r0, [r7, #4]
 800551a:	f7ff fbe1 	bl	8004ce0 <writeData>
 800551e:	4602      	mov	r2, r0
 8005520:	6a7b      	ldr	r3, [r7, #36]	@ 0x24
 8005522:	4413      	add	r3, r2
 8005524:	627b      	str	r3, [r7, #36]	@ 0x24
 8005526:	69fb      	ldr	r3, [r7, #28]
 8005528:	009b      	lsls	r3, r3, #2
 800552a:	3328      	adds	r3, #40	@ 0x28
 800552c:	443b      	add	r3, r7
 800552e:	f853 3c1c 	ldr.w	r3, [r3, #-28]
 8005532:	6a3a      	ldr	r2, [r7, #32]
 8005534:	1ad3      	subs	r3, r2, r3
 8005536:	623b      	str	r3, [r7, #32]
 8005538:	69fb      	ldr	r3, [r7, #28]
 800553a:	3301      	adds	r3, #1
 800553c:	61fb      	str	r3, [r7, #28]
 800553e:	69fb      	ldr	r3, [r7, #28]
 8005540:	2b00      	cmp	r3, #0
 8005542:	d10b      	bne.n	800555c <SCPI_ResultError+0x1f4>
 8005544:	69fb      	ldr	r3, [r7, #28]
 8005546:	009b      	lsls	r3, r3, #2
 8005548:	3328      	adds	r3, #40	@ 0x28
 800554a:	443b      	add	r3, r7
 800554c:	f853 3c18 	ldr.w	r3, [r3, #-24]
 8005550:	2b00      	cmp	r3, #0
 8005552:	d003      	beq.n	800555c <SCPI_ResultError+0x1f4>
 8005554:	6a3b      	ldr	r3, [r7, #32]
 8005556:	2b00      	cmp	r3, #0
 8005558:	f47f af3d 	bne.w	80053d6 <SCPI_ResultError+0x6e>
 800555c:	2201      	movs	r2, #1
 800555e:	4906      	ldr	r1, [pc, #24]	@ (8005578 <SCPI_ResultError+0x210>)
 8005560:	6878      	ldr	r0, [r7, #4]
 8005562:	f7ff fbbd 	bl	8004ce0 <writeData>
 8005566:	4602      	mov	r2, r0
 8005568:	6a7b      	ldr	r3, [r7, #36]	@ 0x24
 800556a:	4413      	add	r3, r2
 800556c:	627b      	str	r3, [r7, #36]	@ 0x24
 800556e:	6a7b      	ldr	r3, [r7, #36]	@ 0x24
 8005570:	4618      	mov	r0, r3
 8005572:	3728      	adds	r7, #40	@ 0x28
 8005574:	46bd      	mov	sp, r7
 8005576:	bd80      	pop	{r7, pc}
 8005578:	0800b824 	.word	0x0800b824

0800557c <SCPI_ResultBool>:
 800557c:	b580      	push	{r7, lr}
 800557e:	b082      	sub	sp, #8
 8005580:	af00      	add	r7, sp, #0
 8005582:	6078      	str	r0, [r7, #4]
 8005584:	460b      	mov	r3, r1
 8005586:	70fb      	strb	r3, [r7, #3]
 8005588:	78f9      	ldrb	r1, [r7, #3]
 800558a:	2300      	movs	r3, #0
 800558c:	220a      	movs	r2, #10
 800558e:	6878      	ldr	r0, [r7, #4]
 8005590:	f7ff fe80 	bl	8005294 <resultUInt32BaseSign>
 8005594:	4603      	mov	r3, r0
 8005596:	4618      	mov	r0, r3
 8005598:	3708      	adds	r7, #8
 800559a:	46bd      	mov	sp, r7
 800559c:	bd80      	pop	{r7, pc}

0800559e <invalidateToken>:
 800559e:	b480      	push	{r7}
 80055a0:	b083      	sub	sp, #12
 80055a2:	af00      	add	r7, sp, #0
 80055a4:	6078      	str	r0, [r7, #4]
 80055a6:	6039      	str	r1, [r7, #0]
 80055a8:	687b      	ldr	r3, [r7, #4]
 80055aa:	2200      	movs	r2, #0
 80055ac:	609a      	str	r2, [r3, #8]
 80055ae:	687b      	ldr	r3, [r7, #4]
 80055b0:	683a      	ldr	r2, [r7, #0]
 80055b2:	605a      	str	r2, [r3, #4]
 80055b4:	687b      	ldr	r3, [r7, #4]
 80055b6:	221a      	movs	r2, #26
 80055b8:	701a      	strb	r2, [r3, #0]
 80055ba:	bf00      	nop
 80055bc:	370c      	adds	r7, #12
 80055be:	46bd      	mov	sp, r7
 80055c0:	f85d 7b04 	ldr.w	r7, [sp], #4
 80055c4:	4770      	bx	lr
	...

080055c8 <SCPI_Parameter>:
 80055c8:	b580      	push	{r7, lr}
 80055ca:	b086      	sub	sp, #24
 80055cc:	af00      	add	r7, sp, #0
 80055ce:	60f8      	str	r0, [r7, #12]
 80055d0:	60b9      	str	r1, [r7, #8]
 80055d2:	4613      	mov	r3, r2
 80055d4:	71fb      	strb	r3, [r7, #7]
 80055d6:	68bb      	ldr	r3, [r7, #8]
 80055d8:	2b00      	cmp	r3, #0
 80055da:	d105      	bne.n	80055e8 <SCPI_Parameter+0x20>
 80055dc:	492f      	ldr	r1, [pc, #188]	@ (800569c <SCPI_Parameter+0xd4>)
 80055de:	68f8      	ldr	r0, [r7, #12]
 80055e0:	f002 fc9c 	bl	8007f1c <SCPI_ErrorPush>
 80055e4:	2300      	movs	r3, #0
 80055e6:	e055      	b.n	8005694 <SCPI_Parameter+0xcc>
 80055e8:	2100      	movs	r1, #0
 80055ea:	68b8      	ldr	r0, [r7, #8]
 80055ec:	f7ff ffd7 	bl	800559e <invalidateToken>
 80055f0:	68fb      	ldr	r3, [r7, #12]
 80055f2:	3314      	adds	r3, #20
 80055f4:	617b      	str	r3, [r7, #20]
 80055f6:	697b      	ldr	r3, [r7, #20]
 80055f8:	685a      	ldr	r2, [r3, #4]
 80055fa:	697b      	ldr	r3, [r7, #20]
 80055fc:	681b      	ldr	r3, [r3, #0]
 80055fe:	6979      	ldr	r1, [r7, #20]
 8005600:	6889      	ldr	r1, [r1, #8]
 8005602:	440b      	add	r3, r1
 8005604:	429a      	cmp	r2, r3
 8005606:	d30d      	bcc.n	8005624 <SCPI_Parameter+0x5c>
 8005608:	79fb      	ldrb	r3, [r7, #7]
 800560a:	2b00      	cmp	r3, #0
 800560c:	d005      	beq.n	800561a <SCPI_Parameter+0x52>
 800560e:	f06f 016c 	mvn.w	r1, #108	@ 0x6c
 8005612:	68f8      	ldr	r0, [r7, #12]
 8005614:	f002 fc82 	bl	8007f1c <SCPI_ErrorPush>
 8005618:	e002      	b.n	8005620 <SCPI_Parameter+0x58>
 800561a:	68bb      	ldr	r3, [r7, #8]
 800561c:	2209      	movs	r2, #9
 800561e:	701a      	strb	r2, [r3, #0]
 8005620:	2300      	movs	r3, #0
 8005622:	e037      	b.n	8005694 <SCPI_Parameter+0xcc>
 8005624:	68fb      	ldr	r3, [r7, #12]
 8005626:	6b5b      	ldr	r3, [r3, #52]	@ 0x34
 8005628:	2b00      	cmp	r3, #0
 800562a:	d012      	beq.n	8005652 <SCPI_Parameter+0x8a>
 800562c:	68b9      	ldr	r1, [r7, #8]
 800562e:	6978      	ldr	r0, [r7, #20]
 8005630:	f002 fab3 	bl	8007b9a <scpiLex_Comma>
 8005634:	68bb      	ldr	r3, [r7, #8]
 8005636:	781b      	ldrb	r3, [r3, #0]
 8005638:	2b00      	cmp	r3, #0
 800563a:	d00a      	beq.n	8005652 <SCPI_Parameter+0x8a>
 800563c:	2100      	movs	r1, #0
 800563e:	68b8      	ldr	r0, [r7, #8]
 8005640:	f7ff ffad 	bl	800559e <invalidateToken>
 8005644:	f06f 0166 	mvn.w	r1, #102	@ 0x66
 8005648:	68f8      	ldr	r0, [r7, #12]
 800564a:	f002 fc67 	bl	8007f1c <SCPI_ErrorPush>
 800564e:	2300      	movs	r3, #0
 8005650:	e020      	b.n	8005694 <SCPI_Parameter+0xcc>
 8005652:	68fb      	ldr	r3, [r7, #12]
 8005654:	6b5b      	ldr	r3, [r3, #52]	@ 0x34
 8005656:	1c5a      	adds	r2, r3, #1
 8005658:	68fb      	ldr	r3, [r7, #12]
 800565a:	635a      	str	r2, [r3, #52]	@ 0x34
 800565c:	68fb      	ldr	r3, [r7, #12]
 800565e:	3314      	adds	r3, #20
 8005660:	68b9      	ldr	r1, [r7, #8]
 8005662:	4618      	mov	r0, r3
 8005664:	f000 fb02 	bl	8005c6c <scpiParser_parseProgramData>
 8005668:	68bb      	ldr	r3, [r7, #8]
 800566a:	781b      	ldrb	r3, [r3, #0]
 800566c:	2b0b      	cmp	r3, #11
 800566e:	dc02      	bgt.n	8005676 <SCPI_Parameter+0xae>
 8005670:	2b06      	cmp	r3, #6
 8005672:	da03      	bge.n	800567c <SCPI_Parameter+0xb4>
 8005674:	e004      	b.n	8005680 <SCPI_Parameter+0xb8>
 8005676:	3b0d      	subs	r3, #13
 8005678:	2b03      	cmp	r3, #3
 800567a:	d801      	bhi.n	8005680 <SCPI_Parameter+0xb8>
 800567c:	2301      	movs	r3, #1
 800567e:	e009      	b.n	8005694 <SCPI_Parameter+0xcc>
 8005680:	2100      	movs	r1, #0
 8005682:	68b8      	ldr	r0, [r7, #8]
 8005684:	f7ff ff8b 	bl	800559e <invalidateToken>
 8005688:	f06f 0196 	mvn.w	r1, #150	@ 0x96
 800568c:	68f8      	ldr	r0, [r7, #12]
 800568e:	f002 fc45 	bl	8007f1c <SCPI_ErrorPush>
 8005692:	2300      	movs	r3, #0
 8005694:	4618      	mov	r0, r3
 8005696:	3718      	adds	r7, #24
 8005698:	46bd      	mov	sp, r7
 800569a:	bd80      	pop	{r7, pc}
 800569c:	fffffeca 	.word	0xfffffeca

080056a0 <SCPI_ParamIsNumber>:
 80056a0:	b480      	push	{r7}
 80056a2:	b083      	sub	sp, #12
 80056a4:	af00      	add	r7, sp, #0
 80056a6:	6078      	str	r0, [r7, #4]
 80056a8:	460b      	mov	r3, r1
 80056aa:	70fb      	strb	r3, [r7, #3]
 80056ac:	687b      	ldr	r3, [r7, #4]
 80056ae:	781b      	ldrb	r3, [r3, #0]
 80056b0:	2b0b      	cmp	r3, #11
 80056b2:	d00a      	beq.n	80056ca <SCPI_ParamIsNumber+0x2a>
 80056b4:	2b0b      	cmp	r3, #11
 80056b6:	dc0a      	bgt.n	80056ce <SCPI_ParamIsNumber+0x2e>
 80056b8:	2b08      	cmp	r3, #8
 80056ba:	dc02      	bgt.n	80056c2 <SCPI_ParamIsNumber+0x22>
 80056bc:	2b06      	cmp	r3, #6
 80056be:	da02      	bge.n	80056c6 <SCPI_ParamIsNumber+0x26>
 80056c0:	e005      	b.n	80056ce <SCPI_ParamIsNumber+0x2e>
 80056c2:	2b0a      	cmp	r3, #10
 80056c4:	d103      	bne.n	80056ce <SCPI_ParamIsNumber+0x2e>
 80056c6:	2301      	movs	r3, #1
 80056c8:	e002      	b.n	80056d0 <SCPI_ParamIsNumber+0x30>
 80056ca:	78fb      	ldrb	r3, [r7, #3]
 80056cc:	e000      	b.n	80056d0 <SCPI_ParamIsNumber+0x30>
 80056ce:	2300      	movs	r3, #0
 80056d0:	4618      	mov	r0, r3
 80056d2:	370c      	adds	r7, #12
 80056d4:	46bd      	mov	sp, r7
 80056d6:	f85d 7b04 	ldr.w	r7, [sp], #4
 80056da:	4770      	bx	lr

080056dc <ParamSignToUInt32>:
 80056dc:	b580      	push	{r7, lr}
 80056de:	b084      	sub	sp, #16
 80056e0:	af00      	add	r7, sp, #0
 80056e2:	60f8      	str	r0, [r7, #12]
 80056e4:	60b9      	str	r1, [r7, #8]
 80056e6:	607a      	str	r2, [r7, #4]
 80056e8:	70fb      	strb	r3, [r7, #3]
 80056ea:	687b      	ldr	r3, [r7, #4]
 80056ec:	2b00      	cmp	r3, #0
 80056ee:	d105      	bne.n	80056fc <ParamSignToUInt32+0x20>
 80056f0:	4933      	ldr	r1, [pc, #204]	@ (80057c0 <ParamSignToUInt32+0xe4>)
 80056f2:	68f8      	ldr	r0, [r7, #12]
 80056f4:	f002 fc12 	bl	8007f1c <SCPI_ErrorPush>
 80056f8:	2300      	movs	r3, #0
 80056fa:	e05d      	b.n	80057b8 <ParamSignToUInt32+0xdc>
 80056fc:	68bb      	ldr	r3, [r7, #8]
 80056fe:	781b      	ldrb	r3, [r3, #0]
 8005700:	3b06      	subs	r3, #6
 8005702:	2b05      	cmp	r3, #5
 8005704:	d857      	bhi.n	80057b6 <ParamSignToUInt32+0xda>
 8005706:	a201      	add	r2, pc, #4	@ (adr r2, 800570c <ParamSignToUInt32+0x30>)
 8005708:	f852 f023 	ldr.w	pc, [r2, r3, lsl #2]
 800570c:	08005725 	.word	0x08005725
 8005710:	08005741 	.word	0x08005741
 8005714:	0800575d 	.word	0x0800575d
 8005718:	080057b7 	.word	0x080057b7
 800571c:	08005779 	.word	0x08005779
 8005720:	08005779 	.word	0x08005779
 8005724:	68bb      	ldr	r3, [r7, #8]
 8005726:	685b      	ldr	r3, [r3, #4]
 8005728:	2210      	movs	r2, #16
 800572a:	6879      	ldr	r1, [r7, #4]
 800572c:	4618      	mov	r0, r3
 800572e:	f000 fe68 	bl	8006402 <strBaseToUInt32>
 8005732:	4603      	mov	r3, r0
 8005734:	2b00      	cmp	r3, #0
 8005736:	bf14      	ite	ne
 8005738:	2301      	movne	r3, #1
 800573a:	2300      	moveq	r3, #0
 800573c:	b2db      	uxtb	r3, r3
 800573e:	e03b      	b.n	80057b8 <ParamSignToUInt32+0xdc>
 8005740:	68bb      	ldr	r3, [r7, #8]
 8005742:	685b      	ldr	r3, [r3, #4]
 8005744:	2208      	movs	r2, #8
 8005746:	6879      	ldr	r1, [r7, #4]
 8005748:	4618      	mov	r0, r3
 800574a:	f000 fe5a 	bl	8006402 <strBaseToUInt32>
 800574e:	4603      	mov	r3, r0
 8005750:	2b00      	cmp	r3, #0
 8005752:	bf14      	ite	ne
 8005754:	2301      	movne	r3, #1
 8005756:	2300      	moveq	r3, #0
 8005758:	b2db      	uxtb	r3, r3
 800575a:	e02d      	b.n	80057b8 <ParamSignToUInt32+0xdc>
 800575c:	68bb      	ldr	r3, [r7, #8]
 800575e:	685b      	ldr	r3, [r3, #4]
 8005760:	2202      	movs	r2, #2
 8005762:	6879      	ldr	r1, [r7, #4]
 8005764:	4618      	mov	r0, r3
 8005766:	f000 fe4c 	bl	8006402 <strBaseToUInt32>
 800576a:	4603      	mov	r3, r0
 800576c:	2b00      	cmp	r3, #0
 800576e:	bf14      	ite	ne
 8005770:	2301      	movne	r3, #1
 8005772:	2300      	moveq	r3, #0
 8005774:	b2db      	uxtb	r3, r3
 8005776:	e01f      	b.n	80057b8 <ParamSignToUInt32+0xdc>
 8005778:	78fb      	ldrb	r3, [r7, #3]
 800577a:	2b00      	cmp	r3, #0
 800577c:	d00d      	beq.n	800579a <ParamSignToUInt32+0xbe>
 800577e:	68bb      	ldr	r3, [r7, #8]
 8005780:	685b      	ldr	r3, [r3, #4]
 8005782:	220a      	movs	r2, #10
 8005784:	6879      	ldr	r1, [r7, #4]
 8005786:	4618      	mov	r0, r3
 8005788:	f000 fe22 	bl	80063d0 <strBaseToInt32>
 800578c:	4603      	mov	r3, r0
 800578e:	2b00      	cmp	r3, #0
 8005790:	bf14      	ite	ne
 8005792:	2301      	movne	r3, #1
 8005794:	2300      	moveq	r3, #0
 8005796:	b2db      	uxtb	r3, r3
 8005798:	e00e      	b.n	80057b8 <ParamSignToUInt32+0xdc>
 800579a:	68bb      	ldr	r3, [r7, #8]
 800579c:	685b      	ldr	r3, [r3, #4]
 800579e:	220a      	movs	r2, #10
 80057a0:	6879      	ldr	r1, [r7, #4]
 80057a2:	4618      	mov	r0, r3
 80057a4:	f000 fe2d 	bl	8006402 <strBaseToUInt32>
 80057a8:	4603      	mov	r3, r0
 80057aa:	2b00      	cmp	r3, #0
 80057ac:	bf14      	ite	ne
 80057ae:	2301      	movne	r3, #1
 80057b0:	2300      	moveq	r3, #0
 80057b2:	b2db      	uxtb	r3, r3
 80057b4:	e000      	b.n	80057b8 <ParamSignToUInt32+0xdc>
 80057b6:	2300      	movs	r3, #0
 80057b8:	4618      	mov	r0, r3
 80057ba:	3710      	adds	r7, #16
 80057bc:	46bd      	mov	sp, r7
 80057be:	bd80      	pop	{r7, pc}
 80057c0:	fffffeca 	.word	0xfffffeca

080057c4 <ParamSignToUInt64>:
 80057c4:	b580      	push	{r7, lr}
 80057c6:	b084      	sub	sp, #16
 80057c8:	af00      	add	r7, sp, #0
 80057ca:	60f8      	str	r0, [r7, #12]
 80057cc:	60b9      	str	r1, [r7, #8]
 80057ce:	607a      	str	r2, [r7, #4]
 80057d0:	70fb      	strb	r3, [r7, #3]
 80057d2:	687b      	ldr	r3, [r7, #4]
 80057d4:	2b00      	cmp	r3, #0
 80057d6:	d105      	bne.n	80057e4 <ParamSignToUInt64+0x20>
 80057d8:	4933      	ldr	r1, [pc, #204]	@ (80058a8 <ParamSignToUInt64+0xe4>)
 80057da:	68f8      	ldr	r0, [r7, #12]
 80057dc:	f002 fb9e 	bl	8007f1c <SCPI_ErrorPush>
 80057e0:	2300      	movs	r3, #0
 80057e2:	e05d      	b.n	80058a0 <ParamSignToUInt64+0xdc>
 80057e4:	68bb      	ldr	r3, [r7, #8]
 80057e6:	781b      	ldrb	r3, [r3, #0]
 80057e8:	3b06      	subs	r3, #6
 80057ea:	2b05      	cmp	r3, #5
 80057ec:	d857      	bhi.n	800589e <ParamSignToUInt64+0xda>
 80057ee:	a201      	add	r2, pc, #4	@ (adr r2, 80057f4 <ParamSignToUInt64+0x30>)
 80057f0:	f852 f023 	ldr.w	pc, [r2, r3, lsl #2]
 80057f4:	0800580d 	.word	0x0800580d
 80057f8:	08005829 	.word	0x08005829
 80057fc:	08005845 	.word	0x08005845
 8005800:	0800589f 	.word	0x0800589f
 8005804:	08005861 	.word	0x08005861
 8005808:	08005861 	.word	0x08005861
 800580c:	68bb      	ldr	r3, [r7, #8]
 800580e:	685b      	ldr	r3, [r3, #4]
 8005810:	2210      	movs	r2, #16
 8005812:	6879      	ldr	r1, [r7, #4]
 8005814:	4618      	mov	r0, r3
 8005816:	f000 fe28 	bl	800646a <strBaseToUInt64>
 800581a:	4603      	mov	r3, r0
 800581c:	2b00      	cmp	r3, #0
 800581e:	bf14      	ite	ne
 8005820:	2301      	movne	r3, #1
 8005822:	2300      	moveq	r3, #0
 8005824:	b2db      	uxtb	r3, r3
 8005826:	e03b      	b.n	80058a0 <ParamSignToUInt64+0xdc>
 8005828:	68bb      	ldr	r3, [r7, #8]
 800582a:	685b      	ldr	r3, [r3, #4]
 800582c:	2208      	movs	r2, #8
 800582e:	6879      	ldr	r1, [r7, #4]
 8005830:	4618      	mov	r0, r3
 8005832:	f000 fe1a 	bl	800646a <strBaseToUInt64>
 8005836:	4603      	mov	r3, r0
 8005838:	2b00      	cmp	r3, #0
 800583a:	bf14      	ite	ne
 800583c:	2301      	movne	r3, #1
 800583e:	2300      	moveq	r3, #0
 8005840:	b2db      	uxtb	r3, r3
 8005842:	e02d      	b.n	80058a0 <ParamSignToUInt64+0xdc>
 8005844:	68bb      	ldr	r3, [r7, #8]
 8005846:	685b      	ldr	r3, [r3, #4]
 8005848:	2202      	movs	r2, #2
 800584a:	6879      	ldr	r1, [r7, #4]
 800584c:	4618      	mov	r0, r3
 800584e:	f000 fe0c 	bl	800646a <strBaseToUInt64>
 8005852:	4603      	mov	r3, r0
 8005854:	2b00      	cmp	r3, #0
 8005856:	bf14      	ite	ne
 8005858:	2301      	movne	r3, #1
 800585a:	2300      	moveq	r3, #0
 800585c:	b2db      	uxtb	r3, r3
 800585e:	e01f      	b.n	80058a0 <ParamSignToUInt64+0xdc>
 8005860:	78fb      	ldrb	r3, [r7, #3]
 8005862:	2b00      	cmp	r3, #0
 8005864:	d00d      	beq.n	8005882 <ParamSignToUInt64+0xbe>
 8005866:	68bb      	ldr	r3, [r7, #8]
 8005868:	685b      	ldr	r3, [r3, #4]
 800586a:	220a      	movs	r2, #10
 800586c:	6879      	ldr	r1, [r7, #4]
 800586e:	4618      	mov	r0, r3
 8005870:	f000 fde0 	bl	8006434 <strBaseToInt64>
 8005874:	4603      	mov	r3, r0
 8005876:	2b00      	cmp	r3, #0
 8005878:	bf14      	ite	ne
 800587a:	2301      	movne	r3, #1
 800587c:	2300      	moveq	r3, #0
 800587e:	b2db      	uxtb	r3, r3
 8005880:	e00e      	b.n	80058a0 <ParamSignToUInt64+0xdc>
 8005882:	68bb      	ldr	r3, [r7, #8]
 8005884:	685b      	ldr	r3, [r3, #4]
 8005886:	220a      	movs	r2, #10
 8005888:	6879      	ldr	r1, [r7, #4]
 800588a:	4618      	mov	r0, r3
 800588c:	f000 fded 	bl	800646a <strBaseToUInt64>
 8005890:	4603      	mov	r3, r0
 8005892:	2b00      	cmp	r3, #0
 8005894:	bf14      	ite	ne
 8005896:	2301      	movne	r3, #1
 8005898:	2300      	moveq	r3, #0
 800589a:	b2db      	uxtb	r3, r3
 800589c:	e000      	b.n	80058a0 <ParamSignToUInt64+0xdc>
 800589e:	2300      	movs	r3, #0
 80058a0:	4618      	mov	r0, r3
 80058a2:	3710      	adds	r7, #16
 80058a4:	46bd      	mov	sp, r7
 80058a6:	bd80      	pop	{r7, pc}
 80058a8:	fffffeca 	.word	0xfffffeca

080058ac <SCPI_ParamToInt32>:
 80058ac:	b580      	push	{r7, lr}
 80058ae:	b084      	sub	sp, #16
 80058b0:	af00      	add	r7, sp, #0
 80058b2:	60f8      	str	r0, [r7, #12]
 80058b4:	60b9      	str	r1, [r7, #8]
 80058b6:	607a      	str	r2, [r7, #4]
 80058b8:	2301      	movs	r3, #1
 80058ba:	687a      	ldr	r2, [r7, #4]
 80058bc:	68b9      	ldr	r1, [r7, #8]
 80058be:	68f8      	ldr	r0, [r7, #12]
 80058c0:	f7ff ff0c 	bl	80056dc <ParamSignToUInt32>
 80058c4:	4603      	mov	r3, r0
 80058c6:	4618      	mov	r0, r3
 80058c8:	3710      	adds	r7, #16
 80058ca:	46bd      	mov	sp, r7
 80058cc:	bd80      	pop	{r7, pc}

080058ce <SCPI_ParamToUInt64>:
 80058ce:	b580      	push	{r7, lr}
 80058d0:	b084      	sub	sp, #16
 80058d2:	af00      	add	r7, sp, #0
 80058d4:	60f8      	str	r0, [r7, #12]
 80058d6:	60b9      	str	r1, [r7, #8]
 80058d8:	607a      	str	r2, [r7, #4]
 80058da:	2300      	movs	r3, #0
 80058dc:	687a      	ldr	r2, [r7, #4]
 80058de:	68b9      	ldr	r1, [r7, #8]
 80058e0:	68f8      	ldr	r0, [r7, #12]
 80058e2:	f7ff ff6f 	bl	80057c4 <ParamSignToUInt64>
 80058e6:	4603      	mov	r3, r0
 80058e8:	4618      	mov	r0, r3
 80058ea:	3710      	adds	r7, #16
 80058ec:	46bd      	mov	sp, r7
 80058ee:	bd80      	pop	{r7, pc}

080058f0 <SCPI_ParamToDouble>:
 80058f0:	b580      	push	{r7, lr}
 80058f2:	b088      	sub	sp, #32
 80058f4:	af00      	add	r7, sp, #0
 80058f6:	60f8      	str	r0, [r7, #12]
 80058f8:	60b9      	str	r1, [r7, #8]
 80058fa:	607a      	str	r2, [r7, #4]
 80058fc:	687b      	ldr	r3, [r7, #4]
 80058fe:	2b00      	cmp	r3, #0
 8005900:	d105      	bne.n	800590e <SCPI_ParamToDouble+0x1e>
 8005902:	491d      	ldr	r1, [pc, #116]	@ (8005978 <SCPI_ParamToDouble+0x88>)
 8005904:	68f8      	ldr	r0, [r7, #12]
 8005906:	f002 fb09 	bl	8007f1c <SCPI_ErrorPush>
 800590a:	2300      	movs	r3, #0
 800590c:	e02f      	b.n	800596e <SCPI_ParamToDouble+0x7e>
 800590e:	68bb      	ldr	r3, [r7, #8]
 8005910:	781b      	ldrb	r3, [r3, #0]
 8005912:	2b08      	cmp	r3, #8
 8005914:	dc02      	bgt.n	800591c <SCPI_ParamToDouble+0x2c>
 8005916:	2b06      	cmp	r3, #6
 8005918:	da04      	bge.n	8005924 <SCPI_ParamToDouble+0x34>
 800591a:	e025      	b.n	8005968 <SCPI_ParamToDouble+0x78>
 800591c:	3b0a      	subs	r3, #10
 800591e:	2b01      	cmp	r3, #1
 8005920:	d822      	bhi.n	8005968 <SCPI_ParamToDouble+0x78>
 8005922:	e014      	b.n	800594e <SCPI_ParamToDouble+0x5e>
 8005924:	f107 0310 	add.w	r3, r7, #16
 8005928:	461a      	mov	r2, r3
 800592a:	68b9      	ldr	r1, [r7, #8]
 800592c:	68f8      	ldr	r0, [r7, #12]
 800592e:	f7ff ffce 	bl	80058ce <SCPI_ParamToUInt64>
 8005932:	4603      	mov	r3, r0
 8005934:	77fb      	strb	r3, [r7, #31]
 8005936:	e9d7 2304 	ldrd	r2, r3, [r7, #16]
 800593a:	4610      	mov	r0, r2
 800593c:	4619      	mov	r1, r3
 800593e:	f7fa fe25 	bl	800058c <__aeabi_ul2d>
 8005942:	4602      	mov	r2, r0
 8005944:	460b      	mov	r3, r1
 8005946:	6879      	ldr	r1, [r7, #4]
 8005948:	e9c1 2300 	strd	r2, r3, [r1]
 800594c:	e00e      	b.n	800596c <SCPI_ParamToDouble+0x7c>
 800594e:	68bb      	ldr	r3, [r7, #8]
 8005950:	685b      	ldr	r3, [r3, #4]
 8005952:	6879      	ldr	r1, [r7, #4]
 8005954:	4618      	mov	r0, r3
 8005956:	f000 fda3 	bl	80064a0 <strToDouble>
 800595a:	4603      	mov	r3, r0
 800595c:	2b00      	cmp	r3, #0
 800595e:	bf14      	ite	ne
 8005960:	2301      	movne	r3, #1
 8005962:	2300      	moveq	r3, #0
 8005964:	77fb      	strb	r3, [r7, #31]
 8005966:	e001      	b.n	800596c <SCPI_ParamToDouble+0x7c>
 8005968:	2300      	movs	r3, #0
 800596a:	77fb      	strb	r3, [r7, #31]
 800596c:	7ffb      	ldrb	r3, [r7, #31]
 800596e:	4618      	mov	r0, r3
 8005970:	3720      	adds	r7, #32
 8005972:	46bd      	mov	sp, r7
 8005974:	bd80      	pop	{r7, pc}
 8005976:	bf00      	nop
 8005978:	fffffeca 	.word	0xfffffeca

0800597c <ParamSignUInt32>:
 800597c:	b580      	push	{r7, lr}
 800597e:	b088      	sub	sp, #32
 8005980:	af00      	add	r7, sp, #0
 8005982:	60f8      	str	r0, [r7, #12]
 8005984:	60b9      	str	r1, [r7, #8]
 8005986:	4611      	mov	r1, r2
 8005988:	461a      	mov	r2, r3
 800598a:	460b      	mov	r3, r1
 800598c:	71fb      	strb	r3, [r7, #7]
 800598e:	4613      	mov	r3, r2
 8005990:	71bb      	strb	r3, [r7, #6]
 8005992:	68bb      	ldr	r3, [r7, #8]
 8005994:	2b00      	cmp	r3, #0
 8005996:	d105      	bne.n	80059a4 <ParamSignUInt32+0x28>
 8005998:	4920      	ldr	r1, [pc, #128]	@ (8005a1c <ParamSignUInt32+0xa0>)
 800599a:	68f8      	ldr	r0, [r7, #12]
 800599c:	f002 fabe 	bl	8007f1c <SCPI_ErrorPush>
 80059a0:	2300      	movs	r3, #0
 80059a2:	e037      	b.n	8005a14 <ParamSignUInt32+0x98>
 80059a4:	79fa      	ldrb	r2, [r7, #7]
 80059a6:	f107 0310 	add.w	r3, r7, #16
 80059aa:	4619      	mov	r1, r3
 80059ac:	68f8      	ldr	r0, [r7, #12]
 80059ae:	f7ff fe0b 	bl	80055c8 <SCPI_Parameter>
 80059b2:	4603      	mov	r3, r0
 80059b4:	77fb      	strb	r3, [r7, #31]
 80059b6:	7ffb      	ldrb	r3, [r7, #31]
 80059b8:	2b00      	cmp	r3, #0
 80059ba:	d02a      	beq.n	8005a12 <ParamSignUInt32+0x96>
 80059bc:	f107 0310 	add.w	r3, r7, #16
 80059c0:	2100      	movs	r1, #0
 80059c2:	4618      	mov	r0, r3
 80059c4:	f7ff fe6c 	bl	80056a0 <SCPI_ParamIsNumber>
 80059c8:	4603      	mov	r3, r0
 80059ca:	2b00      	cmp	r3, #0
 80059cc:	d009      	beq.n	80059e2 <ParamSignUInt32+0x66>
 80059ce:	79bb      	ldrb	r3, [r7, #6]
 80059d0:	f107 0110 	add.w	r1, r7, #16
 80059d4:	68ba      	ldr	r2, [r7, #8]
 80059d6:	68f8      	ldr	r0, [r7, #12]
 80059d8:	f7ff fe80 	bl	80056dc <ParamSignToUInt32>
 80059dc:	4603      	mov	r3, r0
 80059de:	77fb      	strb	r3, [r7, #31]
 80059e0:	e017      	b.n	8005a12 <ParamSignUInt32+0x96>
 80059e2:	f107 0310 	add.w	r3, r7, #16
 80059e6:	2101      	movs	r1, #1
 80059e8:	4618      	mov	r0, r3
 80059ea:	f7ff fe59 	bl	80056a0 <SCPI_ParamIsNumber>
 80059ee:	4603      	mov	r3, r0
 80059f0:	2b00      	cmp	r3, #0
 80059f2:	d007      	beq.n	8005a04 <ParamSignUInt32+0x88>
 80059f4:	f06f 0189 	mvn.w	r1, #137	@ 0x89
 80059f8:	68f8      	ldr	r0, [r7, #12]
 80059fa:	f002 fa8f 	bl	8007f1c <SCPI_ErrorPush>
 80059fe:	2300      	movs	r3, #0
 8005a00:	77fb      	strb	r3, [r7, #31]
 8005a02:	e006      	b.n	8005a12 <ParamSignUInt32+0x96>
 8005a04:	f06f 0167 	mvn.w	r1, #103	@ 0x67
 8005a08:	68f8      	ldr	r0, [r7, #12]
 8005a0a:	f002 fa87 	bl	8007f1c <SCPI_ErrorPush>
 8005a0e:	2300      	movs	r3, #0
 8005a10:	77fb      	strb	r3, [r7, #31]
 8005a12:	7ffb      	ldrb	r3, [r7, #31]
 8005a14:	4618      	mov	r0, r3
 8005a16:	3720      	adds	r7, #32
 8005a18:	46bd      	mov	sp, r7
 8005a1a:	bd80      	pop	{r7, pc}
 8005a1c:	fffffeca 	.word	0xfffffeca

08005a20 <SCPI_ParamInt32>:
 8005a20:	b580      	push	{r7, lr}
 8005a22:	b084      	sub	sp, #16
 8005a24:	af00      	add	r7, sp, #0
 8005a26:	60f8      	str	r0, [r7, #12]
 8005a28:	60b9      	str	r1, [r7, #8]
 8005a2a:	4613      	mov	r3, r2
 8005a2c:	71fb      	strb	r3, [r7, #7]
 8005a2e:	79fa      	ldrb	r2, [r7, #7]
 8005a30:	2301      	movs	r3, #1
 8005a32:	68b9      	ldr	r1, [r7, #8]
 8005a34:	68f8      	ldr	r0, [r7, #12]
 8005a36:	f7ff ffa1 	bl	800597c <ParamSignUInt32>
 8005a3a:	4603      	mov	r3, r0
 8005a3c:	4618      	mov	r0, r3
 8005a3e:	3710      	adds	r7, #16
 8005a40:	46bd      	mov	sp, r7
 8005a42:	bd80      	pop	{r7, pc}

08005a44 <SCPI_ParamToChoice>:
 8005a44:	b590      	push	{r4, r7, lr}
 8005a46:	b089      	sub	sp, #36	@ 0x24
 8005a48:	af02      	add	r7, sp, #8
 8005a4a:	60f8      	str	r0, [r7, #12]
 8005a4c:	60b9      	str	r1, [r7, #8]
 8005a4e:	607a      	str	r2, [r7, #4]
 8005a50:	603b      	str	r3, [r7, #0]
 8005a52:	2300      	movs	r3, #0
 8005a54:	74fb      	strb	r3, [r7, #19]
 8005a56:	687b      	ldr	r3, [r7, #4]
 8005a58:	2b00      	cmp	r3, #0
 8005a5a:	d002      	beq.n	8005a62 <SCPI_ParamToChoice+0x1e>
 8005a5c:	683b      	ldr	r3, [r7, #0]
 8005a5e:	2b00      	cmp	r3, #0
 8005a60:	d105      	bne.n	8005a6e <SCPI_ParamToChoice+0x2a>
 8005a62:	4929      	ldr	r1, [pc, #164]	@ (8005b08 <SCPI_ParamToChoice+0xc4>)
 8005a64:	68f8      	ldr	r0, [r7, #12]
 8005a66:	f002 fa59 	bl	8007f1c <SCPI_ErrorPush>
 8005a6a:	2300      	movs	r3, #0
 8005a6c:	e048      	b.n	8005b00 <SCPI_ParamToChoice+0xbc>
 8005a6e:	68bb      	ldr	r3, [r7, #8]
 8005a70:	781b      	ldrb	r3, [r3, #0]
 8005a72:	2b09      	cmp	r3, #9
 8005a74:	d13e      	bne.n	8005af4 <SCPI_ParamToChoice+0xb0>
 8005a76:	2300      	movs	r3, #0
 8005a78:	617b      	str	r3, [r7, #20]
 8005a7a:	e028      	b.n	8005ace <SCPI_ParamToChoice+0x8a>
 8005a7c:	697b      	ldr	r3, [r7, #20]
 8005a7e:	00db      	lsls	r3, r3, #3
 8005a80:	687a      	ldr	r2, [r7, #4]
 8005a82:	4413      	add	r3, r2
 8005a84:	681c      	ldr	r4, [r3, #0]
 8005a86:	697b      	ldr	r3, [r7, #20]
 8005a88:	00db      	lsls	r3, r3, #3
 8005a8a:	687a      	ldr	r2, [r7, #4]
 8005a8c:	4413      	add	r3, r2
 8005a8e:	681b      	ldr	r3, [r3, #0]
 8005a90:	4618      	mov	r0, r3
 8005a92:	f7fa fb9d 	bl	80001d0 <strlen>
 8005a96:	4601      	mov	r1, r0
 8005a98:	68bb      	ldr	r3, [r7, #8]
 8005a9a:	685a      	ldr	r2, [r3, #4]
 8005a9c:	68bb      	ldr	r3, [r7, #8]
 8005a9e:	689b      	ldr	r3, [r3, #8]
 8005aa0:	4618      	mov	r0, r3
 8005aa2:	2300      	movs	r3, #0
 8005aa4:	9300      	str	r3, [sp, #0]
 8005aa6:	4603      	mov	r3, r0
 8005aa8:	4620      	mov	r0, r4
 8005aaa:	f000 fe0f 	bl	80066cc <matchPattern>
 8005aae:	4603      	mov	r3, r0
 8005ab0:	2b00      	cmp	r3, #0
 8005ab2:	d009      	beq.n	8005ac8 <SCPI_ParamToChoice+0x84>
 8005ab4:	697b      	ldr	r3, [r7, #20]
 8005ab6:	00db      	lsls	r3, r3, #3
 8005ab8:	687a      	ldr	r2, [r7, #4]
 8005aba:	4413      	add	r3, r2
 8005abc:	685a      	ldr	r2, [r3, #4]
 8005abe:	683b      	ldr	r3, [r7, #0]
 8005ac0:	601a      	str	r2, [r3, #0]
 8005ac2:	2301      	movs	r3, #1
 8005ac4:	74fb      	strb	r3, [r7, #19]
 8005ac6:	e009      	b.n	8005adc <SCPI_ParamToChoice+0x98>
 8005ac8:	697b      	ldr	r3, [r7, #20]
 8005aca:	3301      	adds	r3, #1
 8005acc:	617b      	str	r3, [r7, #20]
 8005ace:	697b      	ldr	r3, [r7, #20]
 8005ad0:	00db      	lsls	r3, r3, #3
 8005ad2:	687a      	ldr	r2, [r7, #4]
 8005ad4:	4413      	add	r3, r2
 8005ad6:	681b      	ldr	r3, [r3, #0]
 8005ad8:	2b00      	cmp	r3, #0
 8005ada:	d1cf      	bne.n	8005a7c <SCPI_ParamToChoice+0x38>
 8005adc:	7cfb      	ldrb	r3, [r7, #19]
 8005ade:	f083 0301 	eor.w	r3, r3, #1
 8005ae2:	b2db      	uxtb	r3, r3
 8005ae4:	2b00      	cmp	r3, #0
 8005ae6:	d00a      	beq.n	8005afe <SCPI_ParamToChoice+0xba>
 8005ae8:	f06f 01df 	mvn.w	r1, #223	@ 0xdf
 8005aec:	68f8      	ldr	r0, [r7, #12]
 8005aee:	f002 fa15 	bl	8007f1c <SCPI_ErrorPush>
 8005af2:	e004      	b.n	8005afe <SCPI_ParamToChoice+0xba>
 8005af4:	f06f 0167 	mvn.w	r1, #103	@ 0x67
 8005af8:	68f8      	ldr	r0, [r7, #12]
 8005afa:	f002 fa0f 	bl	8007f1c <SCPI_ErrorPush>
 8005afe:	7cfb      	ldrb	r3, [r7, #19]
 8005b00:	4618      	mov	r0, r3
 8005b02:	371c      	adds	r7, #28
 8005b04:	46bd      	mov	sp, r7
 8005b06:	bd90      	pop	{r4, r7, pc}
 8005b08:	fffffeca 	.word	0xfffffeca

08005b0c <SCPI_ChoiceToName>:
 8005b0c:	b480      	push	{r7}
 8005b0e:	b087      	sub	sp, #28
 8005b10:	af00      	add	r7, sp, #0
 8005b12:	60f8      	str	r0, [r7, #12]
 8005b14:	60b9      	str	r1, [r7, #8]
 8005b16:	607a      	str	r2, [r7, #4]
 8005b18:	2300      	movs	r3, #0
 8005b1a:	617b      	str	r3, [r7, #20]
 8005b1c:	e013      	b.n	8005b46 <SCPI_ChoiceToName+0x3a>
 8005b1e:	697b      	ldr	r3, [r7, #20]
 8005b20:	00db      	lsls	r3, r3, #3
 8005b22:	68fa      	ldr	r2, [r7, #12]
 8005b24:	4413      	add	r3, r2
 8005b26:	685b      	ldr	r3, [r3, #4]
 8005b28:	68ba      	ldr	r2, [r7, #8]
 8005b2a:	429a      	cmp	r2, r3
 8005b2c:	d108      	bne.n	8005b40 <SCPI_ChoiceToName+0x34>
 8005b2e:	697b      	ldr	r3, [r7, #20]
 8005b30:	00db      	lsls	r3, r3, #3
 8005b32:	68fa      	ldr	r2, [r7, #12]
 8005b34:	4413      	add	r3, r2
 8005b36:	681a      	ldr	r2, [r3, #0]
 8005b38:	687b      	ldr	r3, [r7, #4]
 8005b3a:	601a      	str	r2, [r3, #0]
 8005b3c:	2301      	movs	r3, #1
 8005b3e:	e00a      	b.n	8005b56 <SCPI_ChoiceToName+0x4a>
 8005b40:	697b      	ldr	r3, [r7, #20]
 8005b42:	3301      	adds	r3, #1
 8005b44:	617b      	str	r3, [r7, #20]
 8005b46:	697b      	ldr	r3, [r7, #20]
 8005b48:	00db      	lsls	r3, r3, #3
 8005b4a:	68fa      	ldr	r2, [r7, #12]
 8005b4c:	4413      	add	r3, r2
 8005b4e:	681b      	ldr	r3, [r3, #0]
 8005b50:	2b00      	cmp	r3, #0
 8005b52:	d1e4      	bne.n	8005b1e <SCPI_ChoiceToName+0x12>
 8005b54:	2300      	movs	r3, #0
 8005b56:	4618      	mov	r0, r3
 8005b58:	371c      	adds	r7, #28
 8005b5a:	46bd      	mov	sp, r7
 8005b5c:	f85d 7b04 	ldr.w	r7, [sp], #4
 8005b60:	4770      	bx	lr
	...

08005b64 <SCPI_ParamBool>:
 8005b64:	b580      	push	{r7, lr}
 8005b66:	b08a      	sub	sp, #40	@ 0x28
 8005b68:	af00      	add	r7, sp, #0
 8005b6a:	60f8      	str	r0, [r7, #12]
 8005b6c:	60b9      	str	r1, [r7, #8]
 8005b6e:	4613      	mov	r3, r2
 8005b70:	71fb      	strb	r3, [r7, #7]
 8005b72:	68bb      	ldr	r3, [r7, #8]
 8005b74:	2b00      	cmp	r3, #0
 8005b76:	d105      	bne.n	8005b84 <SCPI_ParamBool+0x20>
 8005b78:	4922      	ldr	r1, [pc, #136]	@ (8005c04 <SCPI_ParamBool+0xa0>)
 8005b7a:	68f8      	ldr	r0, [r7, #12]
 8005b7c:	f002 f9ce 	bl	8007f1c <SCPI_ErrorPush>
 8005b80:	2300      	movs	r3, #0
 8005b82:	e03a      	b.n	8005bfa <SCPI_ParamBool+0x96>
 8005b84:	79fa      	ldrb	r2, [r7, #7]
 8005b86:	f107 0318 	add.w	r3, r7, #24
 8005b8a:	4619      	mov	r1, r3
 8005b8c:	68f8      	ldr	r0, [r7, #12]
 8005b8e:	f7ff fd1b 	bl	80055c8 <SCPI_Parameter>
 8005b92:	4603      	mov	r3, r0
 8005b94:	f887 3027 	strb.w	r3, [r7, #39]	@ 0x27
 8005b98:	f897 3027 	ldrb.w	r3, [r7, #39]	@ 0x27
 8005b9c:	2b00      	cmp	r3, #0
 8005b9e:	d02a      	beq.n	8005bf6 <SCPI_ParamBool+0x92>
 8005ba0:	7e3b      	ldrb	r3, [r7, #24]
 8005ba2:	2b0a      	cmp	r3, #10
 8005ba4:	d110      	bne.n	8005bc8 <SCPI_ParamBool+0x64>
 8005ba6:	f107 0214 	add.w	r2, r7, #20
 8005baa:	f107 0318 	add.w	r3, r7, #24
 8005bae:	4619      	mov	r1, r3
 8005bb0:	68f8      	ldr	r0, [r7, #12]
 8005bb2:	f7ff fe7b 	bl	80058ac <SCPI_ParamToInt32>
 8005bb6:	697b      	ldr	r3, [r7, #20]
 8005bb8:	2b00      	cmp	r3, #0
 8005bba:	bf14      	ite	ne
 8005bbc:	2301      	movne	r3, #1
 8005bbe:	2300      	moveq	r3, #0
 8005bc0:	b2da      	uxtb	r2, r3
 8005bc2:	68bb      	ldr	r3, [r7, #8]
 8005bc4:	701a      	strb	r2, [r3, #0]
 8005bc6:	e016      	b.n	8005bf6 <SCPI_ParamBool+0x92>
 8005bc8:	f107 0314 	add.w	r3, r7, #20
 8005bcc:	f107 0118 	add.w	r1, r7, #24
 8005bd0:	4a0d      	ldr	r2, [pc, #52]	@ (8005c08 <SCPI_ParamBool+0xa4>)
 8005bd2:	68f8      	ldr	r0, [r7, #12]
 8005bd4:	f7ff ff36 	bl	8005a44 <SCPI_ParamToChoice>
 8005bd8:	4603      	mov	r3, r0
 8005bda:	f887 3027 	strb.w	r3, [r7, #39]	@ 0x27
 8005bde:	f897 3027 	ldrb.w	r3, [r7, #39]	@ 0x27
 8005be2:	2b00      	cmp	r3, #0
 8005be4:	d007      	beq.n	8005bf6 <SCPI_ParamBool+0x92>
 8005be6:	697b      	ldr	r3, [r7, #20]
 8005be8:	2b00      	cmp	r3, #0
 8005bea:	bf14      	ite	ne
 8005bec:	2301      	movne	r3, #1
 8005bee:	2300      	moveq	r3, #0
 8005bf0:	b2da      	uxtb	r2, r3
 8005bf2:	68bb      	ldr	r3, [r7, #8]
 8005bf4:	701a      	strb	r2, [r3, #0]
 8005bf6:	f897 3027 	ldrb.w	r3, [r7, #39]	@ 0x27
 8005bfa:	4618      	mov	r0, r3
 8005bfc:	3728      	adds	r7, #40	@ 0x28
 8005bfe:	46bd      	mov	sp, r7
 8005c00:	bd80      	pop	{r7, pc}
 8005c02:	bf00      	nop
 8005c04:	fffffeca 	.word	0xfffffeca
 8005c08:	0800c0a8 	.word	0x0800c0a8

08005c0c <SCPI_ParamChoice>:
 8005c0c:	b580      	push	{r7, lr}
 8005c0e:	b088      	sub	sp, #32
 8005c10:	af00      	add	r7, sp, #0
 8005c12:	60f8      	str	r0, [r7, #12]
 8005c14:	60b9      	str	r1, [r7, #8]
 8005c16:	607a      	str	r2, [r7, #4]
 8005c18:	70fb      	strb	r3, [r7, #3]
 8005c1a:	68bb      	ldr	r3, [r7, #8]
 8005c1c:	2b00      	cmp	r3, #0
 8005c1e:	d002      	beq.n	8005c26 <SCPI_ParamChoice+0x1a>
 8005c20:	687b      	ldr	r3, [r7, #4]
 8005c22:	2b00      	cmp	r3, #0
 8005c24:	d105      	bne.n	8005c32 <SCPI_ParamChoice+0x26>
 8005c26:	4910      	ldr	r1, [pc, #64]	@ (8005c68 <SCPI_ParamChoice+0x5c>)
 8005c28:	68f8      	ldr	r0, [r7, #12]
 8005c2a:	f002 f977 	bl	8007f1c <SCPI_ErrorPush>
 8005c2e:	2300      	movs	r3, #0
 8005c30:	e015      	b.n	8005c5e <SCPI_ParamChoice+0x52>
 8005c32:	78fa      	ldrb	r2, [r7, #3]
 8005c34:	f107 0310 	add.w	r3, r7, #16
 8005c38:	4619      	mov	r1, r3
 8005c3a:	68f8      	ldr	r0, [r7, #12]
 8005c3c:	f7ff fcc4 	bl	80055c8 <SCPI_Parameter>
 8005c40:	4603      	mov	r3, r0
 8005c42:	77fb      	strb	r3, [r7, #31]
 8005c44:	7ffb      	ldrb	r3, [r7, #31]
 8005c46:	2b00      	cmp	r3, #0
 8005c48:	d008      	beq.n	8005c5c <SCPI_ParamChoice+0x50>
 8005c4a:	f107 0110 	add.w	r1, r7, #16
 8005c4e:	687b      	ldr	r3, [r7, #4]
 8005c50:	68ba      	ldr	r2, [r7, #8]
 8005c52:	68f8      	ldr	r0, [r7, #12]
 8005c54:	f7ff fef6 	bl	8005a44 <SCPI_ParamToChoice>
 8005c58:	4603      	mov	r3, r0
 8005c5a:	77fb      	strb	r3, [r7, #31]
 8005c5c:	7ffb      	ldrb	r3, [r7, #31]
 8005c5e:	4618      	mov	r0, r3
 8005c60:	3720      	adds	r7, #32
 8005c62:	46bd      	mov	sp, r7
 8005c64:	bd80      	pop	{r7, pc}
 8005c66:	bf00      	nop
 8005c68:	fffffeca 	.word	0xfffffeca

08005c6c <scpiParser_parseProgramData>:
 8005c6c:	b580      	push	{r7, lr}
 8005c6e:	b08a      	sub	sp, #40	@ 0x28
 8005c70:	af00      	add	r7, sp, #0
 8005c72:	6078      	str	r0, [r7, #4]
 8005c74:	6039      	str	r1, [r7, #0]
 8005c76:	2300      	movs	r3, #0
 8005c78:	627b      	str	r3, [r7, #36]	@ 0x24
 8005c7a:	2300      	movs	r3, #0
 8005c7c:	623b      	str	r3, [r7, #32]
 8005c7e:	f107 030c 	add.w	r3, r7, #12
 8005c82:	4619      	mov	r1, r3
 8005c84:	6878      	ldr	r0, [r7, #4]
 8005c86:	f001 fa0d 	bl	80070a4 <scpiLex_WhiteSpace>
 8005c8a:	4602      	mov	r2, r0
 8005c8c:	6a3b      	ldr	r3, [r7, #32]
 8005c8e:	4413      	add	r3, r2
 8005c90:	623b      	str	r3, [r7, #32]
 8005c92:	6a7b      	ldr	r3, [r7, #36]	@ 0x24
 8005c94:	2b00      	cmp	r3, #0
 8005c96:	d104      	bne.n	8005ca2 <scpiParser_parseProgramData+0x36>
 8005c98:	6839      	ldr	r1, [r7, #0]
 8005c9a:	6878      	ldr	r0, [r7, #4]
 8005c9c:	f001 fc82 	bl	80075a4 <scpiLex_NondecimalNumericData>
 8005ca0:	6278      	str	r0, [r7, #36]	@ 0x24
 8005ca2:	6a7b      	ldr	r3, [r7, #36]	@ 0x24
 8005ca4:	2b00      	cmp	r3, #0
 8005ca6:	d104      	bne.n	8005cb2 <scpiParser_parseProgramData+0x46>
 8005ca8:	6839      	ldr	r1, [r7, #0]
 8005caa:	6878      	ldr	r0, [r7, #4]
 8005cac:	f001 fae2 	bl	8007274 <scpiLex_CharacterProgramData>
 8005cb0:	6278      	str	r0, [r7, #36]	@ 0x24
 8005cb2:	6a7b      	ldr	r3, [r7, #36]	@ 0x24
 8005cb4:	2b00      	cmp	r3, #0
 8005cb6:	d126      	bne.n	8005d06 <scpiParser_parseProgramData+0x9a>
 8005cb8:	6839      	ldr	r1, [r7, #0]
 8005cba:	6878      	ldr	r0, [r7, #4]
 8005cbc:	f001 fb7e 	bl	80073bc <scpiLex_DecimalNumericProgramData>
 8005cc0:	6278      	str	r0, [r7, #36]	@ 0x24
 8005cc2:	6a7b      	ldr	r3, [r7, #36]	@ 0x24
 8005cc4:	2b00      	cmp	r3, #0
 8005cc6:	d01e      	beq.n	8005d06 <scpiParser_parseProgramData+0x9a>
 8005cc8:	f107 030c 	add.w	r3, r7, #12
 8005ccc:	4619      	mov	r1, r3
 8005cce:	6878      	ldr	r0, [r7, #4]
 8005cd0:	f001 f9e8 	bl	80070a4 <scpiLex_WhiteSpace>
 8005cd4:	61f8      	str	r0, [r7, #28]
 8005cd6:	f107 030c 	add.w	r3, r7, #12
 8005cda:	4619      	mov	r1, r3
 8005cdc:	6878      	ldr	r0, [r7, #4]
 8005cde:	f001 fba8 	bl	8007432 <scpiLex_SuffixProgramData>
 8005ce2:	61b8      	str	r0, [r7, #24]
 8005ce4:	69bb      	ldr	r3, [r7, #24]
 8005ce6:	2b00      	cmp	r3, #0
 8005ce8:	dd0d      	ble.n	8005d06 <scpiParser_parseProgramData+0x9a>
 8005cea:	683b      	ldr	r3, [r7, #0]
 8005cec:	689a      	ldr	r2, [r3, #8]
 8005cee:	69f9      	ldr	r1, [r7, #28]
 8005cf0:	69bb      	ldr	r3, [r7, #24]
 8005cf2:	440b      	add	r3, r1
 8005cf4:	441a      	add	r2, r3
 8005cf6:	683b      	ldr	r3, [r7, #0]
 8005cf8:	609a      	str	r2, [r3, #8]
 8005cfa:	683b      	ldr	r3, [r7, #0]
 8005cfc:	220b      	movs	r2, #11
 8005cfe:	701a      	strb	r2, [r3, #0]
 8005d00:	683b      	ldr	r3, [r7, #0]
 8005d02:	689b      	ldr	r3, [r3, #8]
 8005d04:	627b      	str	r3, [r7, #36]	@ 0x24
 8005d06:	6a7b      	ldr	r3, [r7, #36]	@ 0x24
 8005d08:	2b00      	cmp	r3, #0
 8005d0a:	d104      	bne.n	8005d16 <scpiParser_parseProgramData+0xaa>
 8005d0c:	6839      	ldr	r1, [r7, #0]
 8005d0e:	6878      	ldr	r0, [r7, #4]
 8005d10:	f001 fd44 	bl	800779c <scpiLex_StringProgramData>
 8005d14:	6278      	str	r0, [r7, #36]	@ 0x24
 8005d16:	6a7b      	ldr	r3, [r7, #36]	@ 0x24
 8005d18:	2b00      	cmp	r3, #0
 8005d1a:	d104      	bne.n	8005d26 <scpiParser_parseProgramData+0xba>
 8005d1c:	6839      	ldr	r1, [r7, #0]
 8005d1e:	6878      	ldr	r0, [r7, #4]
 8005d20:	f001 fde6 	bl	80078f0 <scpiLex_ArbitraryBlockProgramData>
 8005d24:	6278      	str	r0, [r7, #36]	@ 0x24
 8005d26:	6a7b      	ldr	r3, [r7, #36]	@ 0x24
 8005d28:	2b00      	cmp	r3, #0
 8005d2a:	d104      	bne.n	8005d36 <scpiParser_parseProgramData+0xca>
 8005d2c:	6839      	ldr	r1, [r7, #0]
 8005d2e:	6878      	ldr	r0, [r7, #4]
 8005d30:	f001 fee0 	bl	8007af4 <scpiLex_ProgramExpression>
 8005d34:	6278      	str	r0, [r7, #36]	@ 0x24
 8005d36:	f107 030c 	add.w	r3, r7, #12
 8005d3a:	4619      	mov	r1, r3
 8005d3c:	6878      	ldr	r0, [r7, #4]
 8005d3e:	f001 f9b1 	bl	80070a4 <scpiLex_WhiteSpace>
 8005d42:	4602      	mov	r2, r0
 8005d44:	6a3b      	ldr	r3, [r7, #32]
 8005d46:	4413      	add	r3, r2
 8005d48:	623b      	str	r3, [r7, #32]
 8005d4a:	6a7a      	ldr	r2, [r7, #36]	@ 0x24
 8005d4c:	6a3b      	ldr	r3, [r7, #32]
 8005d4e:	4413      	add	r3, r2
 8005d50:	4618      	mov	r0, r3
 8005d52:	3728      	adds	r7, #40	@ 0x28
 8005d54:	46bd      	mov	sp, r7
 8005d56:	bd80      	pop	{r7, pc}

08005d58 <scpiParser_parseAllProgramData>:
 8005d58:	b580      	push	{r7, lr}
 8005d5a:	b08a      	sub	sp, #40	@ 0x28
 8005d5c:	af00      	add	r7, sp, #0
 8005d5e:	60f8      	str	r0, [r7, #12]
 8005d60:	60b9      	str	r1, [r7, #8]
 8005d62:	607a      	str	r2, [r7, #4]
 8005d64:	2300      	movs	r3, #0
 8005d66:	623b      	str	r3, [r7, #32]
 8005d68:	68bb      	ldr	r3, [r7, #8]
 8005d6a:	f04f 32ff 	mov.w	r2, #4294967295
 8005d6e:	609a      	str	r2, [r3, #8]
 8005d70:	68bb      	ldr	r3, [r7, #8]
 8005d72:	2218      	movs	r2, #24
 8005d74:	701a      	strb	r2, [r3, #0]
 8005d76:	68fb      	ldr	r3, [r7, #12]
 8005d78:	685a      	ldr	r2, [r3, #4]
 8005d7a:	68bb      	ldr	r3, [r7, #8]
 8005d7c:	605a      	str	r2, [r3, #4]
 8005d7e:	2301      	movs	r3, #1
 8005d80:	627b      	str	r3, [r7, #36]	@ 0x24
 8005d82:	e037      	b.n	8005df4 <scpiParser_parseAllProgramData+0x9c>
 8005d84:	68bb      	ldr	r3, [r7, #8]
 8005d86:	689a      	ldr	r2, [r3, #8]
 8005d88:	6a7b      	ldr	r3, [r7, #36]	@ 0x24
 8005d8a:	441a      	add	r2, r3
 8005d8c:	68bb      	ldr	r3, [r7, #8]
 8005d8e:	609a      	str	r2, [r3, #8]
 8005d90:	6a7b      	ldr	r3, [r7, #36]	@ 0x24
 8005d92:	2b00      	cmp	r3, #0
 8005d94:	d109      	bne.n	8005daa <scpiParser_parseAllProgramData+0x52>
 8005d96:	68bb      	ldr	r3, [r7, #8]
 8005d98:	221a      	movs	r2, #26
 8005d9a:	701a      	strb	r2, [r3, #0]
 8005d9c:	68bb      	ldr	r3, [r7, #8]
 8005d9e:	2200      	movs	r2, #0
 8005da0:	609a      	str	r2, [r3, #8]
 8005da2:	f04f 33ff 	mov.w	r3, #4294967295
 8005da6:	623b      	str	r3, [r7, #32]
 8005da8:	e027      	b.n	8005dfa <scpiParser_parseAllProgramData+0xa2>
 8005daa:	f107 0314 	add.w	r3, r7, #20
 8005dae:	4619      	mov	r1, r3
 8005db0:	68f8      	ldr	r0, [r7, #12]
 8005db2:	f7ff ff5b 	bl	8005c6c <scpiParser_parseProgramData>
 8005db6:	6278      	str	r0, [r7, #36]	@ 0x24
 8005db8:	7d3b      	ldrb	r3, [r7, #20]
 8005dba:	2b1a      	cmp	r3, #26
 8005dbc:	d006      	beq.n	8005dcc <scpiParser_parseAllProgramData+0x74>
 8005dbe:	68bb      	ldr	r3, [r7, #8]
 8005dc0:	689a      	ldr	r2, [r3, #8]
 8005dc2:	6a7b      	ldr	r3, [r7, #36]	@ 0x24
 8005dc4:	441a      	add	r2, r3
 8005dc6:	68bb      	ldr	r3, [r7, #8]
 8005dc8:	609a      	str	r2, [r3, #8]
 8005dca:	e009      	b.n	8005de0 <scpiParser_parseAllProgramData+0x88>
 8005dcc:	68bb      	ldr	r3, [r7, #8]
 8005dce:	221a      	movs	r2, #26
 8005dd0:	701a      	strb	r2, [r3, #0]
 8005dd2:	68bb      	ldr	r3, [r7, #8]
 8005dd4:	2200      	movs	r2, #0
 8005dd6:	609a      	str	r2, [r3, #8]
 8005dd8:	f04f 33ff 	mov.w	r3, #4294967295
 8005ddc:	623b      	str	r3, [r7, #32]
 8005dde:	e00c      	b.n	8005dfa <scpiParser_parseAllProgramData+0xa2>
 8005de0:	6a3b      	ldr	r3, [r7, #32]
 8005de2:	3301      	adds	r3, #1
 8005de4:	623b      	str	r3, [r7, #32]
 8005de6:	f107 0314 	add.w	r3, r7, #20
 8005dea:	4619      	mov	r1, r3
 8005dec:	68f8      	ldr	r0, [r7, #12]
 8005dee:	f001 fed4 	bl	8007b9a <scpiLex_Comma>
 8005df2:	6278      	str	r0, [r7, #36]	@ 0x24
 8005df4:	6a7b      	ldr	r3, [r7, #36]	@ 0x24
 8005df6:	2b00      	cmp	r3, #0
 8005df8:	d1c4      	bne.n	8005d84 <scpiParser_parseAllProgramData+0x2c>
 8005dfa:	68bb      	ldr	r3, [r7, #8]
 8005dfc:	689b      	ldr	r3, [r3, #8]
 8005dfe:	f1b3 3fff 	cmp.w	r3, #4294967295
 8005e02:	d102      	bne.n	8005e0a <scpiParser_parseAllProgramData+0xb2>
 8005e04:	68bb      	ldr	r3, [r7, #8]
 8005e06:	2200      	movs	r2, #0
 8005e08:	609a      	str	r2, [r3, #8]
 8005e0a:	687b      	ldr	r3, [r7, #4]
 8005e0c:	2b00      	cmp	r3, #0
 8005e0e:	d002      	beq.n	8005e16 <scpiParser_parseAllProgramData+0xbe>
 8005e10:	687b      	ldr	r3, [r7, #4]
 8005e12:	6a3a      	ldr	r2, [r7, #32]
 8005e14:	601a      	str	r2, [r3, #0]
 8005e16:	68bb      	ldr	r3, [r7, #8]
 8005e18:	689b      	ldr	r3, [r3, #8]
 8005e1a:	4618      	mov	r0, r3
 8005e1c:	3728      	adds	r7, #40	@ 0x28
 8005e1e:	46bd      	mov	sp, r7
 8005e20:	bd80      	pop	{r7, pc}

08005e22 <scpiParser_detectProgramMessageUnit>:
 8005e22:	b580      	push	{r7, lr}
 8005e24:	b08c      	sub	sp, #48	@ 0x30
 8005e26:	af00      	add	r7, sp, #0
 8005e28:	60f8      	str	r0, [r7, #12]
 8005e2a:	60b9      	str	r1, [r7, #8]
 8005e2c:	607a      	str	r2, [r7, #4]
 8005e2e:	2300      	movs	r3, #0
 8005e30:	62fb      	str	r3, [r7, #44]	@ 0x2c
 8005e32:	68bb      	ldr	r3, [r7, #8]
 8005e34:	627b      	str	r3, [r7, #36]	@ 0x24
 8005e36:	6a7b      	ldr	r3, [r7, #36]	@ 0x24
 8005e38:	623b      	str	r3, [r7, #32]
 8005e3a:	687b      	ldr	r3, [r7, #4]
 8005e3c:	62bb      	str	r3, [r7, #40]	@ 0x28
 8005e3e:	68fb      	ldr	r3, [r7, #12]
 8005e40:	2200      	movs	r2, #0
 8005e42:	619a      	str	r2, [r3, #24]
 8005e44:	f107 0214 	add.w	r2, r7, #20
 8005e48:	f107 0320 	add.w	r3, r7, #32
 8005e4c:	4611      	mov	r1, r2
 8005e4e:	4618      	mov	r0, r3
 8005e50:	f001 f928 	bl	80070a4 <scpiLex_WhiteSpace>
 8005e54:	68fa      	ldr	r2, [r7, #12]
 8005e56:	f107 0320 	add.w	r3, r7, #32
 8005e5a:	4611      	mov	r1, r2
 8005e5c:	4618      	mov	r0, r3
 8005e5e:	f001 f9a8 	bl	80071b2 <scpiLex_ProgramHeader>
 8005e62:	4603      	mov	r3, r0
 8005e64:	2b00      	cmp	r3, #0
 8005e66:	db1e      	blt.n	8005ea6 <scpiParser_detectProgramMessageUnit+0x84>
 8005e68:	f107 0214 	add.w	r2, r7, #20
 8005e6c:	f107 0320 	add.w	r3, r7, #32
 8005e70:	4611      	mov	r1, r2
 8005e72:	4618      	mov	r0, r3
 8005e74:	f001 f916 	bl	80070a4 <scpiLex_WhiteSpace>
 8005e78:	4603      	mov	r3, r0
 8005e7a:	2b00      	cmp	r3, #0
 8005e7c:	dd0b      	ble.n	8005e96 <scpiParser_detectProgramMessageUnit+0x74>
 8005e7e:	68fb      	ldr	r3, [r7, #12]
 8005e80:	f103 010c 	add.w	r1, r3, #12
 8005e84:	68fb      	ldr	r3, [r7, #12]
 8005e86:	f103 0218 	add.w	r2, r3, #24
 8005e8a:	f107 0320 	add.w	r3, r7, #32
 8005e8e:	4618      	mov	r0, r3
 8005e90:	f7ff ff62 	bl	8005d58 <scpiParser_parseAllProgramData>
 8005e94:	e014      	b.n	8005ec0 <scpiParser_detectProgramMessageUnit+0x9e>
 8005e96:	68fb      	ldr	r3, [r7, #12]
 8005e98:	330c      	adds	r3, #12
 8005e9a:	6a7a      	ldr	r2, [r7, #36]	@ 0x24
 8005e9c:	4611      	mov	r1, r2
 8005e9e:	4618      	mov	r0, r3
 8005ea0:	f7ff fb7d 	bl	800559e <invalidateToken>
 8005ea4:	e00c      	b.n	8005ec0 <scpiParser_detectProgramMessageUnit+0x9e>
 8005ea6:	68fb      	ldr	r3, [r7, #12]
 8005ea8:	6a3a      	ldr	r2, [r7, #32]
 8005eaa:	4611      	mov	r1, r2
 8005eac:	4618      	mov	r0, r3
 8005eae:	f7ff fb76 	bl	800559e <invalidateToken>
 8005eb2:	68fb      	ldr	r3, [r7, #12]
 8005eb4:	330c      	adds	r3, #12
 8005eb6:	6a3a      	ldr	r2, [r7, #32]
 8005eb8:	4611      	mov	r1, r2
 8005eba:	4618      	mov	r0, r3
 8005ebc:	f7ff fb6f 	bl	800559e <invalidateToken>
 8005ec0:	6afb      	ldr	r3, [r7, #44]	@ 0x2c
 8005ec2:	2b00      	cmp	r3, #0
 8005ec4:	d108      	bne.n	8005ed8 <scpiParser_detectProgramMessageUnit+0xb6>
 8005ec6:	f107 0214 	add.w	r2, r7, #20
 8005eca:	f107 0320 	add.w	r3, r7, #32
 8005ece:	4611      	mov	r1, r2
 8005ed0:	4618      	mov	r0, r3
 8005ed2:	f001 fea8 	bl	8007c26 <scpiLex_NewLine>
 8005ed6:	62f8      	str	r0, [r7, #44]	@ 0x2c
 8005ed8:	6afb      	ldr	r3, [r7, #44]	@ 0x2c
 8005eda:	2b00      	cmp	r3, #0
 8005edc:	d108      	bne.n	8005ef0 <scpiParser_detectProgramMessageUnit+0xce>
 8005ede:	f107 0214 	add.w	r2, r7, #20
 8005ee2:	f107 0320 	add.w	r3, r7, #32
 8005ee6:	4611      	mov	r1, r2
 8005ee8:	4618      	mov	r0, r3
 8005eea:	f001 fe79 	bl	8007be0 <scpiLex_Semicolon>
 8005eee:	62f8      	str	r0, [r7, #44]	@ 0x2c
 8005ef0:	f107 0320 	add.w	r3, r7, #32
 8005ef4:	4618      	mov	r0, r3
 8005ef6:	f000 fed0 	bl	8006c9a <scpiLex_IsEos>
 8005efa:	4603      	mov	r3, r0
 8005efc:	2b00      	cmp	r3, #0
 8005efe:	d112      	bne.n	8005f26 <scpiParser_detectProgramMessageUnit+0x104>
 8005f00:	6afb      	ldr	r3, [r7, #44]	@ 0x2c
 8005f02:	2b00      	cmp	r3, #0
 8005f04:	d10f      	bne.n	8005f26 <scpiParser_detectProgramMessageUnit+0x104>
 8005f06:	6a7b      	ldr	r3, [r7, #36]	@ 0x24
 8005f08:	3301      	adds	r3, #1
 8005f0a:	627b      	str	r3, [r7, #36]	@ 0x24
 8005f0c:	68fb      	ldr	r3, [r7, #12]
 8005f0e:	2201      	movs	r2, #1
 8005f10:	609a      	str	r2, [r3, #8]
 8005f12:	68fb      	ldr	r3, [r7, #12]
 8005f14:	2219      	movs	r2, #25
 8005f16:	701a      	strb	r2, [r3, #0]
 8005f18:	68fb      	ldr	r3, [r7, #12]
 8005f1a:	330c      	adds	r3, #12
 8005f1c:	6a3a      	ldr	r2, [r7, #32]
 8005f1e:	4611      	mov	r1, r2
 8005f20:	4618      	mov	r0, r3
 8005f22:	f7ff fb3c 	bl	800559e <invalidateToken>
 8005f26:	7d3b      	ldrb	r3, [r7, #20]
 8005f28:	2b01      	cmp	r3, #1
 8005f2a:	d103      	bne.n	8005f34 <scpiParser_detectProgramMessageUnit+0x112>
 8005f2c:	68fb      	ldr	r3, [r7, #12]
 8005f2e:	2202      	movs	r2, #2
 8005f30:	771a      	strb	r2, [r3, #28]
 8005f32:	e009      	b.n	8005f48 <scpiParser_detectProgramMessageUnit+0x126>
 8005f34:	7d3b      	ldrb	r3, [r7, #20]
 8005f36:	2b05      	cmp	r3, #5
 8005f38:	d103      	bne.n	8005f42 <scpiParser_detectProgramMessageUnit+0x120>
 8005f3a:	68fb      	ldr	r3, [r7, #12]
 8005f3c:	2201      	movs	r2, #1
 8005f3e:	771a      	strb	r2, [r3, #28]
 8005f40:	e002      	b.n	8005f48 <scpiParser_detectProgramMessageUnit+0x126>
 8005f42:	68fb      	ldr	r3, [r7, #12]
 8005f44:	2200      	movs	r2, #0
 8005f46:	771a      	strb	r2, [r3, #28]
 8005f48:	6a7a      	ldr	r2, [r7, #36]	@ 0x24
 8005f4a:	6a3b      	ldr	r3, [r7, #32]
 8005f4c:	1ad3      	subs	r3, r2, r3
 8005f4e:	4618      	mov	r0, r3
 8005f50:	3730      	adds	r7, #48	@ 0x30
 8005f52:	46bd      	mov	sp, r7
 8005f54:	bd80      	pop	{r7, pc}

08005f56 <translateUnit>:
 8005f56:	b590      	push	{r4, r7, lr}
 8005f58:	b087      	sub	sp, #28
 8005f5a:	af00      	add	r7, sp, #0
 8005f5c:	60f8      	str	r0, [r7, #12]
 8005f5e:	60b9      	str	r1, [r7, #8]
 8005f60:	607a      	str	r2, [r7, #4]
 8005f62:	68fb      	ldr	r3, [r7, #12]
 8005f64:	2b00      	cmp	r3, #0
 8005f66:	d101      	bne.n	8005f6c <translateUnit+0x16>
 8005f68:	2300      	movs	r3, #0
 8005f6a:	e028      	b.n	8005fbe <translateUnit+0x68>
 8005f6c:	2300      	movs	r3, #0
 8005f6e:	617b      	str	r3, [r7, #20]
 8005f70:	e01d      	b.n	8005fae <translateUnit+0x58>
 8005f72:	697b      	ldr	r3, [r7, #20]
 8005f74:	011b      	lsls	r3, r3, #4
 8005f76:	68fa      	ldr	r2, [r7, #12]
 8005f78:	4413      	add	r3, r2
 8005f7a:	681c      	ldr	r4, [r3, #0]
 8005f7c:	697b      	ldr	r3, [r7, #20]
 8005f7e:	011b      	lsls	r3, r3, #4
 8005f80:	68fa      	ldr	r2, [r7, #12]
 8005f82:	4413      	add	r3, r2
 8005f84:	681b      	ldr	r3, [r3, #0]
 8005f86:	4618      	mov	r0, r3
 8005f88:	f7fa f922 	bl	80001d0 <strlen>
 8005f8c:	4603      	mov	r3, r0
 8005f8e:	4622      	mov	r2, r4
 8005f90:	6879      	ldr	r1, [r7, #4]
 8005f92:	68b8      	ldr	r0, [r7, #8]
 8005f94:	f000 fa9d 	bl	80064d2 <compareStr>
 8005f98:	4603      	mov	r3, r0
 8005f9a:	2b00      	cmp	r3, #0
 8005f9c:	d004      	beq.n	8005fa8 <translateUnit+0x52>
 8005f9e:	697b      	ldr	r3, [r7, #20]
 8005fa0:	011b      	lsls	r3, r3, #4
 8005fa2:	68fa      	ldr	r2, [r7, #12]
 8005fa4:	4413      	add	r3, r2
 8005fa6:	e00a      	b.n	8005fbe <translateUnit+0x68>
 8005fa8:	697b      	ldr	r3, [r7, #20]
 8005faa:	3301      	adds	r3, #1
 8005fac:	617b      	str	r3, [r7, #20]
 8005fae:	697b      	ldr	r3, [r7, #20]
 8005fb0:	011b      	lsls	r3, r3, #4
 8005fb2:	68fa      	ldr	r2, [r7, #12]
 8005fb4:	4413      	add	r3, r2
 8005fb6:	681b      	ldr	r3, [r3, #0]
 8005fb8:	2b00      	cmp	r3, #0
 8005fba:	d1da      	bne.n	8005f72 <translateUnit+0x1c>
 8005fbc:	2300      	movs	r3, #0
 8005fbe:	4618      	mov	r0, r3
 8005fc0:	371c      	adds	r7, #28
 8005fc2:	46bd      	mov	sp, r7
 8005fc4:	bd90      	pop	{r4, r7, pc}

08005fc6 <transformNumber>:
 8005fc6:	b580      	push	{r7, lr}
 8005fc8:	b086      	sub	sp, #24
 8005fca:	af00      	add	r7, sp, #0
 8005fcc:	60f8      	str	r0, [r7, #12]
 8005fce:	60b9      	str	r1, [r7, #8]
 8005fd0:	607a      	str	r2, [r7, #4]
 8005fd2:	603b      	str	r3, [r7, #0]
 8005fd4:	6879      	ldr	r1, [r7, #4]
 8005fd6:	68b8      	ldr	r0, [r7, #8]
 8005fd8:	f000 faf0 	bl	80065bc <skipWhitespace>
 8005fdc:	6178      	str	r0, [r7, #20]
 8005fde:	697a      	ldr	r2, [r7, #20]
 8005fe0:	687b      	ldr	r3, [r7, #4]
 8005fe2:	429a      	cmp	r2, r3
 8005fe4:	d104      	bne.n	8005ff0 <transformNumber+0x2a>
 8005fe6:	683b      	ldr	r3, [r7, #0]
 8005fe8:	2200      	movs	r2, #0
 8005fea:	741a      	strb	r2, [r3, #16]
 8005fec:	2301      	movs	r3, #1
 8005fee:	e027      	b.n	8006040 <transformNumber+0x7a>
 8005ff0:	68fb      	ldr	r3, [r7, #12]
 8005ff2:	6dd8      	ldr	r0, [r3, #92]	@ 0x5c
 8005ff4:	68ba      	ldr	r2, [r7, #8]
 8005ff6:	697b      	ldr	r3, [r7, #20]
 8005ff8:	18d1      	adds	r1, r2, r3
 8005ffa:	687a      	ldr	r2, [r7, #4]
 8005ffc:	697b      	ldr	r3, [r7, #20]
 8005ffe:	1ad3      	subs	r3, r2, r3
 8006000:	461a      	mov	r2, r3
 8006002:	f7ff ffa8 	bl	8005f56 <translateUnit>
 8006006:	6138      	str	r0, [r7, #16]
 8006008:	693b      	ldr	r3, [r7, #16]
 800600a:	2b00      	cmp	r3, #0
 800600c:	d106      	bne.n	800601c <transformNumber+0x56>
 800600e:	f06f 0182 	mvn.w	r1, #130	@ 0x82
 8006012:	68f8      	ldr	r0, [r7, #12]
 8006014:	f001 ff82 	bl	8007f1c <SCPI_ErrorPush>
 8006018:	2300      	movs	r3, #0
 800601a:	e011      	b.n	8006040 <transformNumber+0x7a>
 800601c:	683b      	ldr	r3, [r7, #0]
 800601e:	e9d3 0102 	ldrd	r0, r1, [r3, #8]
 8006022:	693b      	ldr	r3, [r7, #16]
 8006024:	e9d3 2302 	ldrd	r2, r3, [r3, #8]
 8006028:	f7fa fae6 	bl	80005f8 <__aeabi_dmul>
 800602c:	4602      	mov	r2, r0
 800602e:	460b      	mov	r3, r1
 8006030:	6839      	ldr	r1, [r7, #0]
 8006032:	e9c1 2302 	strd	r2, r3, [r1, #8]
 8006036:	693b      	ldr	r3, [r7, #16]
 8006038:	791a      	ldrb	r2, [r3, #4]
 800603a:	683b      	ldr	r3, [r7, #0]
 800603c:	741a      	strb	r2, [r3, #16]
 800603e:	2301      	movs	r3, #1
 8006040:	4618      	mov	r0, r3
 8006042:	3718      	adds	r7, #24
 8006044:	46bd      	mov	sp, r7
 8006046:	bd80      	pop	{r7, pc}

08006048 <SCPI_ParamNumber>:
 8006048:	b580      	push	{r7, lr}
 800604a:	b090      	sub	sp, #64	@ 0x40
 800604c:	af00      	add	r7, sp, #0
 800604e:	60f8      	str	r0, [r7, #12]
 8006050:	60b9      	str	r1, [r7, #8]
 8006052:	607a      	str	r2, [r7, #4]
 8006054:	70fb      	strb	r3, [r7, #3]
 8006056:	687b      	ldr	r3, [r7, #4]
 8006058:	2b00      	cmp	r3, #0
 800605a:	d105      	bne.n	8006068 <SCPI_ParamNumber+0x20>
 800605c:	4973      	ldr	r1, [pc, #460]	@ (800622c <SCPI_ParamNumber+0x1e4>)
 800605e:	68f8      	ldr	r0, [r7, #12]
 8006060:	f001 ff5c 	bl	8007f1c <SCPI_ErrorPush>
 8006064:	2300      	movs	r3, #0
 8006066:	e0dc      	b.n	8006222 <SCPI_ParamNumber+0x1da>
 8006068:	78fa      	ldrb	r2, [r7, #3]
 800606a:	f107 0318 	add.w	r3, r7, #24
 800606e:	4619      	mov	r1, r3
 8006070:	68f8      	ldr	r0, [r7, #12]
 8006072:	f7ff faa9 	bl	80055c8 <SCPI_Parameter>
 8006076:	4603      	mov	r3, r0
 8006078:	f887 303f 	strb.w	r3, [r7, #63]	@ 0x3f
 800607c:	f897 303f 	ldrb.w	r3, [r7, #63]	@ 0x3f
 8006080:	f083 0301 	eor.w	r3, r3, #1
 8006084:	b2db      	uxtb	r3, r3
 8006086:	2b00      	cmp	r3, #0
 8006088:	d002      	beq.n	8006090 <SCPI_ParamNumber+0x48>
 800608a:	f897 303f 	ldrb.w	r3, [r7, #63]	@ 0x3f
 800608e:	e0c8      	b.n	8006222 <SCPI_ParamNumber+0x1da>
 8006090:	69fb      	ldr	r3, [r7, #28]
 8006092:	627b      	str	r3, [r7, #36]	@ 0x24
 8006094:	6a7b      	ldr	r3, [r7, #36]	@ 0x24
 8006096:	62bb      	str	r3, [r7, #40]	@ 0x28
 8006098:	6a3b      	ldr	r3, [r7, #32]
 800609a:	62fb      	str	r3, [r7, #44]	@ 0x2c
 800609c:	7e3b      	ldrb	r3, [r7, #24]
 800609e:	3b06      	subs	r3, #6
 80060a0:	2b05      	cmp	r3, #5
 80060a2:	d809      	bhi.n	80060b8 <SCPI_ParamNumber+0x70>
 80060a4:	687b      	ldr	r3, [r7, #4]
 80060a6:	2200      	movs	r2, #0
 80060a8:	741a      	strb	r2, [r3, #16]
 80060aa:	687b      	ldr	r3, [r7, #4]
 80060ac:	2200      	movs	r2, #0
 80060ae:	701a      	strb	r2, [r3, #0]
 80060b0:	2301      	movs	r3, #1
 80060b2:	f887 303f 	strb.w	r3, [r7, #63]	@ 0x3f
 80060b6:	e000      	b.n	80060ba <SCPI_ParamNumber+0x72>
 80060b8:	bf00      	nop
 80060ba:	7e3b      	ldrb	r3, [r7, #24]
 80060bc:	3b06      	subs	r3, #6
 80060be:	2b05      	cmp	r3, #5
 80060c0:	d81e      	bhi.n	8006100 <SCPI_ParamNumber+0xb8>
 80060c2:	a201      	add	r2, pc, #4	@ (adr r2, 80060c8 <SCPI_ParamNumber+0x80>)
 80060c4:	f852 f023 	ldr.w	pc, [r2, r3, lsl #2]
 80060c8:	080060f1 	.word	0x080060f1
 80060cc:	080060f9 	.word	0x080060f9
 80060d0:	080060e9 	.word	0x080060e9
 80060d4:	080060e1 	.word	0x080060e1
 80060d8:	080060e1 	.word	0x080060e1
 80060dc:	080060e1 	.word	0x080060e1
 80060e0:	687b      	ldr	r3, [r7, #4]
 80060e2:	220a      	movs	r2, #10
 80060e4:	745a      	strb	r2, [r3, #17]
 80060e6:	e00c      	b.n	8006102 <SCPI_ParamNumber+0xba>
 80060e8:	687b      	ldr	r3, [r7, #4]
 80060ea:	2202      	movs	r2, #2
 80060ec:	745a      	strb	r2, [r3, #17]
 80060ee:	e008      	b.n	8006102 <SCPI_ParamNumber+0xba>
 80060f0:	687b      	ldr	r3, [r7, #4]
 80060f2:	2210      	movs	r2, #16
 80060f4:	745a      	strb	r2, [r3, #17]
 80060f6:	e004      	b.n	8006102 <SCPI_ParamNumber+0xba>
 80060f8:	687b      	ldr	r3, [r7, #4]
 80060fa:	2208      	movs	r2, #8
 80060fc:	745a      	strb	r2, [r3, #17]
 80060fe:	e000      	b.n	8006102 <SCPI_ParamNumber+0xba>
 8006100:	bf00      	nop
 8006102:	7e3b      	ldrb	r3, [r7, #24]
 8006104:	3b06      	subs	r3, #6
 8006106:	2b05      	cmp	r3, #5
 8006108:	f200 8086 	bhi.w	8006218 <SCPI_ParamNumber+0x1d0>
 800610c:	a201      	add	r2, pc, #4	@ (adr r2, 8006114 <SCPI_ParamNumber+0xcc>)
 800610e:	f852 f023 	ldr.w	pc, [r2, r3, lsl #2]
 8006112:	bf00      	nop
 8006114:	08006141 	.word	0x08006141
 8006118:	08006155 	.word	0x08006155
 800611c:	08006169 	.word	0x08006169
 8006120:	080061d5 	.word	0x080061d5
 8006124:	0800612d 	.word	0x0800612d
 8006128:	0800617d 	.word	0x0800617d
 800612c:	687b      	ldr	r3, [r7, #4]
 800612e:	f103 0208 	add.w	r2, r3, #8
 8006132:	f107 0318 	add.w	r3, r7, #24
 8006136:	4619      	mov	r1, r3
 8006138:	68f8      	ldr	r0, [r7, #12]
 800613a:	f7ff fbd9 	bl	80058f0 <SCPI_ParamToDouble>
 800613e:	e06e      	b.n	800621e <SCPI_ParamNumber+0x1d6>
 8006140:	687b      	ldr	r3, [r7, #4]
 8006142:	f103 0208 	add.w	r2, r3, #8
 8006146:	f107 0318 	add.w	r3, r7, #24
 800614a:	4619      	mov	r1, r3
 800614c:	68f8      	ldr	r0, [r7, #12]
 800614e:	f7ff fbcf 	bl	80058f0 <SCPI_ParamToDouble>
 8006152:	e064      	b.n	800621e <SCPI_ParamNumber+0x1d6>
 8006154:	687b      	ldr	r3, [r7, #4]
 8006156:	f103 0208 	add.w	r2, r3, #8
 800615a:	f107 0318 	add.w	r3, r7, #24
 800615e:	4619      	mov	r1, r3
 8006160:	68f8      	ldr	r0, [r7, #12]
 8006162:	f7ff fbc5 	bl	80058f0 <SCPI_ParamToDouble>
 8006166:	e05a      	b.n	800621e <SCPI_ParamNumber+0x1d6>
 8006168:	687b      	ldr	r3, [r7, #4]
 800616a:	f103 0208 	add.w	r2, r3, #8
 800616e:	f107 0318 	add.w	r3, r7, #24
 8006172:	4619      	mov	r1, r3
 8006174:	68f8      	ldr	r0, [r7, #12]
 8006176:	f7ff fbbb 	bl	80058f0 <SCPI_ParamToDouble>
 800617a:	e050      	b.n	800621e <SCPI_ParamNumber+0x1d6>
 800617c:	f107 0230 	add.w	r2, r7, #48	@ 0x30
 8006180:	f107 0324 	add.w	r3, r7, #36	@ 0x24
 8006184:	4611      	mov	r1, r2
 8006186:	4618      	mov	r0, r3
 8006188:	f001 f918 	bl	80073bc <scpiLex_DecimalNumericProgramData>
 800618c:	f107 0230 	add.w	r2, r7, #48	@ 0x30
 8006190:	f107 0324 	add.w	r3, r7, #36	@ 0x24
 8006194:	4611      	mov	r1, r2
 8006196:	4618      	mov	r0, r3
 8006198:	f000 ff84 	bl	80070a4 <scpiLex_WhiteSpace>
 800619c:	f107 0230 	add.w	r2, r7, #48	@ 0x30
 80061a0:	f107 0324 	add.w	r3, r7, #36	@ 0x24
 80061a4:	4611      	mov	r1, r2
 80061a6:	4618      	mov	r0, r3
 80061a8:	f001 f943 	bl	8007432 <scpiLex_SuffixProgramData>
 80061ac:	687b      	ldr	r3, [r7, #4]
 80061ae:	f103 0208 	add.w	r2, r3, #8
 80061b2:	f107 0318 	add.w	r3, r7, #24
 80061b6:	4619      	mov	r1, r3
 80061b8:	68f8      	ldr	r0, [r7, #12]
 80061ba:	f7ff fb99 	bl	80058f0 <SCPI_ParamToDouble>
 80061be:	6b79      	ldr	r1, [r7, #52]	@ 0x34
 80061c0:	6bbb      	ldr	r3, [r7, #56]	@ 0x38
 80061c2:	461a      	mov	r2, r3
 80061c4:	687b      	ldr	r3, [r7, #4]
 80061c6:	68f8      	ldr	r0, [r7, #12]
 80061c8:	f7ff fefd 	bl	8005fc6 <transformNumber>
 80061cc:	4603      	mov	r3, r0
 80061ce:	f887 303f 	strb.w	r3, [r7, #63]	@ 0x3f
 80061d2:	e024      	b.n	800621e <SCPI_ParamNumber+0x1d6>
 80061d4:	f107 0230 	add.w	r2, r7, #48	@ 0x30
 80061d8:	f107 0324 	add.w	r3, r7, #36	@ 0x24
 80061dc:	4611      	mov	r1, r2
 80061de:	4618      	mov	r0, r3
 80061e0:	f000 ff60 	bl	80070a4 <scpiLex_WhiteSpace>
 80061e4:	f107 0230 	add.w	r2, r7, #48	@ 0x30
 80061e8:	f107 0324 	add.w	r3, r7, #36	@ 0x24
 80061ec:	4611      	mov	r1, r2
 80061ee:	4618      	mov	r0, r3
 80061f0:	f001 f840 	bl	8007274 <scpiLex_CharacterProgramData>
 80061f4:	f107 0314 	add.w	r3, r7, #20
 80061f8:	f107 0130 	add.w	r1, r7, #48	@ 0x30
 80061fc:	68ba      	ldr	r2, [r7, #8]
 80061fe:	68f8      	ldr	r0, [r7, #12]
 8006200:	f7ff fc20 	bl	8005a44 <SCPI_ParamToChoice>
 8006204:	4603      	mov	r3, r0
 8006206:	f887 303f 	strb.w	r3, [r7, #63]	@ 0x3f
 800620a:	687b      	ldr	r3, [r7, #4]
 800620c:	2201      	movs	r2, #1
 800620e:	701a      	strb	r2, [r3, #0]
 8006210:	697a      	ldr	r2, [r7, #20]
 8006212:	687b      	ldr	r3, [r7, #4]
 8006214:	609a      	str	r2, [r3, #8]
 8006216:	e002      	b.n	800621e <SCPI_ParamNumber+0x1d6>
 8006218:	2300      	movs	r3, #0
 800621a:	f887 303f 	strb.w	r3, [r7, #63]	@ 0x3f
 800621e:	f897 303f 	ldrb.w	r3, [r7, #63]	@ 0x3f
 8006222:	4618      	mov	r0, r3
 8006224:	3740      	adds	r7, #64	@ 0x40
 8006226:	46bd      	mov	sp, r7
 8006228:	bd80      	pop	{r7, pc}
 800622a:	bf00      	nop
 800622c:	fffffeca 	.word	0xfffffeca

08006230 <strnpbrk>:
 8006230:	b480      	push	{r7}
 8006232:	b089      	sub	sp, #36	@ 0x24
 8006234:	af00      	add	r7, sp, #0
 8006236:	60f8      	str	r0, [r7, #12]
 8006238:	60b9      	str	r1, [r7, #8]
 800623a:	607a      	str	r2, [r7, #4]
 800623c:	68fa      	ldr	r2, [r7, #12]
 800623e:	68bb      	ldr	r3, [r7, #8]
 8006240:	4413      	add	r3, r2
 8006242:	61bb      	str	r3, [r7, #24]
 8006244:	e011      	b.n	800626a <strnpbrk+0x3a>
 8006246:	687b      	ldr	r3, [r7, #4]
 8006248:	61fb      	str	r3, [r7, #28]
 800624a:	e006      	b.n	800625a <strnpbrk+0x2a>
 800624c:	693a      	ldr	r2, [r7, #16]
 800624e:	697b      	ldr	r3, [r7, #20]
 8006250:	429a      	cmp	r2, r3
 8006252:	d102      	bne.n	800625a <strnpbrk+0x2a>
 8006254:	68fb      	ldr	r3, [r7, #12]
 8006256:	3b01      	subs	r3, #1
 8006258:	e014      	b.n	8006284 <strnpbrk+0x54>
 800625a:	69fb      	ldr	r3, [r7, #28]
 800625c:	1c5a      	adds	r2, r3, #1
 800625e:	61fa      	str	r2, [r7, #28]
 8006260:	781b      	ldrb	r3, [r3, #0]
 8006262:	613b      	str	r3, [r7, #16]
 8006264:	693b      	ldr	r3, [r7, #16]
 8006266:	2b00      	cmp	r3, #0
 8006268:	d1f0      	bne.n	800624c <strnpbrk+0x1c>
 800626a:	69ba      	ldr	r2, [r7, #24]
 800626c:	68fb      	ldr	r3, [r7, #12]
 800626e:	429a      	cmp	r2, r3
 8006270:	d007      	beq.n	8006282 <strnpbrk+0x52>
 8006272:	68fb      	ldr	r3, [r7, #12]
 8006274:	1c5a      	adds	r2, r3, #1
 8006276:	60fa      	str	r2, [r7, #12]
 8006278:	781b      	ldrb	r3, [r3, #0]
 800627a:	617b      	str	r3, [r7, #20]
 800627c:	697b      	ldr	r3, [r7, #20]
 800627e:	2b00      	cmp	r3, #0
 8006280:	d1e1      	bne.n	8006246 <strnpbrk+0x16>
 8006282:	2300      	movs	r3, #0
 8006284:	4618      	mov	r0, r3
 8006286:	3724      	adds	r7, #36	@ 0x24
 8006288:	46bd      	mov	sp, r7
 800628a:	f85d 7b04 	ldr.w	r7, [sp], #4
 800628e:	4770      	bx	lr

08006290 <UInt32ToStrBaseSign>:
 8006290:	b4b0      	push	{r4, r5, r7}
 8006292:	b08f      	sub	sp, #60	@ 0x3c
 8006294:	af00      	add	r7, sp, #0
 8006296:	60f8      	str	r0, [r7, #12]
 8006298:	60b9      	str	r1, [r7, #8]
 800629a:	607a      	str	r2, [r7, #4]
 800629c:	70fb      	strb	r3, [r7, #3]
 800629e:	4b4a      	ldr	r3, [pc, #296]	@ (80063c8 <UInt32ToStrBaseSign+0x138>)
 80062a0:	f107 0414 	add.w	r4, r7, #20
 80062a4:	461d      	mov	r5, r3
 80062a6:	cd0f      	ldmia	r5!, {r0, r1, r2, r3}
 80062a8:	c40f      	stmia	r4!, {r0, r1, r2, r3}
 80062aa:	682b      	ldr	r3, [r5, #0]
 80062ac:	7023      	strb	r3, [r4, #0]
 80062ae:	2300      	movs	r3, #0
 80062b0:	637b      	str	r3, [r7, #52]	@ 0x34
 80062b2:	2300      	movs	r3, #0
 80062b4:	633b      	str	r3, [r7, #48]	@ 0x30
 80062b6:	68fb      	ldr	r3, [r7, #12]
 80062b8:	62fb      	str	r3, [r7, #44]	@ 0x2c
 80062ba:	6afb      	ldr	r3, [r7, #44]	@ 0x2c
 80062bc:	2b00      	cmp	r3, #0
 80062be:	d10b      	bne.n	80062d8 <UInt32ToStrBaseSign+0x48>
 80062c0:	6b3a      	ldr	r2, [r7, #48]	@ 0x30
 80062c2:	687b      	ldr	r3, [r7, #4]
 80062c4:	429a      	cmp	r2, r3
 80062c6:	d270      	bcs.n	80063aa <UInt32ToStrBaseSign+0x11a>
 80062c8:	6b3b      	ldr	r3, [r7, #48]	@ 0x30
 80062ca:	1c5a      	adds	r2, r3, #1
 80062cc:	633a      	str	r2, [r7, #48]	@ 0x30
 80062ce:	68ba      	ldr	r2, [r7, #8]
 80062d0:	4413      	add	r3, r2
 80062d2:	2230      	movs	r2, #48	@ 0x30
 80062d4:	701a      	strb	r2, [r3, #0]
 80062d6:	e068      	b.n	80063aa <UInt32ToStrBaseSign+0x11a>
 80062d8:	f997 3003 	ldrsb.w	r3, [r7, #3]
 80062dc:	2b10      	cmp	r3, #16
 80062de:	d013      	beq.n	8006308 <UInt32ToStrBaseSign+0x78>
 80062e0:	2b10      	cmp	r3, #16
 80062e2:	dc0c      	bgt.n	80062fe <UInt32ToStrBaseSign+0x6e>
 80062e4:	2b02      	cmp	r3, #2
 80062e6:	d002      	beq.n	80062ee <UInt32ToStrBaseSign+0x5e>
 80062e8:	2b08      	cmp	r3, #8
 80062ea:	d004      	beq.n	80062f6 <UInt32ToStrBaseSign+0x66>
 80062ec:	e007      	b.n	80062fe <UInt32ToStrBaseSign+0x6e>
 80062ee:	f04f 4300 	mov.w	r3, #2147483648	@ 0x80000000
 80062f2:	637b      	str	r3, [r7, #52]	@ 0x34
 80062f4:	e00c      	b.n	8006310 <UInt32ToStrBaseSign+0x80>
 80062f6:	f04f 4380 	mov.w	r3, #1073741824	@ 0x40000000
 80062fa:	637b      	str	r3, [r7, #52]	@ 0x34
 80062fc:	e008      	b.n	8006310 <UInt32ToStrBaseSign+0x80>
 80062fe:	230a      	movs	r3, #10
 8006300:	70fb      	strb	r3, [r7, #3]
 8006302:	4b32      	ldr	r3, [pc, #200]	@ (80063cc <UInt32ToStrBaseSign+0x13c>)
 8006304:	637b      	str	r3, [r7, #52]	@ 0x34
 8006306:	e003      	b.n	8006310 <UInt32ToStrBaseSign+0x80>
 8006308:	f04f 5380 	mov.w	r3, #268435456	@ 0x10000000
 800630c:	637b      	str	r3, [r7, #52]	@ 0x34
 800630e:	bf00      	nop
 8006310:	f897 3048 	ldrb.w	r3, [r7, #72]	@ 0x48
 8006314:	2b00      	cmp	r3, #0
 8006316:	d01b      	beq.n	8006350 <UInt32ToStrBaseSign+0xc0>
 8006318:	68fb      	ldr	r3, [r7, #12]
 800631a:	2b00      	cmp	r3, #0
 800631c:	da18      	bge.n	8006350 <UInt32ToStrBaseSign+0xc0>
 800631e:	f997 3003 	ldrsb.w	r3, [r7, #3]
 8006322:	2b0a      	cmp	r3, #10
 8006324:	d114      	bne.n	8006350 <UInt32ToStrBaseSign+0xc0>
 8006326:	68fb      	ldr	r3, [r7, #12]
 8006328:	425b      	negs	r3, r3
 800632a:	62fb      	str	r3, [r7, #44]	@ 0x2c
 800632c:	6b3a      	ldr	r2, [r7, #48]	@ 0x30
 800632e:	687b      	ldr	r3, [r7, #4]
 8006330:	429a      	cmp	r2, r3
 8006332:	d20d      	bcs.n	8006350 <UInt32ToStrBaseSign+0xc0>
 8006334:	6b3b      	ldr	r3, [r7, #48]	@ 0x30
 8006336:	1c5a      	adds	r2, r3, #1
 8006338:	633a      	str	r2, [r7, #48]	@ 0x30
 800633a:	68ba      	ldr	r2, [r7, #8]
 800633c:	4413      	add	r3, r2
 800633e:	222d      	movs	r2, #45	@ 0x2d
 8006340:	701a      	strb	r2, [r3, #0]
 8006342:	e005      	b.n	8006350 <UInt32ToStrBaseSign+0xc0>
 8006344:	f997 3003 	ldrsb.w	r3, [r7, #3]
 8006348:	6b7a      	ldr	r2, [r7, #52]	@ 0x34
 800634a:	fbb2 f3f3 	udiv	r3, r2, r3
 800634e:	637b      	str	r3, [r7, #52]	@ 0x34
 8006350:	6afa      	ldr	r2, [r7, #44]	@ 0x2c
 8006352:	6b7b      	ldr	r3, [r7, #52]	@ 0x34
 8006354:	429a      	cmp	r2, r3
 8006356:	d3f5      	bcc.n	8006344 <UInt32ToStrBaseSign+0xb4>
 8006358:	6afa      	ldr	r2, [r7, #44]	@ 0x2c
 800635a:	6b7b      	ldr	r3, [r7, #52]	@ 0x34
 800635c:	fbb2 f3f3 	udiv	r3, r2, r3
 8006360:	b2db      	uxtb	r3, r3
 8006362:	62bb      	str	r3, [r7, #40]	@ 0x28
 8006364:	6b3a      	ldr	r2, [r7, #48]	@ 0x30
 8006366:	687b      	ldr	r3, [r7, #4]
 8006368:	429a      	cmp	r2, r3
 800636a:	d20a      	bcs.n	8006382 <UInt32ToStrBaseSign+0xf2>
 800636c:	6b3b      	ldr	r3, [r7, #48]	@ 0x30
 800636e:	1c5a      	adds	r2, r3, #1
 8006370:	633a      	str	r2, [r7, #48]	@ 0x30
 8006372:	68ba      	ldr	r2, [r7, #8]
 8006374:	4413      	add	r3, r2
 8006376:	f107 0114 	add.w	r1, r7, #20
 800637a:	6aba      	ldr	r2, [r7, #40]	@ 0x28
 800637c:	440a      	add	r2, r1
 800637e:	7812      	ldrb	r2, [r2, #0]
 8006380:	701a      	strb	r2, [r3, #0]
 8006382:	6abb      	ldr	r3, [r7, #40]	@ 0x28
 8006384:	6b7a      	ldr	r2, [r7, #52]	@ 0x34
 8006386:	fb02 f303 	mul.w	r3, r2, r3
 800638a:	6afa      	ldr	r2, [r7, #44]	@ 0x2c
 800638c:	1ad3      	subs	r3, r2, r3
 800638e:	62fb      	str	r3, [r7, #44]	@ 0x2c
 8006390:	f997 3003 	ldrsb.w	r3, [r7, #3]
 8006394:	6b7a      	ldr	r2, [r7, #52]	@ 0x34
 8006396:	fbb2 f3f3 	udiv	r3, r2, r3
 800639a:	637b      	str	r3, [r7, #52]	@ 0x34
 800639c:	6b7b      	ldr	r3, [r7, #52]	@ 0x34
 800639e:	2b00      	cmp	r3, #0
 80063a0:	d003      	beq.n	80063aa <UInt32ToStrBaseSign+0x11a>
 80063a2:	6b3a      	ldr	r2, [r7, #48]	@ 0x30
 80063a4:	687b      	ldr	r3, [r7, #4]
 80063a6:	429a      	cmp	r2, r3
 80063a8:	d3d6      	bcc.n	8006358 <UInt32ToStrBaseSign+0xc8>
 80063aa:	6b3a      	ldr	r2, [r7, #48]	@ 0x30
 80063ac:	687b      	ldr	r3, [r7, #4]
 80063ae:	429a      	cmp	r2, r3
 80063b0:	d204      	bcs.n	80063bc <UInt32ToStrBaseSign+0x12c>
 80063b2:	68ba      	ldr	r2, [r7, #8]
 80063b4:	6b3b      	ldr	r3, [r7, #48]	@ 0x30
 80063b6:	4413      	add	r3, r2
 80063b8:	2200      	movs	r2, #0
 80063ba:	701a      	strb	r2, [r3, #0]
 80063bc:	6b3b      	ldr	r3, [r7, #48]	@ 0x30
 80063be:	4618      	mov	r0, r3
 80063c0:	373c      	adds	r7, #60	@ 0x3c
 80063c2:	46bd      	mov	sp, r7
 80063c4:	bcb0      	pop	{r4, r5, r7}
 80063c6:	4770      	bx	lr
 80063c8:	0800b8ec 	.word	0x0800b8ec
 80063cc:	3b9aca00 	.word	0x3b9aca00

080063d0 <strBaseToInt32>:
 80063d0:	b580      	push	{r7, lr}
 80063d2:	b086      	sub	sp, #24
 80063d4:	af00      	add	r7, sp, #0
 80063d6:	60f8      	str	r0, [r7, #12]
 80063d8:	60b9      	str	r1, [r7, #8]
 80063da:	4613      	mov	r3, r2
 80063dc:	71fb      	strb	r3, [r7, #7]
 80063de:	f997 2007 	ldrsb.w	r2, [r7, #7]
 80063e2:	f107 0314 	add.w	r3, r7, #20
 80063e6:	4619      	mov	r1, r3
 80063e8:	68f8      	ldr	r0, [r7, #12]
 80063ea:	f002 fe5b 	bl	80090a4 <strtol>
 80063ee:	4602      	mov	r2, r0
 80063f0:	68bb      	ldr	r3, [r7, #8]
 80063f2:	601a      	str	r2, [r3, #0]
 80063f4:	697a      	ldr	r2, [r7, #20]
 80063f6:	68fb      	ldr	r3, [r7, #12]
 80063f8:	1ad3      	subs	r3, r2, r3
 80063fa:	4618      	mov	r0, r3
 80063fc:	3718      	adds	r7, #24
 80063fe:	46bd      	mov	sp, r7
 8006400:	bd80      	pop	{r7, pc}

08006402 <strBaseToUInt32>:
 8006402:	b580      	push	{r7, lr}
 8006404:	b086      	sub	sp, #24
 8006406:	af00      	add	r7, sp, #0
 8006408:	60f8      	str	r0, [r7, #12]
 800640a:	60b9      	str	r1, [r7, #8]
 800640c:	4613      	mov	r3, r2
 800640e:	71fb      	strb	r3, [r7, #7]
 8006410:	f997 2007 	ldrsb.w	r2, [r7, #7]
 8006414:	f107 0314 	add.w	r3, r7, #20
 8006418:	4619      	mov	r1, r3
 800641a:	68f8      	ldr	r0, [r7, #12]
 800641c:	f002 feba 	bl	8009194 <strtoul>
 8006420:	4602      	mov	r2, r0
 8006422:	68bb      	ldr	r3, [r7, #8]
 8006424:	601a      	str	r2, [r3, #0]
 8006426:	697a      	ldr	r2, [r7, #20]
 8006428:	68fb      	ldr	r3, [r7, #12]
 800642a:	1ad3      	subs	r3, r2, r3
 800642c:	4618      	mov	r0, r3
 800642e:	3718      	adds	r7, #24
 8006430:	46bd      	mov	sp, r7
 8006432:	bd80      	pop	{r7, pc}

08006434 <strBaseToInt64>:
 8006434:	b580      	push	{r7, lr}
 8006436:	b086      	sub	sp, #24
 8006438:	af00      	add	r7, sp, #0
 800643a:	60f8      	str	r0, [r7, #12]
 800643c:	60b9      	str	r1, [r7, #8]
 800643e:	4613      	mov	r3, r2
 8006440:	71fb      	strb	r3, [r7, #7]
 8006442:	f997 2007 	ldrsb.w	r2, [r7, #7]
 8006446:	f107 0314 	add.w	r3, r7, #20
 800644a:	4619      	mov	r1, r3
 800644c:	68f8      	ldr	r0, [r7, #12]
 800644e:	f002 ff39 	bl	80092c4 <strtoll>
 8006452:	4602      	mov	r2, r0
 8006454:	460b      	mov	r3, r1
 8006456:	68b9      	ldr	r1, [r7, #8]
 8006458:	e9c1 2300 	strd	r2, r3, [r1]
 800645c:	697a      	ldr	r2, [r7, #20]
 800645e:	68fb      	ldr	r3, [r7, #12]
 8006460:	1ad3      	subs	r3, r2, r3
 8006462:	4618      	mov	r0, r3
 8006464:	3718      	adds	r7, #24
 8006466:	46bd      	mov	sp, r7
 8006468:	bd80      	pop	{r7, pc}

0800646a <strBaseToUInt64>:
 800646a:	b580      	push	{r7, lr}
 800646c:	b086      	sub	sp, #24
 800646e:	af00      	add	r7, sp, #0
 8006470:	60f8      	str	r0, [r7, #12]
 8006472:	60b9      	str	r1, [r7, #8]
 8006474:	4613      	mov	r3, r2
 8006476:	71fb      	strb	r3, [r7, #7]
 8006478:	f997 2007 	ldrsb.w	r2, [r7, #7]
 800647c:	f107 0314 	add.w	r3, r7, #20
 8006480:	4619      	mov	r1, r3
 8006482:	68f8      	ldr	r0, [r7, #12]
 8006484:	f002 ffbe 	bl	8009404 <strtoull>
 8006488:	4602      	mov	r2, r0
 800648a:	460b      	mov	r3, r1
 800648c:	68b9      	ldr	r1, [r7, #8]
 800648e:	e9c1 2300 	strd	r2, r3, [r1]
 8006492:	697a      	ldr	r2, [r7, #20]
 8006494:	68fb      	ldr	r3, [r7, #12]
 8006496:	1ad3      	subs	r3, r2, r3
 8006498:	4618      	mov	r0, r3
 800649a:	3718      	adds	r7, #24
 800649c:	46bd      	mov	sp, r7
 800649e:	bd80      	pop	{r7, pc}

080064a0 <strToDouble>:
 80064a0:	b580      	push	{r7, lr}
 80064a2:	b084      	sub	sp, #16
 80064a4:	af00      	add	r7, sp, #0
 80064a6:	6078      	str	r0, [r7, #4]
 80064a8:	6039      	str	r1, [r7, #0]
 80064aa:	f107 030c 	add.w	r3, r7, #12
 80064ae:	4619      	mov	r1, r3
 80064b0:	6878      	ldr	r0, [r7, #4]
 80064b2:	f002 fd71 	bl	8008f98 <strtod>
 80064b6:	eeb0 7a40 	vmov.f32	s14, s0
 80064ba:	eef0 7a60 	vmov.f32	s15, s1
 80064be:	683b      	ldr	r3, [r7, #0]
 80064c0:	ed83 7b00 	vstr	d7, [r3]
 80064c4:	68fa      	ldr	r2, [r7, #12]
 80064c6:	687b      	ldr	r3, [r7, #4]
 80064c8:	1ad3      	subs	r3, r2, r3
 80064ca:	4618      	mov	r0, r3
 80064cc:	3710      	adds	r7, #16
 80064ce:	46bd      	mov	sp, r7
 80064d0:	bd80      	pop	{r7, pc}

080064d2 <compareStr>:
 80064d2:	b580      	push	{r7, lr}
 80064d4:	b084      	sub	sp, #16
 80064d6:	af00      	add	r7, sp, #0
 80064d8:	60f8      	str	r0, [r7, #12]
 80064da:	60b9      	str	r1, [r7, #8]
 80064dc:	607a      	str	r2, [r7, #4]
 80064de:	603b      	str	r3, [r7, #0]
 80064e0:	68ba      	ldr	r2, [r7, #8]
 80064e2:	683b      	ldr	r3, [r7, #0]
 80064e4:	429a      	cmp	r2, r3
 80064e6:	d001      	beq.n	80064ec <compareStr+0x1a>
 80064e8:	2300      	movs	r3, #0
 80064ea:	e00a      	b.n	8006502 <compareStr+0x30>
 80064ec:	683a      	ldr	r2, [r7, #0]
 80064ee:	6879      	ldr	r1, [r7, #4]
 80064f0:	68f8      	ldr	r0, [r7, #12]
 80064f2:	f003 f8ef 	bl	80096d4 <strncasecmp>
 80064f6:	4603      	mov	r3, r0
 80064f8:	2b00      	cmp	r3, #0
 80064fa:	d101      	bne.n	8006500 <compareStr+0x2e>
 80064fc:	2301      	movs	r3, #1
 80064fe:	e000      	b.n	8006502 <compareStr+0x30>
 8006500:	2300      	movs	r3, #0
 8006502:	4618      	mov	r0, r3
 8006504:	3710      	adds	r7, #16
 8006506:	46bd      	mov	sp, r7
 8006508:	bd80      	pop	{r7, pc}
	...

0800650c <compareStrAndNum>:
 800650c:	b580      	push	{r7, lr}
 800650e:	b088      	sub	sp, #32
 8006510:	af00      	add	r7, sp, #0
 8006512:	60f8      	str	r0, [r7, #12]
 8006514:	60b9      	str	r1, [r7, #8]
 8006516:	607a      	str	r2, [r7, #4]
 8006518:	603b      	str	r3, [r7, #0]
 800651a:	2300      	movs	r3, #0
 800651c:	77fb      	strb	r3, [r7, #31]
 800651e:	683a      	ldr	r2, [r7, #0]
 8006520:	68bb      	ldr	r3, [r7, #8]
 8006522:	429a      	cmp	r2, r3
 8006524:	d201      	bcs.n	800652a <compareStrAndNum+0x1e>
 8006526:	2300      	movs	r3, #0
 8006528:	e042      	b.n	80065b0 <compareStrAndNum+0xa4>
 800652a:	68ba      	ldr	r2, [r7, #8]
 800652c:	6879      	ldr	r1, [r7, #4]
 800652e:	68f8      	ldr	r0, [r7, #12]
 8006530:	f003 f8d0 	bl	80096d4 <strncasecmp>
 8006534:	4603      	mov	r3, r0
 8006536:	2b00      	cmp	r3, #0
 8006538:	d139      	bne.n	80065ae <compareStrAndNum+0xa2>
 800653a:	2301      	movs	r3, #1
 800653c:	77fb      	strb	r3, [r7, #31]
 800653e:	6abb      	ldr	r3, [r7, #40]	@ 0x28
 8006540:	2b00      	cmp	r3, #0
 8006542:	d01b      	beq.n	800657c <compareStrAndNum+0x70>
 8006544:	68ba      	ldr	r2, [r7, #8]
 8006546:	683b      	ldr	r3, [r7, #0]
 8006548:	429a      	cmp	r2, r3
 800654a:	d030      	beq.n	80065ae <compareStrAndNum+0xa2>
 800654c:	687a      	ldr	r2, [r7, #4]
 800654e:	68bb      	ldr	r3, [r7, #8]
 8006550:	4413      	add	r3, r2
 8006552:	f107 0114 	add.w	r1, r7, #20
 8006556:	220a      	movs	r2, #10
 8006558:	4618      	mov	r0, r3
 800655a:	f7ff ff39 	bl	80063d0 <strBaseToInt32>
 800655e:	4602      	mov	r2, r0
 8006560:	68bb      	ldr	r3, [r7, #8]
 8006562:	4413      	add	r3, r2
 8006564:	61bb      	str	r3, [r7, #24]
 8006566:	69ba      	ldr	r2, [r7, #24]
 8006568:	683b      	ldr	r3, [r7, #0]
 800656a:	429a      	cmp	r2, r3
 800656c:	d002      	beq.n	8006574 <compareStrAndNum+0x68>
 800656e:	2300      	movs	r3, #0
 8006570:	77fb      	strb	r3, [r7, #31]
 8006572:	e01c      	b.n	80065ae <compareStrAndNum+0xa2>
 8006574:	697a      	ldr	r2, [r7, #20]
 8006576:	6abb      	ldr	r3, [r7, #40]	@ 0x28
 8006578:	601a      	str	r2, [r3, #0]
 800657a:	e018      	b.n	80065ae <compareStrAndNum+0xa2>
 800657c:	68bb      	ldr	r3, [r7, #8]
 800657e:	61bb      	str	r3, [r7, #24]
 8006580:	e011      	b.n	80065a6 <compareStrAndNum+0x9a>
 8006582:	687a      	ldr	r2, [r7, #4]
 8006584:	69bb      	ldr	r3, [r7, #24]
 8006586:	4413      	add	r3, r2
 8006588:	781b      	ldrb	r3, [r3, #0]
 800658a:	3301      	adds	r3, #1
 800658c:	4a0a      	ldr	r2, [pc, #40]	@ (80065b8 <compareStrAndNum+0xac>)
 800658e:	4413      	add	r3, r2
 8006590:	781b      	ldrb	r3, [r3, #0]
 8006592:	f003 0304 	and.w	r3, r3, #4
 8006596:	2b00      	cmp	r3, #0
 8006598:	d102      	bne.n	80065a0 <compareStrAndNum+0x94>
 800659a:	2300      	movs	r3, #0
 800659c:	77fb      	strb	r3, [r7, #31]
 800659e:	e006      	b.n	80065ae <compareStrAndNum+0xa2>
 80065a0:	69bb      	ldr	r3, [r7, #24]
 80065a2:	3301      	adds	r3, #1
 80065a4:	61bb      	str	r3, [r7, #24]
 80065a6:	69ba      	ldr	r2, [r7, #24]
 80065a8:	683b      	ldr	r3, [r7, #0]
 80065aa:	429a      	cmp	r2, r3
 80065ac:	d3e9      	bcc.n	8006582 <compareStrAndNum+0x76>
 80065ae:	7ffb      	ldrb	r3, [r7, #31]
 80065b0:	4618      	mov	r0, r3
 80065b2:	3720      	adds	r7, #32
 80065b4:	46bd      	mov	sp, r7
 80065b6:	bd80      	pop	{r7, pc}
 80065b8:	0800c348 	.word	0x0800c348

080065bc <skipWhitespace>:
 80065bc:	b480      	push	{r7}
 80065be:	b085      	sub	sp, #20
 80065c0:	af00      	add	r7, sp, #0
 80065c2:	6078      	str	r0, [r7, #4]
 80065c4:	6039      	str	r1, [r7, #0]
 80065c6:	2300      	movs	r3, #0
 80065c8:	60fb      	str	r3, [r7, #12]
 80065ca:	e010      	b.n	80065ee <skipWhitespace+0x32>
 80065cc:	687a      	ldr	r2, [r7, #4]
 80065ce:	68fb      	ldr	r3, [r7, #12]
 80065d0:	4413      	add	r3, r2
 80065d2:	781b      	ldrb	r3, [r3, #0]
 80065d4:	3301      	adds	r3, #1
 80065d6:	4a0b      	ldr	r2, [pc, #44]	@ (8006604 <skipWhitespace+0x48>)
 80065d8:	4413      	add	r3, r2
 80065da:	781b      	ldrb	r3, [r3, #0]
 80065dc:	f003 0308 	and.w	r3, r3, #8
 80065e0:	2b00      	cmp	r3, #0
 80065e2:	d101      	bne.n	80065e8 <skipWhitespace+0x2c>
 80065e4:	68fb      	ldr	r3, [r7, #12]
 80065e6:	e007      	b.n	80065f8 <skipWhitespace+0x3c>
 80065e8:	68fb      	ldr	r3, [r7, #12]
 80065ea:	3301      	adds	r3, #1
 80065ec:	60fb      	str	r3, [r7, #12]
 80065ee:	68fa      	ldr	r2, [r7, #12]
 80065f0:	683b      	ldr	r3, [r7, #0]
 80065f2:	429a      	cmp	r2, r3
 80065f4:	d3ea      	bcc.n	80065cc <skipWhitespace+0x10>
 80065f6:	683b      	ldr	r3, [r7, #0]
 80065f8:	4618      	mov	r0, r3
 80065fa:	3714      	adds	r7, #20
 80065fc:	46bd      	mov	sp, r7
 80065fe:	f85d 7b04 	ldr.w	r7, [sp], #4
 8006602:	4770      	bx	lr
 8006604:	0800c348 	.word	0x0800c348

08006608 <patternSeparatorShortPos>:
 8006608:	b480      	push	{r7}
 800660a:	b085      	sub	sp, #20
 800660c:	af00      	add	r7, sp, #0
 800660e:	6078      	str	r0, [r7, #4]
 8006610:	6039      	str	r1, [r7, #0]
 8006612:	2300      	movs	r3, #0
 8006614:	60fb      	str	r3, [r7, #12]
 8006616:	e010      	b.n	800663a <patternSeparatorShortPos+0x32>
 8006618:	687a      	ldr	r2, [r7, #4]
 800661a:	68fb      	ldr	r3, [r7, #12]
 800661c:	4413      	add	r3, r2
 800661e:	781b      	ldrb	r3, [r3, #0]
 8006620:	3301      	adds	r3, #1
 8006622:	4a0e      	ldr	r2, [pc, #56]	@ (800665c <patternSeparatorShortPos+0x54>)
 8006624:	4413      	add	r3, r2
 8006626:	781b      	ldrb	r3, [r3, #0]
 8006628:	f003 0303 	and.w	r3, r3, #3
 800662c:	2b02      	cmp	r3, #2
 800662e:	d101      	bne.n	8006634 <patternSeparatorShortPos+0x2c>
 8006630:	68fb      	ldr	r3, [r7, #12]
 8006632:	e00d      	b.n	8006650 <patternSeparatorShortPos+0x48>
 8006634:	68fb      	ldr	r3, [r7, #12]
 8006636:	3301      	adds	r3, #1
 8006638:	60fb      	str	r3, [r7, #12]
 800663a:	68fa      	ldr	r2, [r7, #12]
 800663c:	683b      	ldr	r3, [r7, #0]
 800663e:	429a      	cmp	r2, r3
 8006640:	d205      	bcs.n	800664e <patternSeparatorShortPos+0x46>
 8006642:	687a      	ldr	r2, [r7, #4]
 8006644:	68fb      	ldr	r3, [r7, #12]
 8006646:	4413      	add	r3, r2
 8006648:	781b      	ldrb	r3, [r3, #0]
 800664a:	2b00      	cmp	r3, #0
 800664c:	d1e4      	bne.n	8006618 <patternSeparatorShortPos+0x10>
 800664e:	68fb      	ldr	r3, [r7, #12]
 8006650:	4618      	mov	r0, r3
 8006652:	3714      	adds	r7, #20
 8006654:	46bd      	mov	sp, r7
 8006656:	f85d 7b04 	ldr.w	r7, [sp], #4
 800665a:	4770      	bx	lr
 800665c:	0800c348 	.word	0x0800c348

08006660 <patternSeparatorPos>:
 8006660:	b580      	push	{r7, lr}
 8006662:	b084      	sub	sp, #16
 8006664:	af00      	add	r7, sp, #0
 8006666:	6078      	str	r0, [r7, #4]
 8006668:	6039      	str	r1, [r7, #0]
 800666a:	4a09      	ldr	r2, [pc, #36]	@ (8006690 <patternSeparatorPos+0x30>)
 800666c:	6839      	ldr	r1, [r7, #0]
 800666e:	6878      	ldr	r0, [r7, #4]
 8006670:	f7ff fdde 	bl	8006230 <strnpbrk>
 8006674:	60f8      	str	r0, [r7, #12]
 8006676:	68fb      	ldr	r3, [r7, #12]
 8006678:	2b00      	cmp	r3, #0
 800667a:	d101      	bne.n	8006680 <patternSeparatorPos+0x20>
 800667c:	683b      	ldr	r3, [r7, #0]
 800667e:	e002      	b.n	8006686 <patternSeparatorPos+0x26>
 8006680:	68fa      	ldr	r2, [r7, #12]
 8006682:	687b      	ldr	r3, [r7, #4]
 8006684:	1ad3      	subs	r3, r2, r3
 8006686:	4618      	mov	r0, r3
 8006688:	3710      	adds	r7, #16
 800668a:	46bd      	mov	sp, r7
 800668c:	bd80      	pop	{r7, pc}
 800668e:	bf00      	nop
 8006690:	0800b90c 	.word	0x0800b90c

08006694 <cmdSeparatorPos>:
 8006694:	b580      	push	{r7, lr}
 8006696:	b084      	sub	sp, #16
 8006698:	af00      	add	r7, sp, #0
 800669a:	6078      	str	r0, [r7, #4]
 800669c:	6039      	str	r1, [r7, #0]
 800669e:	4a0a      	ldr	r2, [pc, #40]	@ (80066c8 <cmdSeparatorPos+0x34>)
 80066a0:	6839      	ldr	r1, [r7, #0]
 80066a2:	6878      	ldr	r0, [r7, #4]
 80066a4:	f7ff fdc4 	bl	8006230 <strnpbrk>
 80066a8:	60b8      	str	r0, [r7, #8]
 80066aa:	68bb      	ldr	r3, [r7, #8]
 80066ac:	2b00      	cmp	r3, #0
 80066ae:	d102      	bne.n	80066b6 <cmdSeparatorPos+0x22>
 80066b0:	683b      	ldr	r3, [r7, #0]
 80066b2:	60fb      	str	r3, [r7, #12]
 80066b4:	e003      	b.n	80066be <cmdSeparatorPos+0x2a>
 80066b6:	68ba      	ldr	r2, [r7, #8]
 80066b8:	687b      	ldr	r3, [r7, #4]
 80066ba:	1ad3      	subs	r3, r2, r3
 80066bc:	60fb      	str	r3, [r7, #12]
 80066be:	68fb      	ldr	r3, [r7, #12]
 80066c0:	4618      	mov	r0, r3
 80066c2:	3710      	adds	r7, #16
 80066c4:	46bd      	mov	sp, r7
 80066c6:	bd80      	pop	{r7, pc}
 80066c8:	0800b914 	.word	0x0800b914

080066cc <matchPattern>:
 80066cc:	b580      	push	{r7, lr}
 80066ce:	b088      	sub	sp, #32
 80066d0:	af02      	add	r7, sp, #8
 80066d2:	60f8      	str	r0, [r7, #12]
 80066d4:	60b9      	str	r1, [r7, #8]
 80066d6:	607a      	str	r2, [r7, #4]
 80066d8:	603b      	str	r3, [r7, #0]
 80066da:	68bb      	ldr	r3, [r7, #8]
 80066dc:	2b00      	cmp	r3, #0
 80066de:	d02c      	beq.n	800673a <matchPattern+0x6e>
 80066e0:	68bb      	ldr	r3, [r7, #8]
 80066e2:	3b01      	subs	r3, #1
 80066e4:	68fa      	ldr	r2, [r7, #12]
 80066e6:	4413      	add	r3, r2
 80066e8:	781b      	ldrb	r3, [r3, #0]
 80066ea:	2b23      	cmp	r3, #35	@ 0x23
 80066ec:	d125      	bne.n	800673a <matchPattern+0x6e>
 80066ee:	68bb      	ldr	r3, [r7, #8]
 80066f0:	3b01      	subs	r3, #1
 80066f2:	617b      	str	r3, [r7, #20]
 80066f4:	6979      	ldr	r1, [r7, #20]
 80066f6:	68f8      	ldr	r0, [r7, #12]
 80066f8:	f7ff ff86 	bl	8006608 <patternSeparatorShortPos>
 80066fc:	4603      	mov	r3, r0
 80066fe:	613b      	str	r3, [r7, #16]
 8006700:	6a3b      	ldr	r3, [r7, #32]
 8006702:	9300      	str	r3, [sp, #0]
 8006704:	683b      	ldr	r3, [r7, #0]
 8006706:	687a      	ldr	r2, [r7, #4]
 8006708:	6979      	ldr	r1, [r7, #20]
 800670a:	68f8      	ldr	r0, [r7, #12]
 800670c:	f7ff fefe 	bl	800650c <compareStrAndNum>
 8006710:	4603      	mov	r3, r0
 8006712:	2b00      	cmp	r3, #0
 8006714:	d10a      	bne.n	800672c <matchPattern+0x60>
 8006716:	6939      	ldr	r1, [r7, #16]
 8006718:	6a3b      	ldr	r3, [r7, #32]
 800671a:	9300      	str	r3, [sp, #0]
 800671c:	683b      	ldr	r3, [r7, #0]
 800671e:	687a      	ldr	r2, [r7, #4]
 8006720:	68f8      	ldr	r0, [r7, #12]
 8006722:	f7ff fef3 	bl	800650c <compareStrAndNum>
 8006726:	4603      	mov	r3, r0
 8006728:	2b00      	cmp	r3, #0
 800672a:	d001      	beq.n	8006730 <matchPattern+0x64>
 800672c:	2301      	movs	r3, #1
 800672e:	e000      	b.n	8006732 <matchPattern+0x66>
 8006730:	2300      	movs	r3, #0
 8006732:	f003 0301 	and.w	r3, r3, #1
 8006736:	b2db      	uxtb	r3, r3
 8006738:	e01d      	b.n	8006776 <matchPattern+0xaa>
 800673a:	68b9      	ldr	r1, [r7, #8]
 800673c:	68f8      	ldr	r0, [r7, #12]
 800673e:	f7ff ff63 	bl	8006608 <patternSeparatorShortPos>
 8006742:	4603      	mov	r3, r0
 8006744:	613b      	str	r3, [r7, #16]
 8006746:	683b      	ldr	r3, [r7, #0]
 8006748:	687a      	ldr	r2, [r7, #4]
 800674a:	68b9      	ldr	r1, [r7, #8]
 800674c:	68f8      	ldr	r0, [r7, #12]
 800674e:	f7ff fec0 	bl	80064d2 <compareStr>
 8006752:	4603      	mov	r3, r0
 8006754:	2b00      	cmp	r3, #0
 8006756:	d108      	bne.n	800676a <matchPattern+0x9e>
 8006758:	6939      	ldr	r1, [r7, #16]
 800675a:	683b      	ldr	r3, [r7, #0]
 800675c:	687a      	ldr	r2, [r7, #4]
 800675e:	68f8      	ldr	r0, [r7, #12]
 8006760:	f7ff feb7 	bl	80064d2 <compareStr>
 8006764:	4603      	mov	r3, r0
 8006766:	2b00      	cmp	r3, #0
 8006768:	d001      	beq.n	800676e <matchPattern+0xa2>
 800676a:	2301      	movs	r3, #1
 800676c:	e000      	b.n	8006770 <matchPattern+0xa4>
 800676e:	2300      	movs	r3, #0
 8006770:	f003 0301 	and.w	r3, r3, #1
 8006774:	b2db      	uxtb	r3, r3
 8006776:	4618      	mov	r0, r3
 8006778:	3718      	adds	r7, #24
 800677a:	46bd      	mov	sp, r7
 800677c:	bd80      	pop	{r7, pc}

0800677e <matchCommand>:
 800677e:	b580      	push	{r7, lr}
 8006780:	b090      	sub	sp, #64	@ 0x40
 8006782:	af02      	add	r7, sp, #8
 8006784:	60f8      	str	r0, [r7, #12]
 8006786:	60b9      	str	r1, [r7, #8]
 8006788:	607a      	str	r2, [r7, #4]
 800678a:	603b      	str	r3, [r7, #0]
 800678c:	2300      	movs	r3, #0
 800678e:	f887 3037 	strb.w	r3, [r7, #55]	@ 0x37
 8006792:	2300      	movs	r3, #0
 8006794:	633b      	str	r3, [r7, #48]	@ 0x30
 8006796:	2300      	movs	r3, #0
 8006798:	617b      	str	r3, [r7, #20]
 800679a:	2300      	movs	r3, #0
 800679c:	62fb      	str	r3, [r7, #44]	@ 0x2c
 800679e:	2300      	movs	r3, #0
 80067a0:	62bb      	str	r3, [r7, #40]	@ 0x28
 80067a2:	68fb      	ldr	r3, [r7, #12]
 80067a4:	627b      	str	r3, [r7, #36]	@ 0x24
 80067a6:	68f8      	ldr	r0, [r7, #12]
 80067a8:	f7f9 fd12 	bl	80001d0 <strlen>
 80067ac:	4603      	mov	r3, r0
 80067ae:	623b      	str	r3, [r7, #32]
 80067b0:	68bb      	ldr	r3, [r7, #8]
 80067b2:	61fb      	str	r3, [r7, #28]
 80067b4:	6879      	ldr	r1, [r7, #4]
 80067b6:	68b8      	ldr	r0, [r7, #8]
 80067b8:	f002 ffbe 	bl	8009738 <strnlen>
 80067bc:	61b8      	str	r0, [r7, #24]
 80067be:	6a3b      	ldr	r3, [r7, #32]
 80067c0:	3b01      	subs	r3, #1
 80067c2:	6a7a      	ldr	r2, [r7, #36]	@ 0x24
 80067c4:	4413      	add	r3, r2
 80067c6:	781b      	ldrb	r3, [r3, #0]
 80067c8:	2b3f      	cmp	r3, #63	@ 0x3f
 80067ca:	d10f      	bne.n	80067ec <matchCommand+0x6e>
 80067cc:	69bb      	ldr	r3, [r7, #24]
 80067ce:	3b01      	subs	r3, #1
 80067d0:	69fa      	ldr	r2, [r7, #28]
 80067d2:	4413      	add	r3, r2
 80067d4:	781b      	ldrb	r3, [r3, #0]
 80067d6:	2b3f      	cmp	r3, #63	@ 0x3f
 80067d8:	d106      	bne.n	80067e8 <matchCommand+0x6a>
 80067da:	69bb      	ldr	r3, [r7, #24]
 80067dc:	3b01      	subs	r3, #1
 80067de:	61bb      	str	r3, [r7, #24]
 80067e0:	6a3b      	ldr	r3, [r7, #32]
 80067e2:	3b01      	subs	r3, #1
 80067e4:	623b      	str	r3, [r7, #32]
 80067e6:	e001      	b.n	80067ec <matchCommand+0x6e>
 80067e8:	2300      	movs	r3, #0
 80067ea:	e18d      	b.n	8006b08 <matchCommand+0x38a>
 80067ec:	6a7b      	ldr	r3, [r7, #36]	@ 0x24
 80067ee:	781b      	ldrb	r3, [r3, #0]
 80067f0:	2b5b      	cmp	r3, #91	@ 0x5b
 80067f2:	d108      	bne.n	8006806 <matchCommand+0x88>
 80067f4:	6a7b      	ldr	r3, [r7, #36]	@ 0x24
 80067f6:	3301      	adds	r3, #1
 80067f8:	627b      	str	r3, [r7, #36]	@ 0x24
 80067fa:	6a3b      	ldr	r3, [r7, #32]
 80067fc:	3b01      	subs	r3, #1
 80067fe:	623b      	str	r3, [r7, #32]
 8006800:	6b3b      	ldr	r3, [r7, #48]	@ 0x30
 8006802:	3301      	adds	r3, #1
 8006804:	633b      	str	r3, [r7, #48]	@ 0x30
 8006806:	6a7b      	ldr	r3, [r7, #36]	@ 0x24
 8006808:	781b      	ldrb	r3, [r3, #0]
 800680a:	2b3a      	cmp	r3, #58	@ 0x3a
 800680c:	d105      	bne.n	800681a <matchCommand+0x9c>
 800680e:	6a7b      	ldr	r3, [r7, #36]	@ 0x24
 8006810:	3301      	adds	r3, #1
 8006812:	627b      	str	r3, [r7, #36]	@ 0x24
 8006814:	6a3b      	ldr	r3, [r7, #32]
 8006816:	3b01      	subs	r3, #1
 8006818:	623b      	str	r3, [r7, #32]
 800681a:	69fb      	ldr	r3, [r7, #28]
 800681c:	781b      	ldrb	r3, [r3, #0]
 800681e:	2b3a      	cmp	r3, #58	@ 0x3a
 8006820:	d110      	bne.n	8006844 <matchCommand+0xc6>
 8006822:	69bb      	ldr	r3, [r7, #24]
 8006824:	2b01      	cmp	r3, #1
 8006826:	d90d      	bls.n	8006844 <matchCommand+0xc6>
 8006828:	69fb      	ldr	r3, [r7, #28]
 800682a:	3301      	adds	r3, #1
 800682c:	781b      	ldrb	r3, [r3, #0]
 800682e:	2b2a      	cmp	r3, #42	@ 0x2a
 8006830:	d006      	beq.n	8006840 <matchCommand+0xc2>
 8006832:	69fb      	ldr	r3, [r7, #28]
 8006834:	3301      	adds	r3, #1
 8006836:	61fb      	str	r3, [r7, #28]
 8006838:	69bb      	ldr	r3, [r7, #24]
 800683a:	3b01      	subs	r3, #1
 800683c:	61bb      	str	r3, [r7, #24]
 800683e:	e001      	b.n	8006844 <matchCommand+0xc6>
 8006840:	2300      	movs	r3, #0
 8006842:	e161      	b.n	8006b08 <matchCommand+0x38a>
 8006844:	6a3b      	ldr	r3, [r7, #32]
 8006846:	4619      	mov	r1, r3
 8006848:	6a78      	ldr	r0, [r7, #36]	@ 0x24
 800684a:	f7ff ff09 	bl	8006660 <patternSeparatorPos>
 800684e:	4603      	mov	r3, r0
 8006850:	613b      	str	r3, [r7, #16]
 8006852:	69b9      	ldr	r1, [r7, #24]
 8006854:	69f8      	ldr	r0, [r7, #28]
 8006856:	f7ff ff1d 	bl	8006694 <cmdSeparatorPos>
 800685a:	4603      	mov	r3, r0
 800685c:	617b      	str	r3, [r7, #20]
 800685e:	693b      	ldr	r3, [r7, #16]
 8006860:	2b00      	cmp	r3, #0
 8006862:	dd1c      	ble.n	800689e <matchCommand+0x120>
 8006864:	693b      	ldr	r3, [r7, #16]
 8006866:	3b01      	subs	r3, #1
 8006868:	6a7a      	ldr	r2, [r7, #36]	@ 0x24
 800686a:	4413      	add	r3, r2
 800686c:	781b      	ldrb	r3, [r3, #0]
 800686e:	2b23      	cmp	r3, #35	@ 0x23
 8006870:	d115      	bne.n	800689e <matchCommand+0x120>
 8006872:	683b      	ldr	r3, [r7, #0]
 8006874:	2b00      	cmp	r3, #0
 8006876:	d00c      	beq.n	8006892 <matchCommand+0x114>
 8006878:	6afa      	ldr	r2, [r7, #44]	@ 0x2c
 800687a:	6c3b      	ldr	r3, [r7, #64]	@ 0x40
 800687c:	429a      	cmp	r2, r3
 800687e:	d208      	bcs.n	8006892 <matchCommand+0x114>
 8006880:	6afb      	ldr	r3, [r7, #44]	@ 0x2c
 8006882:	009b      	lsls	r3, r3, #2
 8006884:	683a      	ldr	r2, [r7, #0]
 8006886:	4413      	add	r3, r2
 8006888:	62bb      	str	r3, [r7, #40]	@ 0x28
 800688a:	6abb      	ldr	r3, [r7, #40]	@ 0x28
 800688c:	6c7a      	ldr	r2, [r7, #68]	@ 0x44
 800688e:	601a      	str	r2, [r3, #0]
 8006890:	e001      	b.n	8006896 <matchCommand+0x118>
 8006892:	2300      	movs	r3, #0
 8006894:	62bb      	str	r3, [r7, #40]	@ 0x28
 8006896:	6afb      	ldr	r3, [r7, #44]	@ 0x2c
 8006898:	3301      	adds	r3, #1
 800689a:	62fb      	str	r3, [r7, #44]	@ 0x2c
 800689c:	e001      	b.n	80068a2 <matchCommand+0x124>
 800689e:	2300      	movs	r3, #0
 80068a0:	62bb      	str	r3, [r7, #40]	@ 0x28
 80068a2:	6939      	ldr	r1, [r7, #16]
 80068a4:	697a      	ldr	r2, [r7, #20]
 80068a6:	6abb      	ldr	r3, [r7, #40]	@ 0x28
 80068a8:	9300      	str	r3, [sp, #0]
 80068aa:	4613      	mov	r3, r2
 80068ac:	69fa      	ldr	r2, [r7, #28]
 80068ae:	6a78      	ldr	r0, [r7, #36]	@ 0x24
 80068b0:	f7ff ff0c 	bl	80066cc <matchPattern>
 80068b4:	4603      	mov	r3, r0
 80068b6:	2b00      	cmp	r3, #0
 80068b8:	f000 80e9 	beq.w	8006a8e <matchCommand+0x310>
 80068bc:	693b      	ldr	r3, [r7, #16]
 80068be:	6a7a      	ldr	r2, [r7, #36]	@ 0x24
 80068c0:	4413      	add	r3, r2
 80068c2:	627b      	str	r3, [r7, #36]	@ 0x24
 80068c4:	6a3a      	ldr	r2, [r7, #32]
 80068c6:	693b      	ldr	r3, [r7, #16]
 80068c8:	1ad3      	subs	r3, r2, r3
 80068ca:	623b      	str	r3, [r7, #32]
 80068cc:	697b      	ldr	r3, [r7, #20]
 80068ce:	69fa      	ldr	r2, [r7, #28]
 80068d0:	4413      	add	r3, r2
 80068d2:	61fb      	str	r3, [r7, #28]
 80068d4:	697b      	ldr	r3, [r7, #20]
 80068d6:	69ba      	ldr	r2, [r7, #24]
 80068d8:	1ad3      	subs	r3, r2, r3
 80068da:	61bb      	str	r3, [r7, #24]
 80068dc:	2301      	movs	r3, #1
 80068de:	f887 3037 	strb.w	r3, [r7, #55]	@ 0x37
 80068e2:	6a3b      	ldr	r3, [r7, #32]
 80068e4:	2b00      	cmp	r3, #0
 80068e6:	d103      	bne.n	80068f0 <matchCommand+0x172>
 80068e8:	69bb      	ldr	r3, [r7, #24]
 80068ea:	2b00      	cmp	r3, #0
 80068ec:	f000 8107 	beq.w	8006afe <matchCommand+0x380>
 80068f0:	6a3b      	ldr	r3, [r7, #32]
 80068f2:	2b00      	cmp	r3, #0
 80068f4:	d106      	bne.n	8006904 <matchCommand+0x186>
 80068f6:	69bb      	ldr	r3, [r7, #24]
 80068f8:	2b00      	cmp	r3, #0
 80068fa:	d003      	beq.n	8006904 <matchCommand+0x186>
 80068fc:	2300      	movs	r3, #0
 80068fe:	f887 3037 	strb.w	r3, [r7, #55]	@ 0x37
 8006902:	e0ff      	b.n	8006b04 <matchCommand+0x386>
 8006904:	69bb      	ldr	r3, [r7, #24]
 8006906:	2b00      	cmp	r3, #0
 8006908:	d138      	bne.n	800697c <matchCommand+0x1fe>
 800690a:	e02c      	b.n	8006966 <matchCommand+0x1e8>
 800690c:	6a3b      	ldr	r3, [r7, #32]
 800690e:	4619      	mov	r1, r3
 8006910:	6a78      	ldr	r0, [r7, #36]	@ 0x24
 8006912:	f7ff fea5 	bl	8006660 <patternSeparatorPos>
 8006916:	4603      	mov	r3, r0
 8006918:	613b      	str	r3, [r7, #16]
 800691a:	693b      	ldr	r3, [r7, #16]
 800691c:	6a7a      	ldr	r2, [r7, #36]	@ 0x24
 800691e:	4413      	add	r3, r2
 8006920:	781b      	ldrb	r3, [r3, #0]
 8006922:	2b5b      	cmp	r3, #91	@ 0x5b
 8006924:	d002      	beq.n	800692c <matchCommand+0x1ae>
 8006926:	2b5d      	cmp	r3, #93	@ 0x5d
 8006928:	d004      	beq.n	8006934 <matchCommand+0x1b6>
 800692a:	e007      	b.n	800693c <matchCommand+0x1be>
 800692c:	6b3b      	ldr	r3, [r7, #48]	@ 0x30
 800692e:	3301      	adds	r3, #1
 8006930:	633b      	str	r3, [r7, #48]	@ 0x30
 8006932:	e003      	b.n	800693c <matchCommand+0x1be>
 8006934:	6b3b      	ldr	r3, [r7, #48]	@ 0x30
 8006936:	3b01      	subs	r3, #1
 8006938:	633b      	str	r3, [r7, #48]	@ 0x30
 800693a:	bf00      	nop
 800693c:	693b      	ldr	r3, [r7, #16]
 800693e:	3301      	adds	r3, #1
 8006940:	6a7a      	ldr	r2, [r7, #36]	@ 0x24
 8006942:	4413      	add	r3, r2
 8006944:	627b      	str	r3, [r7, #36]	@ 0x24
 8006946:	693b      	ldr	r3, [r7, #16]
 8006948:	3301      	adds	r3, #1
 800694a:	6a3a      	ldr	r2, [r7, #32]
 800694c:	1ad3      	subs	r3, r2, r3
 800694e:	623b      	str	r3, [r7, #32]
 8006950:	6b3b      	ldr	r3, [r7, #48]	@ 0x30
 8006952:	2b00      	cmp	r3, #0
 8006954:	d107      	bne.n	8006966 <matchCommand+0x1e8>
 8006956:	6a3b      	ldr	r3, [r7, #32]
 8006958:	2b00      	cmp	r3, #0
 800695a:	dd07      	ble.n	800696c <matchCommand+0x1ee>
 800695c:	6a7b      	ldr	r3, [r7, #36]	@ 0x24
 800695e:	781b      	ldrb	r3, [r3, #0]
 8006960:	2b5b      	cmp	r3, #91	@ 0x5b
 8006962:	d103      	bne.n	800696c <matchCommand+0x1ee>
 8006964:	bf00      	nop
 8006966:	6a3b      	ldr	r3, [r7, #32]
 8006968:	2b00      	cmp	r3, #0
 800696a:	d1cf      	bne.n	800690c <matchCommand+0x18e>
 800696c:	6a3b      	ldr	r3, [r7, #32]
 800696e:	2b00      	cmp	r3, #0
 8006970:	f000 80c7 	beq.w	8006b02 <matchCommand+0x384>
 8006974:	2300      	movs	r3, #0
 8006976:	f887 3037 	strb.w	r3, [r7, #55]	@ 0x37
 800697a:	e0c2      	b.n	8006b02 <matchCommand+0x384>
 800697c:	6a3b      	ldr	r3, [r7, #32]
 800697e:	2b00      	cmp	r3, #0
 8006980:	dd16      	ble.n	80069b0 <matchCommand+0x232>
 8006982:	6a7b      	ldr	r3, [r7, #36]	@ 0x24
 8006984:	781a      	ldrb	r2, [r3, #0]
 8006986:	69fb      	ldr	r3, [r7, #28]
 8006988:	781b      	ldrb	r3, [r3, #0]
 800698a:	429a      	cmp	r2, r3
 800698c:	d110      	bne.n	80069b0 <matchCommand+0x232>
 800698e:	6a7b      	ldr	r3, [r7, #36]	@ 0x24
 8006990:	781b      	ldrb	r3, [r3, #0]
 8006992:	2b3a      	cmp	r3, #58	@ 0x3a
 8006994:	d10c      	bne.n	80069b0 <matchCommand+0x232>
 8006996:	6a7b      	ldr	r3, [r7, #36]	@ 0x24
 8006998:	3301      	adds	r3, #1
 800699a:	627b      	str	r3, [r7, #36]	@ 0x24
 800699c:	6a3b      	ldr	r3, [r7, #32]
 800699e:	3b01      	subs	r3, #1
 80069a0:	623b      	str	r3, [r7, #32]
 80069a2:	69fb      	ldr	r3, [r7, #28]
 80069a4:	3301      	adds	r3, #1
 80069a6:	61fb      	str	r3, [r7, #28]
 80069a8:	69bb      	ldr	r3, [r7, #24]
 80069aa:	3b01      	subs	r3, #1
 80069ac:	61bb      	str	r3, [r7, #24]
 80069ae:	e0a5      	b.n	8006afc <matchCommand+0x37e>
 80069b0:	6a3b      	ldr	r3, [r7, #32]
 80069b2:	2b01      	cmp	r3, #1
 80069b4:	dd1f      	ble.n	80069f6 <matchCommand+0x278>
 80069b6:	6a7b      	ldr	r3, [r7, #36]	@ 0x24
 80069b8:	3301      	adds	r3, #1
 80069ba:	781a      	ldrb	r2, [r3, #0]
 80069bc:	69fb      	ldr	r3, [r7, #28]
 80069be:	781b      	ldrb	r3, [r3, #0]
 80069c0:	429a      	cmp	r2, r3
 80069c2:	d118      	bne.n	80069f6 <matchCommand+0x278>
 80069c4:	6a7b      	ldr	r3, [r7, #36]	@ 0x24
 80069c6:	781b      	ldrb	r3, [r3, #0]
 80069c8:	2b5b      	cmp	r3, #91	@ 0x5b
 80069ca:	d114      	bne.n	80069f6 <matchCommand+0x278>
 80069cc:	6a7b      	ldr	r3, [r7, #36]	@ 0x24
 80069ce:	3301      	adds	r3, #1
 80069d0:	781b      	ldrb	r3, [r3, #0]
 80069d2:	2b3a      	cmp	r3, #58	@ 0x3a
 80069d4:	d10f      	bne.n	80069f6 <matchCommand+0x278>
 80069d6:	6a7b      	ldr	r3, [r7, #36]	@ 0x24
 80069d8:	3302      	adds	r3, #2
 80069da:	627b      	str	r3, [r7, #36]	@ 0x24
 80069dc:	6a3b      	ldr	r3, [r7, #32]
 80069de:	3b02      	subs	r3, #2
 80069e0:	623b      	str	r3, [r7, #32]
 80069e2:	69fb      	ldr	r3, [r7, #28]
 80069e4:	3301      	adds	r3, #1
 80069e6:	61fb      	str	r3, [r7, #28]
 80069e8:	69bb      	ldr	r3, [r7, #24]
 80069ea:	3b01      	subs	r3, #1
 80069ec:	61bb      	str	r3, [r7, #24]
 80069ee:	6b3b      	ldr	r3, [r7, #48]	@ 0x30
 80069f0:	3301      	adds	r3, #1
 80069f2:	633b      	str	r3, [r7, #48]	@ 0x30
 80069f4:	e082      	b.n	8006afc <matchCommand+0x37e>
 80069f6:	6a3b      	ldr	r3, [r7, #32]
 80069f8:	2b01      	cmp	r3, #1
 80069fa:	dd1f      	ble.n	8006a3c <matchCommand+0x2be>
 80069fc:	6a7b      	ldr	r3, [r7, #36]	@ 0x24
 80069fe:	3301      	adds	r3, #1
 8006a00:	781a      	ldrb	r2, [r3, #0]
 8006a02:	69fb      	ldr	r3, [r7, #28]
 8006a04:	781b      	ldrb	r3, [r3, #0]
 8006a06:	429a      	cmp	r2, r3
 8006a08:	d118      	bne.n	8006a3c <matchCommand+0x2be>
 8006a0a:	6a7b      	ldr	r3, [r7, #36]	@ 0x24
 8006a0c:	781b      	ldrb	r3, [r3, #0]
 8006a0e:	2b5d      	cmp	r3, #93	@ 0x5d
 8006a10:	d114      	bne.n	8006a3c <matchCommand+0x2be>
 8006a12:	6a7b      	ldr	r3, [r7, #36]	@ 0x24
 8006a14:	3301      	adds	r3, #1
 8006a16:	781b      	ldrb	r3, [r3, #0]
 8006a18:	2b3a      	cmp	r3, #58	@ 0x3a
 8006a1a:	d10f      	bne.n	8006a3c <matchCommand+0x2be>
 8006a1c:	6a7b      	ldr	r3, [r7, #36]	@ 0x24
 8006a1e:	3302      	adds	r3, #2
 8006a20:	627b      	str	r3, [r7, #36]	@ 0x24
 8006a22:	6a3b      	ldr	r3, [r7, #32]
 8006a24:	3b02      	subs	r3, #2
 8006a26:	623b      	str	r3, [r7, #32]
 8006a28:	69fb      	ldr	r3, [r7, #28]
 8006a2a:	3301      	adds	r3, #1
 8006a2c:	61fb      	str	r3, [r7, #28]
 8006a2e:	69bb      	ldr	r3, [r7, #24]
 8006a30:	3b01      	subs	r3, #1
 8006a32:	61bb      	str	r3, [r7, #24]
 8006a34:	6b3b      	ldr	r3, [r7, #48]	@ 0x30
 8006a36:	3b01      	subs	r3, #1
 8006a38:	633b      	str	r3, [r7, #48]	@ 0x30
 8006a3a:	e05f      	b.n	8006afc <matchCommand+0x37e>
 8006a3c:	6a3b      	ldr	r3, [r7, #32]
 8006a3e:	2b02      	cmp	r3, #2
 8006a40:	dd21      	ble.n	8006a86 <matchCommand+0x308>
 8006a42:	6a7b      	ldr	r3, [r7, #36]	@ 0x24
 8006a44:	3302      	adds	r3, #2
 8006a46:	781a      	ldrb	r2, [r3, #0]
 8006a48:	69fb      	ldr	r3, [r7, #28]
 8006a4a:	781b      	ldrb	r3, [r3, #0]
 8006a4c:	429a      	cmp	r2, r3
 8006a4e:	d11a      	bne.n	8006a86 <matchCommand+0x308>
 8006a50:	6a7b      	ldr	r3, [r7, #36]	@ 0x24
 8006a52:	781b      	ldrb	r3, [r3, #0]
 8006a54:	2b5d      	cmp	r3, #93	@ 0x5d
 8006a56:	d116      	bne.n	8006a86 <matchCommand+0x308>
 8006a58:	6a7b      	ldr	r3, [r7, #36]	@ 0x24
 8006a5a:	3301      	adds	r3, #1
 8006a5c:	781b      	ldrb	r3, [r3, #0]
 8006a5e:	2b5b      	cmp	r3, #91	@ 0x5b
 8006a60:	d111      	bne.n	8006a86 <matchCommand+0x308>
 8006a62:	6a7b      	ldr	r3, [r7, #36]	@ 0x24
 8006a64:	3302      	adds	r3, #2
 8006a66:	781b      	ldrb	r3, [r3, #0]
 8006a68:	2b3a      	cmp	r3, #58	@ 0x3a
 8006a6a:	d10c      	bne.n	8006a86 <matchCommand+0x308>
 8006a6c:	6a7b      	ldr	r3, [r7, #36]	@ 0x24
 8006a6e:	3303      	adds	r3, #3
 8006a70:	627b      	str	r3, [r7, #36]	@ 0x24
 8006a72:	6a3b      	ldr	r3, [r7, #32]
 8006a74:	3b03      	subs	r3, #3
 8006a76:	623b      	str	r3, [r7, #32]
 8006a78:	69fb      	ldr	r3, [r7, #28]
 8006a7a:	3301      	adds	r3, #1
 8006a7c:	61fb      	str	r3, [r7, #28]
 8006a7e:	69bb      	ldr	r3, [r7, #24]
 8006a80:	3b01      	subs	r3, #1
 8006a82:	61bb      	str	r3, [r7, #24]
 8006a84:	e03a      	b.n	8006afc <matchCommand+0x37e>
 8006a86:	2300      	movs	r3, #0
 8006a88:	f887 3037 	strb.w	r3, [r7, #55]	@ 0x37
 8006a8c:	e03a      	b.n	8006b04 <matchCommand+0x386>
 8006a8e:	693b      	ldr	r3, [r7, #16]
 8006a90:	6a7a      	ldr	r2, [r7, #36]	@ 0x24
 8006a92:	4413      	add	r3, r2
 8006a94:	627b      	str	r3, [r7, #36]	@ 0x24
 8006a96:	6a3a      	ldr	r2, [r7, #32]
 8006a98:	693b      	ldr	r3, [r7, #16]
 8006a9a:	1ad3      	subs	r3, r2, r3
 8006a9c:	623b      	str	r3, [r7, #32]
 8006a9e:	6a7b      	ldr	r3, [r7, #36]	@ 0x24
 8006aa0:	781b      	ldrb	r3, [r3, #0]
 8006aa2:	2b5d      	cmp	r3, #93	@ 0x5d
 8006aa4:	d10e      	bne.n	8006ac4 <matchCommand+0x346>
 8006aa6:	6a7b      	ldr	r3, [r7, #36]	@ 0x24
 8006aa8:	3301      	adds	r3, #1
 8006aaa:	781b      	ldrb	r3, [r3, #0]
 8006aac:	2b3a      	cmp	r3, #58	@ 0x3a
 8006aae:	d109      	bne.n	8006ac4 <matchCommand+0x346>
 8006ab0:	6a7b      	ldr	r3, [r7, #36]	@ 0x24
 8006ab2:	3302      	adds	r3, #2
 8006ab4:	627b      	str	r3, [r7, #36]	@ 0x24
 8006ab6:	6a3b      	ldr	r3, [r7, #32]
 8006ab8:	3b02      	subs	r3, #2
 8006aba:	623b      	str	r3, [r7, #32]
 8006abc:	6b3b      	ldr	r3, [r7, #48]	@ 0x30
 8006abe:	3b01      	subs	r3, #1
 8006ac0:	633b      	str	r3, [r7, #48]	@ 0x30
 8006ac2:	e01b      	b.n	8006afc <matchCommand+0x37e>
 8006ac4:	6a3b      	ldr	r3, [r7, #32]
 8006ac6:	2b02      	cmp	r3, #2
 8006ac8:	dd14      	ble.n	8006af4 <matchCommand+0x376>
 8006aca:	6a7b      	ldr	r3, [r7, #36]	@ 0x24
 8006acc:	781b      	ldrb	r3, [r3, #0]
 8006ace:	2b5d      	cmp	r3, #93	@ 0x5d
 8006ad0:	d110      	bne.n	8006af4 <matchCommand+0x376>
 8006ad2:	6a7b      	ldr	r3, [r7, #36]	@ 0x24
 8006ad4:	3301      	adds	r3, #1
 8006ad6:	781b      	ldrb	r3, [r3, #0]
 8006ad8:	2b5b      	cmp	r3, #91	@ 0x5b
 8006ada:	d10b      	bne.n	8006af4 <matchCommand+0x376>
 8006adc:	6a7b      	ldr	r3, [r7, #36]	@ 0x24
 8006ade:	3302      	adds	r3, #2
 8006ae0:	781b      	ldrb	r3, [r3, #0]
 8006ae2:	2b3a      	cmp	r3, #58	@ 0x3a
 8006ae4:	d106      	bne.n	8006af4 <matchCommand+0x376>
 8006ae6:	6a7b      	ldr	r3, [r7, #36]	@ 0x24
 8006ae8:	3303      	adds	r3, #3
 8006aea:	627b      	str	r3, [r7, #36]	@ 0x24
 8006aec:	6a3b      	ldr	r3, [r7, #32]
 8006aee:	3b03      	subs	r3, #3
 8006af0:	623b      	str	r3, [r7, #32]
 8006af2:	e003      	b.n	8006afc <matchCommand+0x37e>
 8006af4:	2300      	movs	r3, #0
 8006af6:	f887 3037 	strb.w	r3, [r7, #55]	@ 0x37
 8006afa:	e003      	b.n	8006b04 <matchCommand+0x386>
 8006afc:	e6a2      	b.n	8006844 <matchCommand+0xc6>
 8006afe:	bf00      	nop
 8006b00:	e000      	b.n	8006b04 <matchCommand+0x386>
 8006b02:	bf00      	nop
 8006b04:	f897 3037 	ldrb.w	r3, [r7, #55]	@ 0x37
 8006b08:	4618      	mov	r0, r3
 8006b0a:	3738      	adds	r7, #56	@ 0x38
 8006b0c:	46bd      	mov	sp, r7
 8006b0e:	bd80      	pop	{r7, pc}

08006b10 <composeCompoundCommand>:
 8006b10:	b580      	push	{r7, lr}
 8006b12:	b084      	sub	sp, #16
 8006b14:	af00      	add	r7, sp, #0
 8006b16:	6078      	str	r0, [r7, #4]
 8006b18:	6039      	str	r1, [r7, #0]
 8006b1a:	683b      	ldr	r3, [r7, #0]
 8006b1c:	2b00      	cmp	r3, #0
 8006b1e:	d007      	beq.n	8006b30 <composeCompoundCommand+0x20>
 8006b20:	683b      	ldr	r3, [r7, #0]
 8006b22:	685b      	ldr	r3, [r3, #4]
 8006b24:	2b00      	cmp	r3, #0
 8006b26:	d003      	beq.n	8006b30 <composeCompoundCommand+0x20>
 8006b28:	683b      	ldr	r3, [r7, #0]
 8006b2a:	689b      	ldr	r3, [r3, #8]
 8006b2c:	2b00      	cmp	r3, #0
 8006b2e:	d101      	bne.n	8006b34 <composeCompoundCommand+0x24>
 8006b30:	2300      	movs	r3, #0
 8006b32:	e04d      	b.n	8006bd0 <composeCompoundCommand+0xc0>
 8006b34:	687b      	ldr	r3, [r7, #4]
 8006b36:	685b      	ldr	r3, [r3, #4]
 8006b38:	2b00      	cmp	r3, #0
 8006b3a:	d003      	beq.n	8006b44 <composeCompoundCommand+0x34>
 8006b3c:	687b      	ldr	r3, [r7, #4]
 8006b3e:	689b      	ldr	r3, [r3, #8]
 8006b40:	2b00      	cmp	r3, #0
 8006b42:	d101      	bne.n	8006b48 <composeCompoundCommand+0x38>
 8006b44:	2301      	movs	r3, #1
 8006b46:	e043      	b.n	8006bd0 <composeCompoundCommand+0xc0>
 8006b48:	683b      	ldr	r3, [r7, #0]
 8006b4a:	685b      	ldr	r3, [r3, #4]
 8006b4c:	781b      	ldrb	r3, [r3, #0]
 8006b4e:	2b2a      	cmp	r3, #42	@ 0x2a
 8006b50:	d004      	beq.n	8006b5c <composeCompoundCommand+0x4c>
 8006b52:	683b      	ldr	r3, [r7, #0]
 8006b54:	685b      	ldr	r3, [r3, #4]
 8006b56:	781b      	ldrb	r3, [r3, #0]
 8006b58:	2b3a      	cmp	r3, #58	@ 0x3a
 8006b5a:	d101      	bne.n	8006b60 <composeCompoundCommand+0x50>
 8006b5c:	2301      	movs	r3, #1
 8006b5e:	e037      	b.n	8006bd0 <composeCompoundCommand+0xc0>
 8006b60:	687b      	ldr	r3, [r7, #4]
 8006b62:	685b      	ldr	r3, [r3, #4]
 8006b64:	781b      	ldrb	r3, [r3, #0]
 8006b66:	2b2a      	cmp	r3, #42	@ 0x2a
 8006b68:	d101      	bne.n	8006b6e <composeCompoundCommand+0x5e>
 8006b6a:	2301      	movs	r3, #1
 8006b6c:	e030      	b.n	8006bd0 <composeCompoundCommand+0xc0>
 8006b6e:	687b      	ldr	r3, [r7, #4]
 8006b70:	689b      	ldr	r3, [r3, #8]
 8006b72:	60fb      	str	r3, [r7, #12]
 8006b74:	e00a      	b.n	8006b8c <composeCompoundCommand+0x7c>
 8006b76:	687b      	ldr	r3, [r7, #4]
 8006b78:	685a      	ldr	r2, [r3, #4]
 8006b7a:	68fb      	ldr	r3, [r7, #12]
 8006b7c:	3b01      	subs	r3, #1
 8006b7e:	4413      	add	r3, r2
 8006b80:	781b      	ldrb	r3, [r3, #0]
 8006b82:	2b3a      	cmp	r3, #58	@ 0x3a
 8006b84:	d006      	beq.n	8006b94 <composeCompoundCommand+0x84>
 8006b86:	68fb      	ldr	r3, [r7, #12]
 8006b88:	3b01      	subs	r3, #1
 8006b8a:	60fb      	str	r3, [r7, #12]
 8006b8c:	68fb      	ldr	r3, [r7, #12]
 8006b8e:	2b00      	cmp	r3, #0
 8006b90:	d1f1      	bne.n	8006b76 <composeCompoundCommand+0x66>
 8006b92:	e000      	b.n	8006b96 <composeCompoundCommand+0x86>
 8006b94:	bf00      	nop
 8006b96:	68fb      	ldr	r3, [r7, #12]
 8006b98:	2b00      	cmp	r3, #0
 8006b9a:	d101      	bne.n	8006ba0 <composeCompoundCommand+0x90>
 8006b9c:	2301      	movs	r3, #1
 8006b9e:	e017      	b.n	8006bd0 <composeCompoundCommand+0xc0>
 8006ba0:	683b      	ldr	r3, [r7, #0]
 8006ba2:	685a      	ldr	r2, [r3, #4]
 8006ba4:	68fb      	ldr	r3, [r7, #12]
 8006ba6:	425b      	negs	r3, r3
 8006ba8:	441a      	add	r2, r3
 8006baa:	683b      	ldr	r3, [r7, #0]
 8006bac:	605a      	str	r2, [r3, #4]
 8006bae:	683b      	ldr	r3, [r7, #0]
 8006bb0:	689b      	ldr	r3, [r3, #8]
 8006bb2:	461a      	mov	r2, r3
 8006bb4:	68fb      	ldr	r3, [r7, #12]
 8006bb6:	4413      	add	r3, r2
 8006bb8:	461a      	mov	r2, r3
 8006bba:	683b      	ldr	r3, [r7, #0]
 8006bbc:	609a      	str	r2, [r3, #8]
 8006bbe:	683b      	ldr	r3, [r7, #0]
 8006bc0:	6858      	ldr	r0, [r3, #4]
 8006bc2:	687b      	ldr	r3, [r7, #4]
 8006bc4:	685b      	ldr	r3, [r3, #4]
 8006bc6:	68fa      	ldr	r2, [r7, #12]
 8006bc8:	4619      	mov	r1, r3
 8006bca:	f002 fd60 	bl	800968e <memmove>
 8006bce:	2301      	movs	r3, #1
 8006bd0:	4618      	mov	r0, r3
 8006bd2:	3710      	adds	r7, #16
 8006bd4:	46bd      	mov	sp, r7
 8006bd6:	bd80      	pop	{r7, pc}

08006bd8 <isws>:
 8006bd8:	b480      	push	{r7}
 8006bda:	b083      	sub	sp, #12
 8006bdc:	af00      	add	r7, sp, #0
 8006bde:	6078      	str	r0, [r7, #4]
 8006be0:	687b      	ldr	r3, [r7, #4]
 8006be2:	2b20      	cmp	r3, #32
 8006be4:	d002      	beq.n	8006bec <isws+0x14>
 8006be6:	687b      	ldr	r3, [r7, #4]
 8006be8:	2b09      	cmp	r3, #9
 8006bea:	d101      	bne.n	8006bf0 <isws+0x18>
 8006bec:	2301      	movs	r3, #1
 8006bee:	e000      	b.n	8006bf2 <isws+0x1a>
 8006bf0:	2300      	movs	r3, #0
 8006bf2:	4618      	mov	r0, r3
 8006bf4:	370c      	adds	r7, #12
 8006bf6:	46bd      	mov	sp, r7
 8006bf8:	f85d 7b04 	ldr.w	r7, [sp], #4
 8006bfc:	4770      	bx	lr

08006bfe <isbdigit>:
 8006bfe:	b480      	push	{r7}
 8006c00:	b083      	sub	sp, #12
 8006c02:	af00      	add	r7, sp, #0
 8006c04:	6078      	str	r0, [r7, #4]
 8006c06:	687b      	ldr	r3, [r7, #4]
 8006c08:	2b30      	cmp	r3, #48	@ 0x30
 8006c0a:	d002      	beq.n	8006c12 <isbdigit+0x14>
 8006c0c:	687b      	ldr	r3, [r7, #4]
 8006c0e:	2b31      	cmp	r3, #49	@ 0x31
 8006c10:	d101      	bne.n	8006c16 <isbdigit+0x18>
 8006c12:	2301      	movs	r3, #1
 8006c14:	e000      	b.n	8006c18 <isbdigit+0x1a>
 8006c16:	2300      	movs	r3, #0
 8006c18:	4618      	mov	r0, r3
 8006c1a:	370c      	adds	r7, #12
 8006c1c:	46bd      	mov	sp, r7
 8006c1e:	f85d 7b04 	ldr.w	r7, [sp], #4
 8006c22:	4770      	bx	lr

08006c24 <isqdigit>:
 8006c24:	b480      	push	{r7}
 8006c26:	b083      	sub	sp, #12
 8006c28:	af00      	add	r7, sp, #0
 8006c2a:	6078      	str	r0, [r7, #4]
 8006c2c:	687b      	ldr	r3, [r7, #4]
 8006c2e:	2b30      	cmp	r3, #48	@ 0x30
 8006c30:	d014      	beq.n	8006c5c <isqdigit+0x38>
 8006c32:	687b      	ldr	r3, [r7, #4]
 8006c34:	2b31      	cmp	r3, #49	@ 0x31
 8006c36:	d011      	beq.n	8006c5c <isqdigit+0x38>
 8006c38:	687b      	ldr	r3, [r7, #4]
 8006c3a:	2b32      	cmp	r3, #50	@ 0x32
 8006c3c:	d00e      	beq.n	8006c5c <isqdigit+0x38>
 8006c3e:	687b      	ldr	r3, [r7, #4]
 8006c40:	2b33      	cmp	r3, #51	@ 0x33
 8006c42:	d00b      	beq.n	8006c5c <isqdigit+0x38>
 8006c44:	687b      	ldr	r3, [r7, #4]
 8006c46:	2b34      	cmp	r3, #52	@ 0x34
 8006c48:	d008      	beq.n	8006c5c <isqdigit+0x38>
 8006c4a:	687b      	ldr	r3, [r7, #4]
 8006c4c:	2b35      	cmp	r3, #53	@ 0x35
 8006c4e:	d005      	beq.n	8006c5c <isqdigit+0x38>
 8006c50:	687b      	ldr	r3, [r7, #4]
 8006c52:	2b36      	cmp	r3, #54	@ 0x36
 8006c54:	d002      	beq.n	8006c5c <isqdigit+0x38>
 8006c56:	687b      	ldr	r3, [r7, #4]
 8006c58:	2b37      	cmp	r3, #55	@ 0x37
 8006c5a:	d101      	bne.n	8006c60 <isqdigit+0x3c>
 8006c5c:	2301      	movs	r3, #1
 8006c5e:	e000      	b.n	8006c62 <isqdigit+0x3e>
 8006c60:	2300      	movs	r3, #0
 8006c62:	4618      	mov	r0, r3
 8006c64:	370c      	adds	r7, #12
 8006c66:	46bd      	mov	sp, r7
 8006c68:	f85d 7b04 	ldr.w	r7, [sp], #4
 8006c6c:	4770      	bx	lr

08006c6e <iseos>:
 8006c6e:	b480      	push	{r7}
 8006c70:	b083      	sub	sp, #12
 8006c72:	af00      	add	r7, sp, #0
 8006c74:	6078      	str	r0, [r7, #4]
 8006c76:	687b      	ldr	r3, [r7, #4]
 8006c78:	681b      	ldr	r3, [r3, #0]
 8006c7a:	687a      	ldr	r2, [r7, #4]
 8006c7c:	6892      	ldr	r2, [r2, #8]
 8006c7e:	441a      	add	r2, r3
 8006c80:	687b      	ldr	r3, [r7, #4]
 8006c82:	685b      	ldr	r3, [r3, #4]
 8006c84:	429a      	cmp	r2, r3
 8006c86:	d801      	bhi.n	8006c8c <iseos+0x1e>
 8006c88:	2301      	movs	r3, #1
 8006c8a:	e000      	b.n	8006c8e <iseos+0x20>
 8006c8c:	2300      	movs	r3, #0
 8006c8e:	4618      	mov	r0, r3
 8006c90:	370c      	adds	r7, #12
 8006c92:	46bd      	mov	sp, r7
 8006c94:	f85d 7b04 	ldr.w	r7, [sp], #4
 8006c98:	4770      	bx	lr

08006c9a <scpiLex_IsEos>:
 8006c9a:	b580      	push	{r7, lr}
 8006c9c:	b082      	sub	sp, #8
 8006c9e:	af00      	add	r7, sp, #0
 8006ca0:	6078      	str	r0, [r7, #4]
 8006ca2:	6878      	ldr	r0, [r7, #4]
 8006ca4:	f7ff ffe3 	bl	8006c6e <iseos>
 8006ca8:	4603      	mov	r3, r0
 8006caa:	4618      	mov	r0, r3
 8006cac:	3708      	adds	r7, #8
 8006cae:	46bd      	mov	sp, r7
 8006cb0:	bd80      	pop	{r7, pc}

08006cb2 <ischr>:
 8006cb2:	b480      	push	{r7}
 8006cb4:	b083      	sub	sp, #12
 8006cb6:	af00      	add	r7, sp, #0
 8006cb8:	6078      	str	r0, [r7, #4]
 8006cba:	460b      	mov	r3, r1
 8006cbc:	70fb      	strb	r3, [r7, #3]
 8006cbe:	687b      	ldr	r3, [r7, #4]
 8006cc0:	685b      	ldr	r3, [r3, #4]
 8006cc2:	781b      	ldrb	r3, [r3, #0]
 8006cc4:	78fa      	ldrb	r2, [r7, #3]
 8006cc6:	429a      	cmp	r2, r3
 8006cc8:	bf0c      	ite	eq
 8006cca:	2301      	moveq	r3, #1
 8006ccc:	2300      	movne	r3, #0
 8006cce:	b2db      	uxtb	r3, r3
 8006cd0:	4618      	mov	r0, r3
 8006cd2:	370c      	adds	r7, #12
 8006cd4:	46bd      	mov	sp, r7
 8006cd6:	f85d 7b04 	ldr.w	r7, [sp], #4
 8006cda:	4770      	bx	lr

08006cdc <isplusmn>:
 8006cdc:	b480      	push	{r7}
 8006cde:	b083      	sub	sp, #12
 8006ce0:	af00      	add	r7, sp, #0
 8006ce2:	6078      	str	r0, [r7, #4]
 8006ce4:	687b      	ldr	r3, [r7, #4]
 8006ce6:	2b2b      	cmp	r3, #43	@ 0x2b
 8006ce8:	d002      	beq.n	8006cf0 <isplusmn+0x14>
 8006cea:	687b      	ldr	r3, [r7, #4]
 8006cec:	2b2d      	cmp	r3, #45	@ 0x2d
 8006cee:	d101      	bne.n	8006cf4 <isplusmn+0x18>
 8006cf0:	2301      	movs	r3, #1
 8006cf2:	e000      	b.n	8006cf6 <isplusmn+0x1a>
 8006cf4:	2300      	movs	r3, #0
 8006cf6:	4618      	mov	r0, r3
 8006cf8:	370c      	adds	r7, #12
 8006cfa:	46bd      	mov	sp, r7
 8006cfc:	f85d 7b04 	ldr.w	r7, [sp], #4
 8006d00:	4770      	bx	lr

08006d02 <isH>:
 8006d02:	b480      	push	{r7}
 8006d04:	b083      	sub	sp, #12
 8006d06:	af00      	add	r7, sp, #0
 8006d08:	6078      	str	r0, [r7, #4]
 8006d0a:	687b      	ldr	r3, [r7, #4]
 8006d0c:	2b68      	cmp	r3, #104	@ 0x68
 8006d0e:	d002      	beq.n	8006d16 <isH+0x14>
 8006d10:	687b      	ldr	r3, [r7, #4]
 8006d12:	2b48      	cmp	r3, #72	@ 0x48
 8006d14:	d101      	bne.n	8006d1a <isH+0x18>
 8006d16:	2301      	movs	r3, #1
 8006d18:	e000      	b.n	8006d1c <isH+0x1a>
 8006d1a:	2300      	movs	r3, #0
 8006d1c:	4618      	mov	r0, r3
 8006d1e:	370c      	adds	r7, #12
 8006d20:	46bd      	mov	sp, r7
 8006d22:	f85d 7b04 	ldr.w	r7, [sp], #4
 8006d26:	4770      	bx	lr

08006d28 <isB>:
 8006d28:	b480      	push	{r7}
 8006d2a:	b083      	sub	sp, #12
 8006d2c:	af00      	add	r7, sp, #0
 8006d2e:	6078      	str	r0, [r7, #4]
 8006d30:	687b      	ldr	r3, [r7, #4]
 8006d32:	2b62      	cmp	r3, #98	@ 0x62
 8006d34:	d002      	beq.n	8006d3c <isB+0x14>
 8006d36:	687b      	ldr	r3, [r7, #4]
 8006d38:	2b42      	cmp	r3, #66	@ 0x42
 8006d3a:	d101      	bne.n	8006d40 <isB+0x18>
 8006d3c:	2301      	movs	r3, #1
 8006d3e:	e000      	b.n	8006d42 <isB+0x1a>
 8006d40:	2300      	movs	r3, #0
 8006d42:	4618      	mov	r0, r3
 8006d44:	370c      	adds	r7, #12
 8006d46:	46bd      	mov	sp, r7
 8006d48:	f85d 7b04 	ldr.w	r7, [sp], #4
 8006d4c:	4770      	bx	lr

08006d4e <isQ>:
 8006d4e:	b480      	push	{r7}
 8006d50:	b083      	sub	sp, #12
 8006d52:	af00      	add	r7, sp, #0
 8006d54:	6078      	str	r0, [r7, #4]
 8006d56:	687b      	ldr	r3, [r7, #4]
 8006d58:	2b71      	cmp	r3, #113	@ 0x71
 8006d5a:	d002      	beq.n	8006d62 <isQ+0x14>
 8006d5c:	687b      	ldr	r3, [r7, #4]
 8006d5e:	2b51      	cmp	r3, #81	@ 0x51
 8006d60:	d101      	bne.n	8006d66 <isQ+0x18>
 8006d62:	2301      	movs	r3, #1
 8006d64:	e000      	b.n	8006d68 <isQ+0x1a>
 8006d66:	2300      	movs	r3, #0
 8006d68:	4618      	mov	r0, r3
 8006d6a:	370c      	adds	r7, #12
 8006d6c:	46bd      	mov	sp, r7
 8006d6e:	f85d 7b04 	ldr.w	r7, [sp], #4
 8006d72:	4770      	bx	lr

08006d74 <isE>:
 8006d74:	b480      	push	{r7}
 8006d76:	b083      	sub	sp, #12
 8006d78:	af00      	add	r7, sp, #0
 8006d7a:	6078      	str	r0, [r7, #4]
 8006d7c:	687b      	ldr	r3, [r7, #4]
 8006d7e:	2b65      	cmp	r3, #101	@ 0x65
 8006d80:	d002      	beq.n	8006d88 <isE+0x14>
 8006d82:	687b      	ldr	r3, [r7, #4]
 8006d84:	2b45      	cmp	r3, #69	@ 0x45
 8006d86:	d101      	bne.n	8006d8c <isE+0x18>
 8006d88:	2301      	movs	r3, #1
 8006d8a:	e000      	b.n	8006d8e <isE+0x1a>
 8006d8c:	2300      	movs	r3, #0
 8006d8e:	4618      	mov	r0, r3
 8006d90:	370c      	adds	r7, #12
 8006d92:	46bd      	mov	sp, r7
 8006d94:	f85d 7b04 	ldr.w	r7, [sp], #4
 8006d98:	4770      	bx	lr

08006d9a <skipWs>:
 8006d9a:	b580      	push	{r7, lr}
 8006d9c:	b084      	sub	sp, #16
 8006d9e:	af00      	add	r7, sp, #0
 8006da0:	6078      	str	r0, [r7, #4]
 8006da2:	2300      	movs	r3, #0
 8006da4:	60fb      	str	r3, [r7, #12]
 8006da6:	e007      	b.n	8006db8 <skipWs+0x1e>
 8006da8:	687b      	ldr	r3, [r7, #4]
 8006daa:	685b      	ldr	r3, [r3, #4]
 8006dac:	1c5a      	adds	r2, r3, #1
 8006dae:	687b      	ldr	r3, [r7, #4]
 8006db0:	605a      	str	r2, [r3, #4]
 8006db2:	68fb      	ldr	r3, [r7, #12]
 8006db4:	3301      	adds	r3, #1
 8006db6:	60fb      	str	r3, [r7, #12]
 8006db8:	6878      	ldr	r0, [r7, #4]
 8006dba:	f7ff ff58 	bl	8006c6e <iseos>
 8006dbe:	4603      	mov	r3, r0
 8006dc0:	2b00      	cmp	r3, #0
 8006dc2:	d108      	bne.n	8006dd6 <skipWs+0x3c>
 8006dc4:	687b      	ldr	r3, [r7, #4]
 8006dc6:	685b      	ldr	r3, [r3, #4]
 8006dc8:	781b      	ldrb	r3, [r3, #0]
 8006dca:	4618      	mov	r0, r3
 8006dcc:	f7ff ff04 	bl	8006bd8 <isws>
 8006dd0:	4603      	mov	r3, r0
 8006dd2:	2b00      	cmp	r3, #0
 8006dd4:	d1e8      	bne.n	8006da8 <skipWs+0xe>
 8006dd6:	68fb      	ldr	r3, [r7, #12]
 8006dd8:	4618      	mov	r0, r3
 8006dda:	3710      	adds	r7, #16
 8006ddc:	46bd      	mov	sp, r7
 8006dde:	bd80      	pop	{r7, pc}

08006de0 <skipDigit>:
 8006de0:	b580      	push	{r7, lr}
 8006de2:	b082      	sub	sp, #8
 8006de4:	af00      	add	r7, sp, #0
 8006de6:	6078      	str	r0, [r7, #4]
 8006de8:	6878      	ldr	r0, [r7, #4]
 8006dea:	f7ff ff40 	bl	8006c6e <iseos>
 8006dee:	4603      	mov	r3, r0
 8006df0:	2b00      	cmp	r3, #0
 8006df2:	d111      	bne.n	8006e18 <skipDigit+0x38>
 8006df4:	687b      	ldr	r3, [r7, #4]
 8006df6:	685b      	ldr	r3, [r3, #4]
 8006df8:	781b      	ldrb	r3, [r3, #0]
 8006dfa:	3301      	adds	r3, #1
 8006dfc:	4a09      	ldr	r2, [pc, #36]	@ (8006e24 <skipDigit+0x44>)
 8006dfe:	4413      	add	r3, r2
 8006e00:	781b      	ldrb	r3, [r3, #0]
 8006e02:	f003 0304 	and.w	r3, r3, #4
 8006e06:	2b00      	cmp	r3, #0
 8006e08:	d006      	beq.n	8006e18 <skipDigit+0x38>
 8006e0a:	687b      	ldr	r3, [r7, #4]
 8006e0c:	685b      	ldr	r3, [r3, #4]
 8006e0e:	1c5a      	adds	r2, r3, #1
 8006e10:	687b      	ldr	r3, [r7, #4]
 8006e12:	605a      	str	r2, [r3, #4]
 8006e14:	2301      	movs	r3, #1
 8006e16:	e000      	b.n	8006e1a <skipDigit+0x3a>
 8006e18:	2300      	movs	r3, #0
 8006e1a:	4618      	mov	r0, r3
 8006e1c:	3708      	adds	r7, #8
 8006e1e:	46bd      	mov	sp, r7
 8006e20:	bd80      	pop	{r7, pc}
 8006e22:	bf00      	nop
 8006e24:	0800c348 	.word	0x0800c348

08006e28 <skipNumbers>:
 8006e28:	b580      	push	{r7, lr}
 8006e2a:	b084      	sub	sp, #16
 8006e2c:	af00      	add	r7, sp, #0
 8006e2e:	6078      	str	r0, [r7, #4]
 8006e30:	2300      	movs	r3, #0
 8006e32:	60fb      	str	r3, [r7, #12]
 8006e34:	e007      	b.n	8006e46 <skipNumbers+0x1e>
 8006e36:	687b      	ldr	r3, [r7, #4]
 8006e38:	685b      	ldr	r3, [r3, #4]
 8006e3a:	1c5a      	adds	r2, r3, #1
 8006e3c:	687b      	ldr	r3, [r7, #4]
 8006e3e:	605a      	str	r2, [r3, #4]
 8006e40:	68fb      	ldr	r3, [r7, #12]
 8006e42:	3301      	adds	r3, #1
 8006e44:	60fb      	str	r3, [r7, #12]
 8006e46:	6878      	ldr	r0, [r7, #4]
 8006e48:	f7ff ff11 	bl	8006c6e <iseos>
 8006e4c:	4603      	mov	r3, r0
 8006e4e:	2b00      	cmp	r3, #0
 8006e50:	d10a      	bne.n	8006e68 <skipNumbers+0x40>
 8006e52:	687b      	ldr	r3, [r7, #4]
 8006e54:	685b      	ldr	r3, [r3, #4]
 8006e56:	781b      	ldrb	r3, [r3, #0]
 8006e58:	3301      	adds	r3, #1
 8006e5a:	4a06      	ldr	r2, [pc, #24]	@ (8006e74 <skipNumbers+0x4c>)
 8006e5c:	4413      	add	r3, r2
 8006e5e:	781b      	ldrb	r3, [r3, #0]
 8006e60:	f003 0304 	and.w	r3, r3, #4
 8006e64:	2b00      	cmp	r3, #0
 8006e66:	d1e6      	bne.n	8006e36 <skipNumbers+0xe>
 8006e68:	68fb      	ldr	r3, [r7, #12]
 8006e6a:	4618      	mov	r0, r3
 8006e6c:	3710      	adds	r7, #16
 8006e6e:	46bd      	mov	sp, r7
 8006e70:	bd80      	pop	{r7, pc}
 8006e72:	bf00      	nop
 8006e74:	0800c348 	.word	0x0800c348

08006e78 <skipPlusmn>:
 8006e78:	b580      	push	{r7, lr}
 8006e7a:	b082      	sub	sp, #8
 8006e7c:	af00      	add	r7, sp, #0
 8006e7e:	6078      	str	r0, [r7, #4]
 8006e80:	6878      	ldr	r0, [r7, #4]
 8006e82:	f7ff fef4 	bl	8006c6e <iseos>
 8006e86:	4603      	mov	r3, r0
 8006e88:	2b00      	cmp	r3, #0
 8006e8a:	d10f      	bne.n	8006eac <skipPlusmn+0x34>
 8006e8c:	687b      	ldr	r3, [r7, #4]
 8006e8e:	685b      	ldr	r3, [r3, #4]
 8006e90:	781b      	ldrb	r3, [r3, #0]
 8006e92:	4618      	mov	r0, r3
 8006e94:	f7ff ff22 	bl	8006cdc <isplusmn>
 8006e98:	4603      	mov	r3, r0
 8006e9a:	2b00      	cmp	r3, #0
 8006e9c:	d006      	beq.n	8006eac <skipPlusmn+0x34>
 8006e9e:	687b      	ldr	r3, [r7, #4]
 8006ea0:	685b      	ldr	r3, [r3, #4]
 8006ea2:	1c5a      	adds	r2, r3, #1
 8006ea4:	687b      	ldr	r3, [r7, #4]
 8006ea6:	605a      	str	r2, [r3, #4]
 8006ea8:	2301      	movs	r3, #1
 8006eaa:	e000      	b.n	8006eae <skipPlusmn+0x36>
 8006eac:	2300      	movs	r3, #0
 8006eae:	4618      	mov	r0, r3
 8006eb0:	3708      	adds	r7, #8
 8006eb2:	46bd      	mov	sp, r7
 8006eb4:	bd80      	pop	{r7, pc}
	...

08006eb8 <skipAlpha>:
 8006eb8:	b580      	push	{r7, lr}
 8006eba:	b084      	sub	sp, #16
 8006ebc:	af00      	add	r7, sp, #0
 8006ebe:	6078      	str	r0, [r7, #4]
 8006ec0:	2300      	movs	r3, #0
 8006ec2:	60fb      	str	r3, [r7, #12]
 8006ec4:	e007      	b.n	8006ed6 <skipAlpha+0x1e>
 8006ec6:	687b      	ldr	r3, [r7, #4]
 8006ec8:	685b      	ldr	r3, [r3, #4]
 8006eca:	1c5a      	adds	r2, r3, #1
 8006ecc:	687b      	ldr	r3, [r7, #4]
 8006ece:	605a      	str	r2, [r3, #4]
 8006ed0:	68fb      	ldr	r3, [r7, #12]
 8006ed2:	3301      	adds	r3, #1
 8006ed4:	60fb      	str	r3, [r7, #12]
 8006ed6:	6878      	ldr	r0, [r7, #4]
 8006ed8:	f7ff fec9 	bl	8006c6e <iseos>
 8006edc:	4603      	mov	r3, r0
 8006ede:	2b00      	cmp	r3, #0
 8006ee0:	d10a      	bne.n	8006ef8 <skipAlpha+0x40>
 8006ee2:	687b      	ldr	r3, [r7, #4]
 8006ee4:	685b      	ldr	r3, [r3, #4]
 8006ee6:	781b      	ldrb	r3, [r3, #0]
 8006ee8:	3301      	adds	r3, #1
 8006eea:	4a06      	ldr	r2, [pc, #24]	@ (8006f04 <skipAlpha+0x4c>)
 8006eec:	4413      	add	r3, r2
 8006eee:	781b      	ldrb	r3, [r3, #0]
 8006ef0:	f003 0303 	and.w	r3, r3, #3
 8006ef4:	2b00      	cmp	r3, #0
 8006ef6:	d1e6      	bne.n	8006ec6 <skipAlpha+0xe>
 8006ef8:	68fb      	ldr	r3, [r7, #12]
 8006efa:	4618      	mov	r0, r3
 8006efc:	3710      	adds	r7, #16
 8006efe:	46bd      	mov	sp, r7
 8006f00:	bd80      	pop	{r7, pc}
 8006f02:	bf00      	nop
 8006f04:	0800c348 	.word	0x0800c348

08006f08 <skipChr>:
 8006f08:	b580      	push	{r7, lr}
 8006f0a:	b082      	sub	sp, #8
 8006f0c:	af00      	add	r7, sp, #0
 8006f0e:	6078      	str	r0, [r7, #4]
 8006f10:	460b      	mov	r3, r1
 8006f12:	70fb      	strb	r3, [r7, #3]
 8006f14:	6878      	ldr	r0, [r7, #4]
 8006f16:	f7ff feaa 	bl	8006c6e <iseos>
 8006f1a:	4603      	mov	r3, r0
 8006f1c:	2b00      	cmp	r3, #0
 8006f1e:	d10e      	bne.n	8006f3e <skipChr+0x36>
 8006f20:	78fb      	ldrb	r3, [r7, #3]
 8006f22:	4619      	mov	r1, r3
 8006f24:	6878      	ldr	r0, [r7, #4]
 8006f26:	f7ff fec4 	bl	8006cb2 <ischr>
 8006f2a:	4603      	mov	r3, r0
 8006f2c:	2b00      	cmp	r3, #0
 8006f2e:	d006      	beq.n	8006f3e <skipChr+0x36>
 8006f30:	687b      	ldr	r3, [r7, #4]
 8006f32:	685b      	ldr	r3, [r3, #4]
 8006f34:	1c5a      	adds	r2, r3, #1
 8006f36:	687b      	ldr	r3, [r7, #4]
 8006f38:	605a      	str	r2, [r3, #4]
 8006f3a:	2301      	movs	r3, #1
 8006f3c:	e000      	b.n	8006f40 <skipChr+0x38>
 8006f3e:	2300      	movs	r3, #0
 8006f40:	4618      	mov	r0, r3
 8006f42:	3708      	adds	r7, #8
 8006f44:	46bd      	mov	sp, r7
 8006f46:	bd80      	pop	{r7, pc}

08006f48 <skipSlashDot>:
 8006f48:	b590      	push	{r4, r7, lr}
 8006f4a:	b083      	sub	sp, #12
 8006f4c:	af00      	add	r7, sp, #0
 8006f4e:	6078      	str	r0, [r7, #4]
 8006f50:	6878      	ldr	r0, [r7, #4]
 8006f52:	f7ff fe8c 	bl	8006c6e <iseos>
 8006f56:	4603      	mov	r3, r0
 8006f58:	2b00      	cmp	r3, #0
 8006f5a:	d113      	bne.n	8006f84 <skipSlashDot+0x3c>
 8006f5c:	212f      	movs	r1, #47	@ 0x2f
 8006f5e:	6878      	ldr	r0, [r7, #4]
 8006f60:	f7ff fea7 	bl	8006cb2 <ischr>
 8006f64:	4604      	mov	r4, r0
 8006f66:	212e      	movs	r1, #46	@ 0x2e
 8006f68:	6878      	ldr	r0, [r7, #4]
 8006f6a:	f7ff fea2 	bl	8006cb2 <ischr>
 8006f6e:	4603      	mov	r3, r0
 8006f70:	4323      	orrs	r3, r4
 8006f72:	2b00      	cmp	r3, #0
 8006f74:	d006      	beq.n	8006f84 <skipSlashDot+0x3c>
 8006f76:	687b      	ldr	r3, [r7, #4]
 8006f78:	685b      	ldr	r3, [r3, #4]
 8006f7a:	1c5a      	adds	r2, r3, #1
 8006f7c:	687b      	ldr	r3, [r7, #4]
 8006f7e:	605a      	str	r2, [r3, #4]
 8006f80:	2301      	movs	r3, #1
 8006f82:	e000      	b.n	8006f86 <skipSlashDot+0x3e>
 8006f84:	2300      	movs	r3, #0
 8006f86:	4618      	mov	r0, r3
 8006f88:	370c      	adds	r7, #12
 8006f8a:	46bd      	mov	sp, r7
 8006f8c:	bd90      	pop	{r4, r7, pc}

08006f8e <skipStar>:
 8006f8e:	b580      	push	{r7, lr}
 8006f90:	b082      	sub	sp, #8
 8006f92:	af00      	add	r7, sp, #0
 8006f94:	6078      	str	r0, [r7, #4]
 8006f96:	6878      	ldr	r0, [r7, #4]
 8006f98:	f7ff fe69 	bl	8006c6e <iseos>
 8006f9c:	4603      	mov	r3, r0
 8006f9e:	2b00      	cmp	r3, #0
 8006fa0:	d10d      	bne.n	8006fbe <skipStar+0x30>
 8006fa2:	212a      	movs	r1, #42	@ 0x2a
 8006fa4:	6878      	ldr	r0, [r7, #4]
 8006fa6:	f7ff fe84 	bl	8006cb2 <ischr>
 8006faa:	4603      	mov	r3, r0
 8006fac:	2b00      	cmp	r3, #0
 8006fae:	d006      	beq.n	8006fbe <skipStar+0x30>
 8006fb0:	687b      	ldr	r3, [r7, #4]
 8006fb2:	685b      	ldr	r3, [r3, #4]
 8006fb4:	1c5a      	adds	r2, r3, #1
 8006fb6:	687b      	ldr	r3, [r7, #4]
 8006fb8:	605a      	str	r2, [r3, #4]
 8006fba:	2301      	movs	r3, #1
 8006fbc:	e000      	b.n	8006fc0 <skipStar+0x32>
 8006fbe:	2300      	movs	r3, #0
 8006fc0:	4618      	mov	r0, r3
 8006fc2:	3708      	adds	r7, #8
 8006fc4:	46bd      	mov	sp, r7
 8006fc6:	bd80      	pop	{r7, pc}

08006fc8 <skipColon>:
 8006fc8:	b580      	push	{r7, lr}
 8006fca:	b082      	sub	sp, #8
 8006fcc:	af00      	add	r7, sp, #0
 8006fce:	6078      	str	r0, [r7, #4]
 8006fd0:	6878      	ldr	r0, [r7, #4]
 8006fd2:	f7ff fe4c 	bl	8006c6e <iseos>
 8006fd6:	4603      	mov	r3, r0
 8006fd8:	2b00      	cmp	r3, #0
 8006fda:	d10d      	bne.n	8006ff8 <skipColon+0x30>
 8006fdc:	213a      	movs	r1, #58	@ 0x3a
 8006fde:	6878      	ldr	r0, [r7, #4]
 8006fe0:	f7ff fe67 	bl	8006cb2 <ischr>
 8006fe4:	4603      	mov	r3, r0
 8006fe6:	2b00      	cmp	r3, #0
 8006fe8:	d006      	beq.n	8006ff8 <skipColon+0x30>
 8006fea:	687b      	ldr	r3, [r7, #4]
 8006fec:	685b      	ldr	r3, [r3, #4]
 8006fee:	1c5a      	adds	r2, r3, #1
 8006ff0:	687b      	ldr	r3, [r7, #4]
 8006ff2:	605a      	str	r2, [r3, #4]
 8006ff4:	2301      	movs	r3, #1
 8006ff6:	e000      	b.n	8006ffa <skipColon+0x32>
 8006ff8:	2300      	movs	r3, #0
 8006ffa:	4618      	mov	r0, r3
 8006ffc:	3708      	adds	r7, #8
 8006ffe:	46bd      	mov	sp, r7
 8007000:	bd80      	pop	{r7, pc}
	...

08007004 <skipProgramMnemonic>:
 8007004:	b580      	push	{r7, lr}
 8007006:	b084      	sub	sp, #16
 8007008:	af00      	add	r7, sp, #0
 800700a:	6078      	str	r0, [r7, #4]
 800700c:	687b      	ldr	r3, [r7, #4]
 800700e:	685b      	ldr	r3, [r3, #4]
 8007010:	60fb      	str	r3, [r7, #12]
 8007012:	6878      	ldr	r0, [r7, #4]
 8007014:	f7ff fe2b 	bl	8006c6e <iseos>
 8007018:	4603      	mov	r3, r0
 800701a:	2b00      	cmp	r3, #0
 800701c:	d12d      	bne.n	800707a <skipProgramMnemonic+0x76>
 800701e:	687b      	ldr	r3, [r7, #4]
 8007020:	685b      	ldr	r3, [r3, #4]
 8007022:	781b      	ldrb	r3, [r3, #0]
 8007024:	3301      	adds	r3, #1
 8007026:	4a1e      	ldr	r2, [pc, #120]	@ (80070a0 <skipProgramMnemonic+0x9c>)
 8007028:	4413      	add	r3, r2
 800702a:	781b      	ldrb	r3, [r3, #0]
 800702c:	f003 0303 	and.w	r3, r3, #3
 8007030:	2b00      	cmp	r3, #0
 8007032:	d022      	beq.n	800707a <skipProgramMnemonic+0x76>
 8007034:	687b      	ldr	r3, [r7, #4]
 8007036:	685b      	ldr	r3, [r3, #4]
 8007038:	1c5a      	adds	r2, r3, #1
 800703a:	687b      	ldr	r3, [r7, #4]
 800703c:	605a      	str	r2, [r3, #4]
 800703e:	e004      	b.n	800704a <skipProgramMnemonic+0x46>
 8007040:	687b      	ldr	r3, [r7, #4]
 8007042:	685b      	ldr	r3, [r3, #4]
 8007044:	1c5a      	adds	r2, r3, #1
 8007046:	687b      	ldr	r3, [r7, #4]
 8007048:	605a      	str	r2, [r3, #4]
 800704a:	6878      	ldr	r0, [r7, #4]
 800704c:	f7ff fe0f 	bl	8006c6e <iseos>
 8007050:	4603      	mov	r3, r0
 8007052:	2b00      	cmp	r3, #0
 8007054:	d111      	bne.n	800707a <skipProgramMnemonic+0x76>
 8007056:	687b      	ldr	r3, [r7, #4]
 8007058:	685b      	ldr	r3, [r3, #4]
 800705a:	781b      	ldrb	r3, [r3, #0]
 800705c:	3301      	adds	r3, #1
 800705e:	4a10      	ldr	r2, [pc, #64]	@ (80070a0 <skipProgramMnemonic+0x9c>)
 8007060:	4413      	add	r3, r2
 8007062:	781b      	ldrb	r3, [r3, #0]
 8007064:	f003 0307 	and.w	r3, r3, #7
 8007068:	2b00      	cmp	r3, #0
 800706a:	d1e9      	bne.n	8007040 <skipProgramMnemonic+0x3c>
 800706c:	215f      	movs	r1, #95	@ 0x5f
 800706e:	6878      	ldr	r0, [r7, #4]
 8007070:	f7ff fe1f 	bl	8006cb2 <ischr>
 8007074:	4603      	mov	r3, r0
 8007076:	2b00      	cmp	r3, #0
 8007078:	d1e2      	bne.n	8007040 <skipProgramMnemonic+0x3c>
 800707a:	6878      	ldr	r0, [r7, #4]
 800707c:	f7ff fdf7 	bl	8006c6e <iseos>
 8007080:	4603      	mov	r3, r0
 8007082:	2b00      	cmp	r3, #0
 8007084:	d004      	beq.n	8007090 <skipProgramMnemonic+0x8c>
 8007086:	687b      	ldr	r3, [r7, #4]
 8007088:	685b      	ldr	r3, [r3, #4]
 800708a:	68fa      	ldr	r2, [r7, #12]
 800708c:	1ad3      	subs	r3, r2, r3
 800708e:	e003      	b.n	8007098 <skipProgramMnemonic+0x94>
 8007090:	687b      	ldr	r3, [r7, #4]
 8007092:	685a      	ldr	r2, [r3, #4]
 8007094:	68fb      	ldr	r3, [r7, #12]
 8007096:	1ad3      	subs	r3, r2, r3
 8007098:	4618      	mov	r0, r3
 800709a:	3710      	adds	r7, #16
 800709c:	46bd      	mov	sp, r7
 800709e:	bd80      	pop	{r7, pc}
 80070a0:	0800c348 	.word	0x0800c348

080070a4 <scpiLex_WhiteSpace>:
 80070a4:	b580      	push	{r7, lr}
 80070a6:	b082      	sub	sp, #8
 80070a8:	af00      	add	r7, sp, #0
 80070aa:	6078      	str	r0, [r7, #4]
 80070ac:	6039      	str	r1, [r7, #0]
 80070ae:	687b      	ldr	r3, [r7, #4]
 80070b0:	685a      	ldr	r2, [r3, #4]
 80070b2:	683b      	ldr	r3, [r7, #0]
 80070b4:	605a      	str	r2, [r3, #4]
 80070b6:	6878      	ldr	r0, [r7, #4]
 80070b8:	f7ff fe6f 	bl	8006d9a <skipWs>
 80070bc:	687b      	ldr	r3, [r7, #4]
 80070be:	685a      	ldr	r2, [r3, #4]
 80070c0:	683b      	ldr	r3, [r7, #0]
 80070c2:	685b      	ldr	r3, [r3, #4]
 80070c4:	1ad2      	subs	r2, r2, r3
 80070c6:	683b      	ldr	r3, [r7, #0]
 80070c8:	609a      	str	r2, [r3, #8]
 80070ca:	683b      	ldr	r3, [r7, #0]
 80070cc:	689b      	ldr	r3, [r3, #8]
 80070ce:	2b00      	cmp	r3, #0
 80070d0:	dd03      	ble.n	80070da <scpiLex_WhiteSpace+0x36>
 80070d2:	683b      	ldr	r3, [r7, #0]
 80070d4:	2217      	movs	r2, #23
 80070d6:	701a      	strb	r2, [r3, #0]
 80070d8:	e002      	b.n	80070e0 <scpiLex_WhiteSpace+0x3c>
 80070da:	683b      	ldr	r3, [r7, #0]
 80070dc:	221a      	movs	r2, #26
 80070de:	701a      	strb	r2, [r3, #0]
 80070e0:	683b      	ldr	r3, [r7, #0]
 80070e2:	689b      	ldr	r3, [r3, #8]
 80070e4:	4618      	mov	r0, r3
 80070e6:	3708      	adds	r7, #8
 80070e8:	46bd      	mov	sp, r7
 80070ea:	bd80      	pop	{r7, pc}

080070ec <skipCommonProgramHeader>:
 80070ec:	b580      	push	{r7, lr}
 80070ee:	b084      	sub	sp, #16
 80070f0:	af00      	add	r7, sp, #0
 80070f2:	6078      	str	r0, [r7, #4]
 80070f4:	6878      	ldr	r0, [r7, #4]
 80070f6:	f7ff ff4a 	bl	8006f8e <skipStar>
 80070fa:	4603      	mov	r3, r0
 80070fc:	2b00      	cmp	r3, #0
 80070fe:	d01c      	beq.n	800713a <skipCommonProgramHeader+0x4e>
 8007100:	6878      	ldr	r0, [r7, #4]
 8007102:	f7ff ff7f 	bl	8007004 <skipProgramMnemonic>
 8007106:	60f8      	str	r0, [r7, #12]
 8007108:	68fb      	ldr	r3, [r7, #12]
 800710a:	2b00      	cmp	r3, #0
 800710c:	d108      	bne.n	8007120 <skipCommonProgramHeader+0x34>
 800710e:	6878      	ldr	r0, [r7, #4]
 8007110:	f7ff fdad 	bl	8006c6e <iseos>
 8007114:	4603      	mov	r3, r0
 8007116:	2b00      	cmp	r3, #0
 8007118:	d002      	beq.n	8007120 <skipCommonProgramHeader+0x34>
 800711a:	f04f 33ff 	mov.w	r3, #4294967295
 800711e:	e00d      	b.n	800713c <skipCommonProgramHeader+0x50>
 8007120:	68fb      	ldr	r3, [r7, #12]
 8007122:	2b00      	cmp	r3, #0
 8007124:	da01      	bge.n	800712a <skipCommonProgramHeader+0x3e>
 8007126:	2301      	movs	r3, #1
 8007128:	e008      	b.n	800713c <skipCommonProgramHeader+0x50>
 800712a:	68fb      	ldr	r3, [r7, #12]
 800712c:	2b00      	cmp	r3, #0
 800712e:	dd01      	ble.n	8007134 <skipCommonProgramHeader+0x48>
 8007130:	2301      	movs	r3, #1
 8007132:	e003      	b.n	800713c <skipCommonProgramHeader+0x50>
 8007134:	f04f 33ff 	mov.w	r3, #4294967295
 8007138:	e000      	b.n	800713c <skipCommonProgramHeader+0x50>
 800713a:	2300      	movs	r3, #0
 800713c:	4618      	mov	r0, r3
 800713e:	3710      	adds	r7, #16
 8007140:	46bd      	mov	sp, r7
 8007142:	bd80      	pop	{r7, pc}

08007144 <skipCompoundProgramHeader>:
 8007144:	b580      	push	{r7, lr}
 8007146:	b084      	sub	sp, #16
 8007148:	af00      	add	r7, sp, #0
 800714a:	6078      	str	r0, [r7, #4]
 800714c:	6878      	ldr	r0, [r7, #4]
 800714e:	f7ff ff3b 	bl	8006fc8 <skipColon>
 8007152:	60f8      	str	r0, [r7, #12]
 8007154:	6878      	ldr	r0, [r7, #4]
 8007156:	f7ff ff55 	bl	8007004 <skipProgramMnemonic>
 800715a:	60b8      	str	r0, [r7, #8]
 800715c:	68bb      	ldr	r3, [r7, #8]
 800715e:	2b00      	cmp	r3, #0
 8007160:	dd17      	ble.n	8007192 <skipCompoundProgramHeader+0x4e>
 8007162:	e00e      	b.n	8007182 <skipCompoundProgramHeader+0x3e>
 8007164:	6878      	ldr	r0, [r7, #4]
 8007166:	f7ff ff4d 	bl	8007004 <skipProgramMnemonic>
 800716a:	60b8      	str	r0, [r7, #8]
 800716c:	68bb      	ldr	r3, [r7, #8]
 800716e:	2b00      	cmp	r3, #0
 8007170:	da01      	bge.n	8007176 <skipCompoundProgramHeader+0x32>
 8007172:	2301      	movs	r3, #1
 8007174:	e019      	b.n	80071aa <skipCompoundProgramHeader+0x66>
 8007176:	68bb      	ldr	r3, [r7, #8]
 8007178:	2b00      	cmp	r3, #0
 800717a:	d102      	bne.n	8007182 <skipCompoundProgramHeader+0x3e>
 800717c:	f04f 33ff 	mov.w	r3, #4294967295
 8007180:	e013      	b.n	80071aa <skipCompoundProgramHeader+0x66>
 8007182:	6878      	ldr	r0, [r7, #4]
 8007184:	f7ff ff20 	bl	8006fc8 <skipColon>
 8007188:	4603      	mov	r3, r0
 800718a:	2b00      	cmp	r3, #0
 800718c:	d1ea      	bne.n	8007164 <skipCompoundProgramHeader+0x20>
 800718e:	2301      	movs	r3, #1
 8007190:	e00b      	b.n	80071aa <skipCompoundProgramHeader+0x66>
 8007192:	68bb      	ldr	r3, [r7, #8]
 8007194:	2b00      	cmp	r3, #0
 8007196:	da01      	bge.n	800719c <skipCompoundProgramHeader+0x58>
 8007198:	2301      	movs	r3, #1
 800719a:	e006      	b.n	80071aa <skipCompoundProgramHeader+0x66>
 800719c:	68fb      	ldr	r3, [r7, #12]
 800719e:	2b00      	cmp	r3, #0
 80071a0:	d002      	beq.n	80071a8 <skipCompoundProgramHeader+0x64>
 80071a2:	f04f 33ff 	mov.w	r3, #4294967295
 80071a6:	e000      	b.n	80071aa <skipCompoundProgramHeader+0x66>
 80071a8:	2300      	movs	r3, #0
 80071aa:	4618      	mov	r0, r3
 80071ac:	3710      	adds	r7, #16
 80071ae:	46bd      	mov	sp, r7
 80071b0:	bd80      	pop	{r7, pc}

080071b2 <scpiLex_ProgramHeader>:
 80071b2:	b580      	push	{r7, lr}
 80071b4:	b084      	sub	sp, #16
 80071b6:	af00      	add	r7, sp, #0
 80071b8:	6078      	str	r0, [r7, #4]
 80071ba:	6039      	str	r1, [r7, #0]
 80071bc:	687b      	ldr	r3, [r7, #4]
 80071be:	685a      	ldr	r2, [r3, #4]
 80071c0:	683b      	ldr	r3, [r7, #0]
 80071c2:	605a      	str	r2, [r3, #4]
 80071c4:	683b      	ldr	r3, [r7, #0]
 80071c6:	221a      	movs	r2, #26
 80071c8:	701a      	strb	r2, [r3, #0]
 80071ca:	6878      	ldr	r0, [r7, #4]
 80071cc:	f7ff ff8e 	bl	80070ec <skipCommonProgramHeader>
 80071d0:	60f8      	str	r0, [r7, #12]
 80071d2:	68fb      	ldr	r3, [r7, #12]
 80071d4:	2b00      	cmp	r3, #0
 80071d6:	dd0e      	ble.n	80071f6 <scpiLex_ProgramHeader+0x44>
 80071d8:	213f      	movs	r1, #63	@ 0x3f
 80071da:	6878      	ldr	r0, [r7, #4]
 80071dc:	f7ff fe94 	bl	8006f08 <skipChr>
 80071e0:	4603      	mov	r3, r0
 80071e2:	2b00      	cmp	r3, #0
 80071e4:	dd03      	ble.n	80071ee <scpiLex_ProgramHeader+0x3c>
 80071e6:	683b      	ldr	r3, [r7, #0]
 80071e8:	2216      	movs	r2, #22
 80071ea:	701a      	strb	r2, [r3, #0]
 80071ec:	e029      	b.n	8007242 <scpiLex_ProgramHeader+0x90>
 80071ee:	683b      	ldr	r3, [r7, #0]
 80071f0:	2213      	movs	r2, #19
 80071f2:	701a      	strb	r2, [r3, #0]
 80071f4:	e025      	b.n	8007242 <scpiLex_ProgramHeader+0x90>
 80071f6:	68fb      	ldr	r3, [r7, #12]
 80071f8:	2b00      	cmp	r3, #0
 80071fa:	da03      	bge.n	8007204 <scpiLex_ProgramHeader+0x52>
 80071fc:	683b      	ldr	r3, [r7, #0]
 80071fe:	2214      	movs	r2, #20
 8007200:	701a      	strb	r2, [r3, #0]
 8007202:	e01e      	b.n	8007242 <scpiLex_ProgramHeader+0x90>
 8007204:	68fb      	ldr	r3, [r7, #12]
 8007206:	2b00      	cmp	r3, #0
 8007208:	d11b      	bne.n	8007242 <scpiLex_ProgramHeader+0x90>
 800720a:	6878      	ldr	r0, [r7, #4]
 800720c:	f7ff ff9a 	bl	8007144 <skipCompoundProgramHeader>
 8007210:	60f8      	str	r0, [r7, #12]
 8007212:	68fb      	ldr	r3, [r7, #12]
 8007214:	2b00      	cmp	r3, #0
 8007216:	dd0e      	ble.n	8007236 <scpiLex_ProgramHeader+0x84>
 8007218:	213f      	movs	r1, #63	@ 0x3f
 800721a:	6878      	ldr	r0, [r7, #4]
 800721c:	f7ff fe74 	bl	8006f08 <skipChr>
 8007220:	4603      	mov	r3, r0
 8007222:	2b00      	cmp	r3, #0
 8007224:	dd03      	ble.n	800722e <scpiLex_ProgramHeader+0x7c>
 8007226:	683b      	ldr	r3, [r7, #0]
 8007228:	2215      	movs	r2, #21
 800722a:	701a      	strb	r2, [r3, #0]
 800722c:	e009      	b.n	8007242 <scpiLex_ProgramHeader+0x90>
 800722e:	683b      	ldr	r3, [r7, #0]
 8007230:	2211      	movs	r2, #17
 8007232:	701a      	strb	r2, [r3, #0]
 8007234:	e005      	b.n	8007242 <scpiLex_ProgramHeader+0x90>
 8007236:	68fb      	ldr	r3, [r7, #12]
 8007238:	2b00      	cmp	r3, #0
 800723a:	da02      	bge.n	8007242 <scpiLex_ProgramHeader+0x90>
 800723c:	683b      	ldr	r3, [r7, #0]
 800723e:	2212      	movs	r2, #18
 8007240:	701a      	strb	r2, [r3, #0]
 8007242:	683b      	ldr	r3, [r7, #0]
 8007244:	781b      	ldrb	r3, [r3, #0]
 8007246:	2b1a      	cmp	r3, #26
 8007248:	d007      	beq.n	800725a <scpiLex_ProgramHeader+0xa8>
 800724a:	687b      	ldr	r3, [r7, #4]
 800724c:	685a      	ldr	r2, [r3, #4]
 800724e:	683b      	ldr	r3, [r7, #0]
 8007250:	685b      	ldr	r3, [r3, #4]
 8007252:	1ad2      	subs	r2, r2, r3
 8007254:	683b      	ldr	r3, [r7, #0]
 8007256:	609a      	str	r2, [r3, #8]
 8007258:	e006      	b.n	8007268 <scpiLex_ProgramHeader+0xb6>
 800725a:	683b      	ldr	r3, [r7, #0]
 800725c:	2200      	movs	r2, #0
 800725e:	609a      	str	r2, [r3, #8]
 8007260:	683b      	ldr	r3, [r7, #0]
 8007262:	685a      	ldr	r2, [r3, #4]
 8007264:	687b      	ldr	r3, [r7, #4]
 8007266:	605a      	str	r2, [r3, #4]
 8007268:	683b      	ldr	r3, [r7, #0]
 800726a:	689b      	ldr	r3, [r3, #8]
 800726c:	4618      	mov	r0, r3
 800726e:	3710      	adds	r7, #16
 8007270:	46bd      	mov	sp, r7
 8007272:	bd80      	pop	{r7, pc}

08007274 <scpiLex_CharacterProgramData>:
 8007274:	b580      	push	{r7, lr}
 8007276:	b082      	sub	sp, #8
 8007278:	af00      	add	r7, sp, #0
 800727a:	6078      	str	r0, [r7, #4]
 800727c:	6039      	str	r1, [r7, #0]
 800727e:	687b      	ldr	r3, [r7, #4]
 8007280:	685a      	ldr	r2, [r3, #4]
 8007282:	683b      	ldr	r3, [r7, #0]
 8007284:	605a      	str	r2, [r3, #4]
 8007286:	6878      	ldr	r0, [r7, #4]
 8007288:	f7ff fcf1 	bl	8006c6e <iseos>
 800728c:	4603      	mov	r3, r0
 800728e:	2b00      	cmp	r3, #0
 8007290:	d12d      	bne.n	80072ee <scpiLex_CharacterProgramData+0x7a>
 8007292:	687b      	ldr	r3, [r7, #4]
 8007294:	685b      	ldr	r3, [r3, #4]
 8007296:	781b      	ldrb	r3, [r3, #0]
 8007298:	3301      	adds	r3, #1
 800729a:	4a21      	ldr	r2, [pc, #132]	@ (8007320 <scpiLex_CharacterProgramData+0xac>)
 800729c:	4413      	add	r3, r2
 800729e:	781b      	ldrb	r3, [r3, #0]
 80072a0:	f003 0303 	and.w	r3, r3, #3
 80072a4:	2b00      	cmp	r3, #0
 80072a6:	d022      	beq.n	80072ee <scpiLex_CharacterProgramData+0x7a>
 80072a8:	687b      	ldr	r3, [r7, #4]
 80072aa:	685b      	ldr	r3, [r3, #4]
 80072ac:	1c5a      	adds	r2, r3, #1
 80072ae:	687b      	ldr	r3, [r7, #4]
 80072b0:	605a      	str	r2, [r3, #4]
 80072b2:	e004      	b.n	80072be <scpiLex_CharacterProgramData+0x4a>
 80072b4:	687b      	ldr	r3, [r7, #4]
 80072b6:	685b      	ldr	r3, [r3, #4]
 80072b8:	1c5a      	adds	r2, r3, #1
 80072ba:	687b      	ldr	r3, [r7, #4]
 80072bc:	605a      	str	r2, [r3, #4]
 80072be:	6878      	ldr	r0, [r7, #4]
 80072c0:	f7ff fcd5 	bl	8006c6e <iseos>
 80072c4:	4603      	mov	r3, r0
 80072c6:	2b00      	cmp	r3, #0
 80072c8:	d111      	bne.n	80072ee <scpiLex_CharacterProgramData+0x7a>
 80072ca:	687b      	ldr	r3, [r7, #4]
 80072cc:	685b      	ldr	r3, [r3, #4]
 80072ce:	781b      	ldrb	r3, [r3, #0]
 80072d0:	3301      	adds	r3, #1
 80072d2:	4a13      	ldr	r2, [pc, #76]	@ (8007320 <scpiLex_CharacterProgramData+0xac>)
 80072d4:	4413      	add	r3, r2
 80072d6:	781b      	ldrb	r3, [r3, #0]
 80072d8:	f003 0307 	and.w	r3, r3, #7
 80072dc:	2b00      	cmp	r3, #0
 80072de:	d1e9      	bne.n	80072b4 <scpiLex_CharacterProgramData+0x40>
 80072e0:	215f      	movs	r1, #95	@ 0x5f
 80072e2:	6878      	ldr	r0, [r7, #4]
 80072e4:	f7ff fce5 	bl	8006cb2 <ischr>
 80072e8:	4603      	mov	r3, r0
 80072ea:	2b00      	cmp	r3, #0
 80072ec:	d1e2      	bne.n	80072b4 <scpiLex_CharacterProgramData+0x40>
 80072ee:	687b      	ldr	r3, [r7, #4]
 80072f0:	685a      	ldr	r2, [r3, #4]
 80072f2:	683b      	ldr	r3, [r7, #0]
 80072f4:	685b      	ldr	r3, [r3, #4]
 80072f6:	1ad2      	subs	r2, r2, r3
 80072f8:	683b      	ldr	r3, [r7, #0]
 80072fa:	609a      	str	r2, [r3, #8]
 80072fc:	683b      	ldr	r3, [r7, #0]
 80072fe:	689b      	ldr	r3, [r3, #8]
 8007300:	2b00      	cmp	r3, #0
 8007302:	dd03      	ble.n	800730c <scpiLex_CharacterProgramData+0x98>
 8007304:	683b      	ldr	r3, [r7, #0]
 8007306:	2209      	movs	r2, #9
 8007308:	701a      	strb	r2, [r3, #0]
 800730a:	e002      	b.n	8007312 <scpiLex_CharacterProgramData+0x9e>
 800730c:	683b      	ldr	r3, [r7, #0]
 800730e:	221a      	movs	r2, #26
 8007310:	701a      	strb	r2, [r3, #0]
 8007312:	683b      	ldr	r3, [r7, #0]
 8007314:	689b      	ldr	r3, [r3, #8]
 8007316:	4618      	mov	r0, r3
 8007318:	3708      	adds	r7, #8
 800731a:	46bd      	mov	sp, r7
 800731c:	bd80      	pop	{r7, pc}
 800731e:	bf00      	nop
 8007320:	0800c348 	.word	0x0800c348

08007324 <skipMantisa>:
 8007324:	b580      	push	{r7, lr}
 8007326:	b084      	sub	sp, #16
 8007328:	af00      	add	r7, sp, #0
 800732a:	6078      	str	r0, [r7, #4]
 800732c:	2300      	movs	r3, #0
 800732e:	60fb      	str	r3, [r7, #12]
 8007330:	6878      	ldr	r0, [r7, #4]
 8007332:	f7ff fda1 	bl	8006e78 <skipPlusmn>
 8007336:	6878      	ldr	r0, [r7, #4]
 8007338:	f7ff fd76 	bl	8006e28 <skipNumbers>
 800733c:	4602      	mov	r2, r0
 800733e:	68fb      	ldr	r3, [r7, #12]
 8007340:	4413      	add	r3, r2
 8007342:	60fb      	str	r3, [r7, #12]
 8007344:	212e      	movs	r1, #46	@ 0x2e
 8007346:	6878      	ldr	r0, [r7, #4]
 8007348:	f7ff fdde 	bl	8006f08 <skipChr>
 800734c:	4603      	mov	r3, r0
 800734e:	2b00      	cmp	r3, #0
 8007350:	d006      	beq.n	8007360 <skipMantisa+0x3c>
 8007352:	6878      	ldr	r0, [r7, #4]
 8007354:	f7ff fd68 	bl	8006e28 <skipNumbers>
 8007358:	4602      	mov	r2, r0
 800735a:	68fb      	ldr	r3, [r7, #12]
 800735c:	4413      	add	r3, r2
 800735e:	60fb      	str	r3, [r7, #12]
 8007360:	68fb      	ldr	r3, [r7, #12]
 8007362:	4618      	mov	r0, r3
 8007364:	3710      	adds	r7, #16
 8007366:	46bd      	mov	sp, r7
 8007368:	bd80      	pop	{r7, pc}

0800736a <skipExponent>:
 800736a:	b580      	push	{r7, lr}
 800736c:	b084      	sub	sp, #16
 800736e:	af00      	add	r7, sp, #0
 8007370:	6078      	str	r0, [r7, #4]
 8007372:	2300      	movs	r3, #0
 8007374:	60fb      	str	r3, [r7, #12]
 8007376:	6878      	ldr	r0, [r7, #4]
 8007378:	f7ff fc79 	bl	8006c6e <iseos>
 800737c:	4603      	mov	r3, r0
 800737e:	2b00      	cmp	r3, #0
 8007380:	d117      	bne.n	80073b2 <skipExponent+0x48>
 8007382:	687b      	ldr	r3, [r7, #4]
 8007384:	685b      	ldr	r3, [r3, #4]
 8007386:	781b      	ldrb	r3, [r3, #0]
 8007388:	4618      	mov	r0, r3
 800738a:	f7ff fcf3 	bl	8006d74 <isE>
 800738e:	4603      	mov	r3, r0
 8007390:	2b00      	cmp	r3, #0
 8007392:	d00e      	beq.n	80073b2 <skipExponent+0x48>
 8007394:	687b      	ldr	r3, [r7, #4]
 8007396:	685b      	ldr	r3, [r3, #4]
 8007398:	1c5a      	adds	r2, r3, #1
 800739a:	687b      	ldr	r3, [r7, #4]
 800739c:	605a      	str	r2, [r3, #4]
 800739e:	6878      	ldr	r0, [r7, #4]
 80073a0:	f7ff fcfb 	bl	8006d9a <skipWs>
 80073a4:	6878      	ldr	r0, [r7, #4]
 80073a6:	f7ff fd67 	bl	8006e78 <skipPlusmn>
 80073aa:	6878      	ldr	r0, [r7, #4]
 80073ac:	f7ff fd3c 	bl	8006e28 <skipNumbers>
 80073b0:	60f8      	str	r0, [r7, #12]
 80073b2:	68fb      	ldr	r3, [r7, #12]
 80073b4:	4618      	mov	r0, r3
 80073b6:	3710      	adds	r7, #16
 80073b8:	46bd      	mov	sp, r7
 80073ba:	bd80      	pop	{r7, pc}

080073bc <scpiLex_DecimalNumericProgramData>:
 80073bc:	b580      	push	{r7, lr}
 80073be:	b084      	sub	sp, #16
 80073c0:	af00      	add	r7, sp, #0
 80073c2:	6078      	str	r0, [r7, #4]
 80073c4:	6039      	str	r1, [r7, #0]
 80073c6:	687b      	ldr	r3, [r7, #4]
 80073c8:	685a      	ldr	r2, [r3, #4]
 80073ca:	683b      	ldr	r3, [r7, #0]
 80073cc:	605a      	str	r2, [r3, #4]
 80073ce:	6878      	ldr	r0, [r7, #4]
 80073d0:	f7ff ffa8 	bl	8007324 <skipMantisa>
 80073d4:	4603      	mov	r3, r0
 80073d6:	2b00      	cmp	r3, #0
 80073d8:	d00f      	beq.n	80073fa <scpiLex_DecimalNumericProgramData+0x3e>
 80073da:	687b      	ldr	r3, [r7, #4]
 80073dc:	685b      	ldr	r3, [r3, #4]
 80073de:	60fb      	str	r3, [r7, #12]
 80073e0:	6878      	ldr	r0, [r7, #4]
 80073e2:	f7ff fcda 	bl	8006d9a <skipWs>
 80073e6:	6878      	ldr	r0, [r7, #4]
 80073e8:	f7ff ffbf 	bl	800736a <skipExponent>
 80073ec:	4603      	mov	r3, r0
 80073ee:	2b00      	cmp	r3, #0
 80073f0:	d107      	bne.n	8007402 <scpiLex_DecimalNumericProgramData+0x46>
 80073f2:	687b      	ldr	r3, [r7, #4]
 80073f4:	68fa      	ldr	r2, [r7, #12]
 80073f6:	605a      	str	r2, [r3, #4]
 80073f8:	e003      	b.n	8007402 <scpiLex_DecimalNumericProgramData+0x46>
 80073fa:	683b      	ldr	r3, [r7, #0]
 80073fc:	685a      	ldr	r2, [r3, #4]
 80073fe:	687b      	ldr	r3, [r7, #4]
 8007400:	605a      	str	r2, [r3, #4]
 8007402:	687b      	ldr	r3, [r7, #4]
 8007404:	685a      	ldr	r2, [r3, #4]
 8007406:	683b      	ldr	r3, [r7, #0]
 8007408:	685b      	ldr	r3, [r3, #4]
 800740a:	1ad2      	subs	r2, r2, r3
 800740c:	683b      	ldr	r3, [r7, #0]
 800740e:	609a      	str	r2, [r3, #8]
 8007410:	683b      	ldr	r3, [r7, #0]
 8007412:	689b      	ldr	r3, [r3, #8]
 8007414:	2b00      	cmp	r3, #0
 8007416:	dd03      	ble.n	8007420 <scpiLex_DecimalNumericProgramData+0x64>
 8007418:	683b      	ldr	r3, [r7, #0]
 800741a:	220a      	movs	r2, #10
 800741c:	701a      	strb	r2, [r3, #0]
 800741e:	e002      	b.n	8007426 <scpiLex_DecimalNumericProgramData+0x6a>
 8007420:	683b      	ldr	r3, [r7, #0]
 8007422:	221a      	movs	r2, #26
 8007424:	701a      	strb	r2, [r3, #0]
 8007426:	683b      	ldr	r3, [r7, #0]
 8007428:	689b      	ldr	r3, [r3, #8]
 800742a:	4618      	mov	r0, r3
 800742c:	3710      	adds	r7, #16
 800742e:	46bd      	mov	sp, r7
 8007430:	bd80      	pop	{r7, pc}

08007432 <scpiLex_SuffixProgramData>:
 8007432:	b580      	push	{r7, lr}
 8007434:	b082      	sub	sp, #8
 8007436:	af00      	add	r7, sp, #0
 8007438:	6078      	str	r0, [r7, #4]
 800743a:	6039      	str	r1, [r7, #0]
 800743c:	687b      	ldr	r3, [r7, #4]
 800743e:	685a      	ldr	r2, [r3, #4]
 8007440:	683b      	ldr	r3, [r7, #0]
 8007442:	605a      	str	r2, [r3, #4]
 8007444:	212f      	movs	r1, #47	@ 0x2f
 8007446:	6878      	ldr	r0, [r7, #4]
 8007448:	f7ff fd5e 	bl	8006f08 <skipChr>
 800744c:	6878      	ldr	r0, [r7, #4]
 800744e:	f7ff fd33 	bl	8006eb8 <skipAlpha>
 8007452:	4603      	mov	r3, r0
 8007454:	2b00      	cmp	r3, #0
 8007456:	d017      	beq.n	8007488 <scpiLex_SuffixProgramData+0x56>
 8007458:	212d      	movs	r1, #45	@ 0x2d
 800745a:	6878      	ldr	r0, [r7, #4]
 800745c:	f7ff fd54 	bl	8006f08 <skipChr>
 8007460:	6878      	ldr	r0, [r7, #4]
 8007462:	f7ff fcbd 	bl	8006de0 <skipDigit>
 8007466:	e009      	b.n	800747c <scpiLex_SuffixProgramData+0x4a>
 8007468:	6878      	ldr	r0, [r7, #4]
 800746a:	f7ff fd25 	bl	8006eb8 <skipAlpha>
 800746e:	212d      	movs	r1, #45	@ 0x2d
 8007470:	6878      	ldr	r0, [r7, #4]
 8007472:	f7ff fd49 	bl	8006f08 <skipChr>
 8007476:	6878      	ldr	r0, [r7, #4]
 8007478:	f7ff fcb2 	bl	8006de0 <skipDigit>
 800747c:	6878      	ldr	r0, [r7, #4]
 800747e:	f7ff fd63 	bl	8006f48 <skipSlashDot>
 8007482:	4603      	mov	r3, r0
 8007484:	2b00      	cmp	r3, #0
 8007486:	d1ef      	bne.n	8007468 <scpiLex_SuffixProgramData+0x36>
 8007488:	687b      	ldr	r3, [r7, #4]
 800748a:	685a      	ldr	r2, [r3, #4]
 800748c:	683b      	ldr	r3, [r7, #0]
 800748e:	685b      	ldr	r3, [r3, #4]
 8007490:	1ad2      	subs	r2, r2, r3
 8007492:	683b      	ldr	r3, [r7, #0]
 8007494:	609a      	str	r2, [r3, #8]
 8007496:	683b      	ldr	r3, [r7, #0]
 8007498:	689b      	ldr	r3, [r3, #8]
 800749a:	2b00      	cmp	r3, #0
 800749c:	dd03      	ble.n	80074a6 <scpiLex_SuffixProgramData+0x74>
 800749e:	683b      	ldr	r3, [r7, #0]
 80074a0:	220c      	movs	r2, #12
 80074a2:	701a      	strb	r2, [r3, #0]
 80074a4:	e009      	b.n	80074ba <scpiLex_SuffixProgramData+0x88>
 80074a6:	683b      	ldr	r3, [r7, #0]
 80074a8:	221a      	movs	r2, #26
 80074aa:	701a      	strb	r2, [r3, #0]
 80074ac:	683b      	ldr	r3, [r7, #0]
 80074ae:	685a      	ldr	r2, [r3, #4]
 80074b0:	687b      	ldr	r3, [r7, #4]
 80074b2:	605a      	str	r2, [r3, #4]
 80074b4:	683b      	ldr	r3, [r7, #0]
 80074b6:	2200      	movs	r2, #0
 80074b8:	609a      	str	r2, [r3, #8]
 80074ba:	683b      	ldr	r3, [r7, #0]
 80074bc:	689b      	ldr	r3, [r3, #8]
 80074be:	4618      	mov	r0, r3
 80074c0:	3708      	adds	r7, #8
 80074c2:	46bd      	mov	sp, r7
 80074c4:	bd80      	pop	{r7, pc}
	...

080074c8 <skipHexNum>:
 80074c8:	b580      	push	{r7, lr}
 80074ca:	b084      	sub	sp, #16
 80074cc:	af00      	add	r7, sp, #0
 80074ce:	6078      	str	r0, [r7, #4]
 80074d0:	2300      	movs	r3, #0
 80074d2:	60fb      	str	r3, [r7, #12]
 80074d4:	e007      	b.n	80074e6 <skipHexNum+0x1e>
 80074d6:	687b      	ldr	r3, [r7, #4]
 80074d8:	685b      	ldr	r3, [r3, #4]
 80074da:	1c5a      	adds	r2, r3, #1
 80074dc:	687b      	ldr	r3, [r7, #4]
 80074de:	605a      	str	r2, [r3, #4]
 80074e0:	68fb      	ldr	r3, [r7, #12]
 80074e2:	3301      	adds	r3, #1
 80074e4:	60fb      	str	r3, [r7, #12]
 80074e6:	6878      	ldr	r0, [r7, #4]
 80074e8:	f7ff fbc1 	bl	8006c6e <iseos>
 80074ec:	4603      	mov	r3, r0
 80074ee:	2b00      	cmp	r3, #0
 80074f0:	d10a      	bne.n	8007508 <skipHexNum+0x40>
 80074f2:	687b      	ldr	r3, [r7, #4]
 80074f4:	685b      	ldr	r3, [r3, #4]
 80074f6:	781b      	ldrb	r3, [r3, #0]
 80074f8:	3301      	adds	r3, #1
 80074fa:	4a06      	ldr	r2, [pc, #24]	@ (8007514 <skipHexNum+0x4c>)
 80074fc:	4413      	add	r3, r2
 80074fe:	781b      	ldrb	r3, [r3, #0]
 8007500:	f003 0344 	and.w	r3, r3, #68	@ 0x44
 8007504:	2b00      	cmp	r3, #0
 8007506:	d1e6      	bne.n	80074d6 <skipHexNum+0xe>
 8007508:	68fb      	ldr	r3, [r7, #12]
 800750a:	4618      	mov	r0, r3
 800750c:	3710      	adds	r7, #16
 800750e:	46bd      	mov	sp, r7
 8007510:	bd80      	pop	{r7, pc}
 8007512:	bf00      	nop
 8007514:	0800c348 	.word	0x0800c348

08007518 <skipOctNum>:
 8007518:	b580      	push	{r7, lr}
 800751a:	b084      	sub	sp, #16
 800751c:	af00      	add	r7, sp, #0
 800751e:	6078      	str	r0, [r7, #4]
 8007520:	2300      	movs	r3, #0
 8007522:	60fb      	str	r3, [r7, #12]
 8007524:	e007      	b.n	8007536 <skipOctNum+0x1e>
 8007526:	687b      	ldr	r3, [r7, #4]
 8007528:	685b      	ldr	r3, [r3, #4]
 800752a:	1c5a      	adds	r2, r3, #1
 800752c:	687b      	ldr	r3, [r7, #4]
 800752e:	605a      	str	r2, [r3, #4]
 8007530:	68fb      	ldr	r3, [r7, #12]
 8007532:	3301      	adds	r3, #1
 8007534:	60fb      	str	r3, [r7, #12]
 8007536:	6878      	ldr	r0, [r7, #4]
 8007538:	f7ff fb99 	bl	8006c6e <iseos>
 800753c:	4603      	mov	r3, r0
 800753e:	2b00      	cmp	r3, #0
 8007540:	d108      	bne.n	8007554 <skipOctNum+0x3c>
 8007542:	687b      	ldr	r3, [r7, #4]
 8007544:	685b      	ldr	r3, [r3, #4]
 8007546:	781b      	ldrb	r3, [r3, #0]
 8007548:	4618      	mov	r0, r3
 800754a:	f7ff fb6b 	bl	8006c24 <isqdigit>
 800754e:	4603      	mov	r3, r0
 8007550:	2b00      	cmp	r3, #0
 8007552:	d1e8      	bne.n	8007526 <skipOctNum+0xe>
 8007554:	68fb      	ldr	r3, [r7, #12]
 8007556:	4618      	mov	r0, r3
 8007558:	3710      	adds	r7, #16
 800755a:	46bd      	mov	sp, r7
 800755c:	bd80      	pop	{r7, pc}

0800755e <skipBinNum>:
 800755e:	b580      	push	{r7, lr}
 8007560:	b084      	sub	sp, #16
 8007562:	af00      	add	r7, sp, #0
 8007564:	6078      	str	r0, [r7, #4]
 8007566:	2300      	movs	r3, #0
 8007568:	60fb      	str	r3, [r7, #12]
 800756a:	e007      	b.n	800757c <skipBinNum+0x1e>
 800756c:	687b      	ldr	r3, [r7, #4]
 800756e:	685b      	ldr	r3, [r3, #4]
 8007570:	1c5a      	adds	r2, r3, #1
 8007572:	687b      	ldr	r3, [r7, #4]
 8007574:	605a      	str	r2, [r3, #4]
 8007576:	68fb      	ldr	r3, [r7, #12]
 8007578:	3301      	adds	r3, #1
 800757a:	60fb      	str	r3, [r7, #12]
 800757c:	6878      	ldr	r0, [r7, #4]
 800757e:	f7ff fb76 	bl	8006c6e <iseos>
 8007582:	4603      	mov	r3, r0
 8007584:	2b00      	cmp	r3, #0
 8007586:	d108      	bne.n	800759a <skipBinNum+0x3c>
 8007588:	687b      	ldr	r3, [r7, #4]
 800758a:	685b      	ldr	r3, [r3, #4]
 800758c:	781b      	ldrb	r3, [r3, #0]
 800758e:	4618      	mov	r0, r3
 8007590:	f7ff fb35 	bl	8006bfe <isbdigit>
 8007594:	4603      	mov	r3, r0
 8007596:	2b00      	cmp	r3, #0
 8007598:	d1e8      	bne.n	800756c <skipBinNum+0xe>
 800759a:	68fb      	ldr	r3, [r7, #12]
 800759c:	4618      	mov	r0, r3
 800759e:	3710      	adds	r7, #16
 80075a0:	46bd      	mov	sp, r7
 80075a2:	bd80      	pop	{r7, pc}

080075a4 <scpiLex_NondecimalNumericData>:
 80075a4:	b580      	push	{r7, lr}
 80075a6:	b084      	sub	sp, #16
 80075a8:	af00      	add	r7, sp, #0
 80075aa:	6078      	str	r0, [r7, #4]
 80075ac:	6039      	str	r1, [r7, #0]
 80075ae:	2300      	movs	r3, #0
 80075b0:	60fb      	str	r3, [r7, #12]
 80075b2:	687b      	ldr	r3, [r7, #4]
 80075b4:	685a      	ldr	r2, [r3, #4]
 80075b6:	683b      	ldr	r3, [r7, #0]
 80075b8:	605a      	str	r2, [r3, #4]
 80075ba:	2123      	movs	r1, #35	@ 0x23
 80075bc:	6878      	ldr	r0, [r7, #4]
 80075be:	f7ff fca3 	bl	8006f08 <skipChr>
 80075c2:	4603      	mov	r3, r0
 80075c4:	2b00      	cmp	r3, #0
 80075c6:	d046      	beq.n	8007656 <scpiLex_NondecimalNumericData+0xb2>
 80075c8:	6878      	ldr	r0, [r7, #4]
 80075ca:	f7ff fb50 	bl	8006c6e <iseos>
 80075ce:	4603      	mov	r3, r0
 80075d0:	2b00      	cmp	r3, #0
 80075d2:	d140      	bne.n	8007656 <scpiLex_NondecimalNumericData+0xb2>
 80075d4:	687b      	ldr	r3, [r7, #4]
 80075d6:	685b      	ldr	r3, [r3, #4]
 80075d8:	781b      	ldrb	r3, [r3, #0]
 80075da:	4618      	mov	r0, r3
 80075dc:	f7ff fb91 	bl	8006d02 <isH>
 80075e0:	4603      	mov	r3, r0
 80075e2:	2b00      	cmp	r3, #0
 80075e4:	d00c      	beq.n	8007600 <scpiLex_NondecimalNumericData+0x5c>
 80075e6:	687b      	ldr	r3, [r7, #4]
 80075e8:	685b      	ldr	r3, [r3, #4]
 80075ea:	1c5a      	adds	r2, r3, #1
 80075ec:	687b      	ldr	r3, [r7, #4]
 80075ee:	605a      	str	r2, [r3, #4]
 80075f0:	6878      	ldr	r0, [r7, #4]
 80075f2:	f7ff ff69 	bl	80074c8 <skipHexNum>
 80075f6:	60f8      	str	r0, [r7, #12]
 80075f8:	683b      	ldr	r3, [r7, #0]
 80075fa:	2206      	movs	r2, #6
 80075fc:	701a      	strb	r2, [r3, #0]
 80075fe:	e02a      	b.n	8007656 <scpiLex_NondecimalNumericData+0xb2>
 8007600:	687b      	ldr	r3, [r7, #4]
 8007602:	685b      	ldr	r3, [r3, #4]
 8007604:	781b      	ldrb	r3, [r3, #0]
 8007606:	4618      	mov	r0, r3
 8007608:	f7ff fba1 	bl	8006d4e <isQ>
 800760c:	4603      	mov	r3, r0
 800760e:	2b00      	cmp	r3, #0
 8007610:	d00c      	beq.n	800762c <scpiLex_NondecimalNumericData+0x88>
 8007612:	687b      	ldr	r3, [r7, #4]
 8007614:	685b      	ldr	r3, [r3, #4]
 8007616:	1c5a      	adds	r2, r3, #1
 8007618:	687b      	ldr	r3, [r7, #4]
 800761a:	605a      	str	r2, [r3, #4]
 800761c:	6878      	ldr	r0, [r7, #4]
 800761e:	f7ff ff7b 	bl	8007518 <skipOctNum>
 8007622:	60f8      	str	r0, [r7, #12]
 8007624:	683b      	ldr	r3, [r7, #0]
 8007626:	2207      	movs	r2, #7
 8007628:	701a      	strb	r2, [r3, #0]
 800762a:	e014      	b.n	8007656 <scpiLex_NondecimalNumericData+0xb2>
 800762c:	687b      	ldr	r3, [r7, #4]
 800762e:	685b      	ldr	r3, [r3, #4]
 8007630:	781b      	ldrb	r3, [r3, #0]
 8007632:	4618      	mov	r0, r3
 8007634:	f7ff fb78 	bl	8006d28 <isB>
 8007638:	4603      	mov	r3, r0
 800763a:	2b00      	cmp	r3, #0
 800763c:	d00b      	beq.n	8007656 <scpiLex_NondecimalNumericData+0xb2>
 800763e:	687b      	ldr	r3, [r7, #4]
 8007640:	685b      	ldr	r3, [r3, #4]
 8007642:	1c5a      	adds	r2, r3, #1
 8007644:	687b      	ldr	r3, [r7, #4]
 8007646:	605a      	str	r2, [r3, #4]
 8007648:	6878      	ldr	r0, [r7, #4]
 800764a:	f7ff ff88 	bl	800755e <skipBinNum>
 800764e:	60f8      	str	r0, [r7, #12]
 8007650:	683b      	ldr	r3, [r7, #0]
 8007652:	2208      	movs	r2, #8
 8007654:	701a      	strb	r2, [r3, #0]
 8007656:	68fb      	ldr	r3, [r7, #12]
 8007658:	2b00      	cmp	r3, #0
 800765a:	d00c      	beq.n	8007676 <scpiLex_NondecimalNumericData+0xd2>
 800765c:	683b      	ldr	r3, [r7, #0]
 800765e:	685b      	ldr	r3, [r3, #4]
 8007660:	1c9a      	adds	r2, r3, #2
 8007662:	683b      	ldr	r3, [r7, #0]
 8007664:	605a      	str	r2, [r3, #4]
 8007666:	687b      	ldr	r3, [r7, #4]
 8007668:	685a      	ldr	r2, [r3, #4]
 800766a:	683b      	ldr	r3, [r7, #0]
 800766c:	685b      	ldr	r3, [r3, #4]
 800766e:	1ad2      	subs	r2, r2, r3
 8007670:	683b      	ldr	r3, [r7, #0]
 8007672:	609a      	str	r2, [r3, #8]
 8007674:	e009      	b.n	800768a <scpiLex_NondecimalNumericData+0xe6>
 8007676:	683b      	ldr	r3, [r7, #0]
 8007678:	221a      	movs	r2, #26
 800767a:	701a      	strb	r2, [r3, #0]
 800767c:	683b      	ldr	r3, [r7, #0]
 800767e:	685a      	ldr	r2, [r3, #4]
 8007680:	687b      	ldr	r3, [r7, #4]
 8007682:	605a      	str	r2, [r3, #4]
 8007684:	683b      	ldr	r3, [r7, #0]
 8007686:	2200      	movs	r2, #0
 8007688:	609a      	str	r2, [r3, #8]
 800768a:	683b      	ldr	r3, [r7, #0]
 800768c:	689b      	ldr	r3, [r3, #8]
 800768e:	2b00      	cmp	r3, #0
 8007690:	dd03      	ble.n	800769a <scpiLex_NondecimalNumericData+0xf6>
 8007692:	683b      	ldr	r3, [r7, #0]
 8007694:	689b      	ldr	r3, [r3, #8]
 8007696:	3302      	adds	r3, #2
 8007698:	e000      	b.n	800769c <scpiLex_NondecimalNumericData+0xf8>
 800769a:	2300      	movs	r3, #0
 800769c:	4618      	mov	r0, r3
 800769e:	3710      	adds	r7, #16
 80076a0:	46bd      	mov	sp, r7
 80076a2:	bd80      	pop	{r7, pc}

080076a4 <isascii7bit>:
 80076a4:	b480      	push	{r7}
 80076a6:	b083      	sub	sp, #12
 80076a8:	af00      	add	r7, sp, #0
 80076aa:	6078      	str	r0, [r7, #4]
 80076ac:	687b      	ldr	r3, [r7, #4]
 80076ae:	2b00      	cmp	r3, #0
 80076b0:	db04      	blt.n	80076bc <isascii7bit+0x18>
 80076b2:	687b      	ldr	r3, [r7, #4]
 80076b4:	2b7f      	cmp	r3, #127	@ 0x7f
 80076b6:	dc01      	bgt.n	80076bc <isascii7bit+0x18>
 80076b8:	2301      	movs	r3, #1
 80076ba:	e000      	b.n	80076be <isascii7bit+0x1a>
 80076bc:	2300      	movs	r3, #0
 80076be:	4618      	mov	r0, r3
 80076c0:	370c      	adds	r7, #12
 80076c2:	46bd      	mov	sp, r7
 80076c4:	f85d 7b04 	ldr.w	r7, [sp], #4
 80076c8:	4770      	bx	lr

080076ca <skipQuoteProgramData>:
 80076ca:	b580      	push	{r7, lr}
 80076cc:	b082      	sub	sp, #8
 80076ce:	af00      	add	r7, sp, #0
 80076d0:	6078      	str	r0, [r7, #4]
 80076d2:	460b      	mov	r3, r1
 80076d4:	70fb      	strb	r3, [r7, #3]
 80076d6:	e03d      	b.n	8007754 <skipQuoteProgramData+0x8a>
 80076d8:	687b      	ldr	r3, [r7, #4]
 80076da:	685b      	ldr	r3, [r3, #4]
 80076dc:	781b      	ldrb	r3, [r3, #0]
 80076de:	4618      	mov	r0, r3
 80076e0:	f7ff ffe0 	bl	80076a4 <isascii7bit>
 80076e4:	4603      	mov	r3, r0
 80076e6:	2b00      	cmp	r3, #0
 80076e8:	d00d      	beq.n	8007706 <skipQuoteProgramData+0x3c>
 80076ea:	78fb      	ldrb	r3, [r7, #3]
 80076ec:	4619      	mov	r1, r3
 80076ee:	6878      	ldr	r0, [r7, #4]
 80076f0:	f7ff fadf 	bl	8006cb2 <ischr>
 80076f4:	4603      	mov	r3, r0
 80076f6:	2b00      	cmp	r3, #0
 80076f8:	d105      	bne.n	8007706 <skipQuoteProgramData+0x3c>
 80076fa:	687b      	ldr	r3, [r7, #4]
 80076fc:	685b      	ldr	r3, [r3, #4]
 80076fe:	1c5a      	adds	r2, r3, #1
 8007700:	687b      	ldr	r3, [r7, #4]
 8007702:	605a      	str	r2, [r3, #4]
 8007704:	e026      	b.n	8007754 <skipQuoteProgramData+0x8a>
 8007706:	78fb      	ldrb	r3, [r7, #3]
 8007708:	4619      	mov	r1, r3
 800770a:	6878      	ldr	r0, [r7, #4]
 800770c:	f7ff fad1 	bl	8006cb2 <ischr>
 8007710:	4603      	mov	r3, r0
 8007712:	2b00      	cmp	r3, #0
 8007714:	d025      	beq.n	8007762 <skipQuoteProgramData+0x98>
 8007716:	687b      	ldr	r3, [r7, #4]
 8007718:	685b      	ldr	r3, [r3, #4]
 800771a:	1c5a      	adds	r2, r3, #1
 800771c:	687b      	ldr	r3, [r7, #4]
 800771e:	605a      	str	r2, [r3, #4]
 8007720:	6878      	ldr	r0, [r7, #4]
 8007722:	f7ff faa4 	bl	8006c6e <iseos>
 8007726:	4603      	mov	r3, r0
 8007728:	2b00      	cmp	r3, #0
 800772a:	d10d      	bne.n	8007748 <skipQuoteProgramData+0x7e>
 800772c:	78fb      	ldrb	r3, [r7, #3]
 800772e:	4619      	mov	r1, r3
 8007730:	6878      	ldr	r0, [r7, #4]
 8007732:	f7ff fabe 	bl	8006cb2 <ischr>
 8007736:	4603      	mov	r3, r0
 8007738:	2b00      	cmp	r3, #0
 800773a:	d005      	beq.n	8007748 <skipQuoteProgramData+0x7e>
 800773c:	687b      	ldr	r3, [r7, #4]
 800773e:	685b      	ldr	r3, [r3, #4]
 8007740:	1c5a      	adds	r2, r3, #1
 8007742:	687b      	ldr	r3, [r7, #4]
 8007744:	605a      	str	r2, [r3, #4]
 8007746:	e005      	b.n	8007754 <skipQuoteProgramData+0x8a>
 8007748:	687b      	ldr	r3, [r7, #4]
 800774a:	685b      	ldr	r3, [r3, #4]
 800774c:	1e5a      	subs	r2, r3, #1
 800774e:	687b      	ldr	r3, [r7, #4]
 8007750:	605a      	str	r2, [r3, #4]
 8007752:	e007      	b.n	8007764 <skipQuoteProgramData+0x9a>
 8007754:	6878      	ldr	r0, [r7, #4]
 8007756:	f7ff fa8a 	bl	8006c6e <iseos>
 800775a:	4603      	mov	r3, r0
 800775c:	2b00      	cmp	r3, #0
 800775e:	d0bb      	beq.n	80076d8 <skipQuoteProgramData+0xe>
 8007760:	e000      	b.n	8007764 <skipQuoteProgramData+0x9a>
 8007762:	bf00      	nop
 8007764:	bf00      	nop
 8007766:	3708      	adds	r7, #8
 8007768:	46bd      	mov	sp, r7
 800776a:	bd80      	pop	{r7, pc}

0800776c <skipDoubleQuoteProgramData>:
 800776c:	b580      	push	{r7, lr}
 800776e:	b082      	sub	sp, #8
 8007770:	af00      	add	r7, sp, #0
 8007772:	6078      	str	r0, [r7, #4]
 8007774:	2122      	movs	r1, #34	@ 0x22
 8007776:	6878      	ldr	r0, [r7, #4]
 8007778:	f7ff ffa7 	bl	80076ca <skipQuoteProgramData>
 800777c:	bf00      	nop
 800777e:	3708      	adds	r7, #8
 8007780:	46bd      	mov	sp, r7
 8007782:	bd80      	pop	{r7, pc}

08007784 <skipSingleQuoteProgramData>:
 8007784:	b580      	push	{r7, lr}
 8007786:	b082      	sub	sp, #8
 8007788:	af00      	add	r7, sp, #0
 800778a:	6078      	str	r0, [r7, #4]
 800778c:	2127      	movs	r1, #39	@ 0x27
 800778e:	6878      	ldr	r0, [r7, #4]
 8007790:	f7ff ff9b 	bl	80076ca <skipQuoteProgramData>
 8007794:	bf00      	nop
 8007796:	3708      	adds	r7, #8
 8007798:	46bd      	mov	sp, r7
 800779a:	bd80      	pop	{r7, pc}

0800779c <scpiLex_StringProgramData>:
 800779c:	b580      	push	{r7, lr}
 800779e:	b082      	sub	sp, #8
 80077a0:	af00      	add	r7, sp, #0
 80077a2:	6078      	str	r0, [r7, #4]
 80077a4:	6039      	str	r1, [r7, #0]
 80077a6:	687b      	ldr	r3, [r7, #4]
 80077a8:	685a      	ldr	r2, [r3, #4]
 80077aa:	683b      	ldr	r3, [r7, #0]
 80077ac:	605a      	str	r2, [r3, #4]
 80077ae:	6878      	ldr	r0, [r7, #4]
 80077b0:	f7ff fa5d 	bl	8006c6e <iseos>
 80077b4:	4603      	mov	r3, r0
 80077b6:	2b00      	cmp	r3, #0
 80077b8:	d160      	bne.n	800787c <scpiLex_StringProgramData+0xe0>
 80077ba:	2122      	movs	r1, #34	@ 0x22
 80077bc:	6878      	ldr	r0, [r7, #4]
 80077be:	f7ff fa78 	bl	8006cb2 <ischr>
 80077c2:	4603      	mov	r3, r0
 80077c4:	2b00      	cmp	r3, #0
 80077c6:	d029      	beq.n	800781c <scpiLex_StringProgramData+0x80>
 80077c8:	687b      	ldr	r3, [r7, #4]
 80077ca:	685b      	ldr	r3, [r3, #4]
 80077cc:	1c5a      	adds	r2, r3, #1
 80077ce:	687b      	ldr	r3, [r7, #4]
 80077d0:	605a      	str	r2, [r3, #4]
 80077d2:	683b      	ldr	r3, [r7, #0]
 80077d4:	220f      	movs	r2, #15
 80077d6:	701a      	strb	r2, [r3, #0]
 80077d8:	6878      	ldr	r0, [r7, #4]
 80077da:	f7ff ffc7 	bl	800776c <skipDoubleQuoteProgramData>
 80077de:	6878      	ldr	r0, [r7, #4]
 80077e0:	f7ff fa45 	bl	8006c6e <iseos>
 80077e4:	4603      	mov	r3, r0
 80077e6:	2b00      	cmp	r3, #0
 80077e8:	d113      	bne.n	8007812 <scpiLex_StringProgramData+0x76>
 80077ea:	2122      	movs	r1, #34	@ 0x22
 80077ec:	6878      	ldr	r0, [r7, #4]
 80077ee:	f7ff fa60 	bl	8006cb2 <ischr>
 80077f2:	4603      	mov	r3, r0
 80077f4:	2b00      	cmp	r3, #0
 80077f6:	d00c      	beq.n	8007812 <scpiLex_StringProgramData+0x76>
 80077f8:	687b      	ldr	r3, [r7, #4]
 80077fa:	685b      	ldr	r3, [r3, #4]
 80077fc:	1c5a      	adds	r2, r3, #1
 80077fe:	687b      	ldr	r3, [r7, #4]
 8007800:	605a      	str	r2, [r3, #4]
 8007802:	687b      	ldr	r3, [r7, #4]
 8007804:	685a      	ldr	r2, [r3, #4]
 8007806:	683b      	ldr	r3, [r7, #0]
 8007808:	685b      	ldr	r3, [r3, #4]
 800780a:	1ad2      	subs	r2, r2, r3
 800780c:	683b      	ldr	r3, [r7, #0]
 800780e:	609a      	str	r2, [r3, #8]
 8007810:	e034      	b.n	800787c <scpiLex_StringProgramData+0xe0>
 8007812:	683b      	ldr	r3, [r7, #0]
 8007814:	685a      	ldr	r2, [r3, #4]
 8007816:	687b      	ldr	r3, [r7, #4]
 8007818:	605a      	str	r2, [r3, #4]
 800781a:	e02f      	b.n	800787c <scpiLex_StringProgramData+0xe0>
 800781c:	2127      	movs	r1, #39	@ 0x27
 800781e:	6878      	ldr	r0, [r7, #4]
 8007820:	f7ff fa47 	bl	8006cb2 <ischr>
 8007824:	4603      	mov	r3, r0
 8007826:	2b00      	cmp	r3, #0
 8007828:	d028      	beq.n	800787c <scpiLex_StringProgramData+0xe0>
 800782a:	687b      	ldr	r3, [r7, #4]
 800782c:	685b      	ldr	r3, [r3, #4]
 800782e:	1c5a      	adds	r2, r3, #1
 8007830:	687b      	ldr	r3, [r7, #4]
 8007832:	605a      	str	r2, [r3, #4]
 8007834:	683b      	ldr	r3, [r7, #0]
 8007836:	220e      	movs	r2, #14
 8007838:	701a      	strb	r2, [r3, #0]
 800783a:	6878      	ldr	r0, [r7, #4]
 800783c:	f7ff ffa2 	bl	8007784 <skipSingleQuoteProgramData>
 8007840:	6878      	ldr	r0, [r7, #4]
 8007842:	f7ff fa14 	bl	8006c6e <iseos>
 8007846:	4603      	mov	r3, r0
 8007848:	2b00      	cmp	r3, #0
 800784a:	d113      	bne.n	8007874 <scpiLex_StringProgramData+0xd8>
 800784c:	2127      	movs	r1, #39	@ 0x27
 800784e:	6878      	ldr	r0, [r7, #4]
 8007850:	f7ff fa2f 	bl	8006cb2 <ischr>
 8007854:	4603      	mov	r3, r0
 8007856:	2b00      	cmp	r3, #0
 8007858:	d00c      	beq.n	8007874 <scpiLex_StringProgramData+0xd8>
 800785a:	687b      	ldr	r3, [r7, #4]
 800785c:	685b      	ldr	r3, [r3, #4]
 800785e:	1c5a      	adds	r2, r3, #1
 8007860:	687b      	ldr	r3, [r7, #4]
 8007862:	605a      	str	r2, [r3, #4]
 8007864:	687b      	ldr	r3, [r7, #4]
 8007866:	685a      	ldr	r2, [r3, #4]
 8007868:	683b      	ldr	r3, [r7, #0]
 800786a:	685b      	ldr	r3, [r3, #4]
 800786c:	1ad2      	subs	r2, r2, r3
 800786e:	683b      	ldr	r3, [r7, #0]
 8007870:	609a      	str	r2, [r3, #8]
 8007872:	e003      	b.n	800787c <scpiLex_StringProgramData+0xe0>
 8007874:	683b      	ldr	r3, [r7, #0]
 8007876:	685a      	ldr	r2, [r3, #4]
 8007878:	687b      	ldr	r3, [r7, #4]
 800787a:	605a      	str	r2, [r3, #4]
 800787c:	687b      	ldr	r3, [r7, #4]
 800787e:	685a      	ldr	r2, [r3, #4]
 8007880:	683b      	ldr	r3, [r7, #0]
 8007882:	685b      	ldr	r3, [r3, #4]
 8007884:	1ad2      	subs	r2, r2, r3
 8007886:	683b      	ldr	r3, [r7, #0]
 8007888:	609a      	str	r2, [r3, #8]
 800788a:	683b      	ldr	r3, [r7, #0]
 800788c:	689b      	ldr	r3, [r3, #8]
 800788e:	2b00      	cmp	r3, #0
 8007890:	dc09      	bgt.n	80078a6 <scpiLex_StringProgramData+0x10a>
 8007892:	683b      	ldr	r3, [r7, #0]
 8007894:	221a      	movs	r2, #26
 8007896:	701a      	strb	r2, [r3, #0]
 8007898:	683b      	ldr	r3, [r7, #0]
 800789a:	685a      	ldr	r2, [r3, #4]
 800789c:	687b      	ldr	r3, [r7, #4]
 800789e:	605a      	str	r2, [r3, #4]
 80078a0:	683b      	ldr	r3, [r7, #0]
 80078a2:	2200      	movs	r2, #0
 80078a4:	609a      	str	r2, [r3, #8]
 80078a6:	683b      	ldr	r3, [r7, #0]
 80078a8:	689b      	ldr	r3, [r3, #8]
 80078aa:	ea23 73e3 	bic.w	r3, r3, r3, asr #31
 80078ae:	4618      	mov	r0, r3
 80078b0:	3708      	adds	r7, #8
 80078b2:	46bd      	mov	sp, r7
 80078b4:	bd80      	pop	{r7, pc}
	...

080078b8 <isNonzeroDigit>:
 80078b8:	b480      	push	{r7}
 80078ba:	b083      	sub	sp, #12
 80078bc:	af00      	add	r7, sp, #0
 80078be:	6078      	str	r0, [r7, #4]
 80078c0:	687b      	ldr	r3, [r7, #4]
 80078c2:	3301      	adds	r3, #1
 80078c4:	4a09      	ldr	r2, [pc, #36]	@ (80078ec <isNonzeroDigit+0x34>)
 80078c6:	4413      	add	r3, r2
 80078c8:	781b      	ldrb	r3, [r3, #0]
 80078ca:	f003 0304 	and.w	r3, r3, #4
 80078ce:	2b00      	cmp	r3, #0
 80078d0:	d004      	beq.n	80078dc <isNonzeroDigit+0x24>
 80078d2:	687b      	ldr	r3, [r7, #4]
 80078d4:	2b30      	cmp	r3, #48	@ 0x30
 80078d6:	d001      	beq.n	80078dc <isNonzeroDigit+0x24>
 80078d8:	2301      	movs	r3, #1
 80078da:	e000      	b.n	80078de <isNonzeroDigit+0x26>
 80078dc:	2300      	movs	r3, #0
 80078de:	4618      	mov	r0, r3
 80078e0:	370c      	adds	r7, #12
 80078e2:	46bd      	mov	sp, r7
 80078e4:	f85d 7b04 	ldr.w	r7, [sp], #4
 80078e8:	4770      	bx	lr
 80078ea:	bf00      	nop
 80078ec:	0800c348 	.word	0x0800c348

080078f0 <scpiLex_ArbitraryBlockProgramData>:
 80078f0:	b580      	push	{r7, lr}
 80078f2:	b086      	sub	sp, #24
 80078f4:	af00      	add	r7, sp, #0
 80078f6:	6078      	str	r0, [r7, #4]
 80078f8:	6039      	str	r1, [r7, #0]
 80078fa:	2300      	movs	r3, #0
 80078fc:	613b      	str	r3, [r7, #16]
 80078fe:	687b      	ldr	r3, [r7, #4]
 8007900:	685b      	ldr	r3, [r3, #4]
 8007902:	60bb      	str	r3, [r7, #8]
 8007904:	f04f 33ff 	mov.w	r3, #4294967295
 8007908:	60fb      	str	r3, [r7, #12]
 800790a:	687b      	ldr	r3, [r7, #4]
 800790c:	685a      	ldr	r2, [r3, #4]
 800790e:	683b      	ldr	r3, [r7, #0]
 8007910:	605a      	str	r2, [r3, #4]
 8007912:	2123      	movs	r1, #35	@ 0x23
 8007914:	6878      	ldr	r0, [r7, #4]
 8007916:	f7ff faf7 	bl	8006f08 <skipChr>
 800791a:	4603      	mov	r3, r0
 800791c:	2b00      	cmp	r3, #0
 800791e:	d077      	beq.n	8007a10 <scpiLex_ArbitraryBlockProgramData+0x120>
 8007920:	6878      	ldr	r0, [r7, #4]
 8007922:	f7ff f9a4 	bl	8006c6e <iseos>
 8007926:	4603      	mov	r3, r0
 8007928:	2b00      	cmp	r3, #0
 800792a:	d167      	bne.n	80079fc <scpiLex_ArbitraryBlockProgramData+0x10c>
 800792c:	687b      	ldr	r3, [r7, #4]
 800792e:	685b      	ldr	r3, [r3, #4]
 8007930:	781b      	ldrb	r3, [r3, #0]
 8007932:	4618      	mov	r0, r3
 8007934:	f7ff ffc0 	bl	80078b8 <isNonzeroDigit>
 8007938:	4603      	mov	r3, r0
 800793a:	2b00      	cmp	r3, #0
 800793c:	d05e      	beq.n	80079fc <scpiLex_ArbitraryBlockProgramData+0x10c>
 800793e:	687b      	ldr	r3, [r7, #4]
 8007940:	685b      	ldr	r3, [r3, #4]
 8007942:	781b      	ldrb	r3, [r3, #0]
 8007944:	3b30      	subs	r3, #48	@ 0x30
 8007946:	617b      	str	r3, [r7, #20]
 8007948:	687b      	ldr	r3, [r7, #4]
 800794a:	685b      	ldr	r3, [r3, #4]
 800794c:	1c5a      	adds	r2, r3, #1
 800794e:	687b      	ldr	r3, [r7, #4]
 8007950:	605a      	str	r2, [r3, #4]
 8007952:	e025      	b.n	80079a0 <scpiLex_ArbitraryBlockProgramData+0xb0>
 8007954:	6878      	ldr	r0, [r7, #4]
 8007956:	f7ff f98a 	bl	8006c6e <iseos>
 800795a:	4603      	mov	r3, r0
 800795c:	2b00      	cmp	r3, #0
 800795e:	d122      	bne.n	80079a6 <scpiLex_ArbitraryBlockProgramData+0xb6>
 8007960:	687b      	ldr	r3, [r7, #4]
 8007962:	685b      	ldr	r3, [r3, #4]
 8007964:	781b      	ldrb	r3, [r3, #0]
 8007966:	3301      	adds	r3, #1
 8007968:	4a40      	ldr	r2, [pc, #256]	@ (8007a6c <scpiLex_ArbitraryBlockProgramData+0x17c>)
 800796a:	4413      	add	r3, r2
 800796c:	781b      	ldrb	r3, [r3, #0]
 800796e:	f003 0304 	and.w	r3, r3, #4
 8007972:	2b00      	cmp	r3, #0
 8007974:	d017      	beq.n	80079a6 <scpiLex_ArbitraryBlockProgramData+0xb6>
 8007976:	693a      	ldr	r2, [r7, #16]
 8007978:	4613      	mov	r3, r2
 800797a:	009b      	lsls	r3, r3, #2
 800797c:	4413      	add	r3, r2
 800797e:	005b      	lsls	r3, r3, #1
 8007980:	613b      	str	r3, [r7, #16]
 8007982:	687b      	ldr	r3, [r7, #4]
 8007984:	685b      	ldr	r3, [r3, #4]
 8007986:	781b      	ldrb	r3, [r3, #0]
 8007988:	3b30      	subs	r3, #48	@ 0x30
 800798a:	693a      	ldr	r2, [r7, #16]
 800798c:	4413      	add	r3, r2
 800798e:	613b      	str	r3, [r7, #16]
 8007990:	687b      	ldr	r3, [r7, #4]
 8007992:	685b      	ldr	r3, [r3, #4]
 8007994:	1c5a      	adds	r2, r3, #1
 8007996:	687b      	ldr	r3, [r7, #4]
 8007998:	605a      	str	r2, [r3, #4]
 800799a:	697b      	ldr	r3, [r7, #20]
 800799c:	3b01      	subs	r3, #1
 800799e:	617b      	str	r3, [r7, #20]
 80079a0:	697b      	ldr	r3, [r7, #20]
 80079a2:	2b00      	cmp	r3, #0
 80079a4:	dcd6      	bgt.n	8007954 <scpiLex_ArbitraryBlockProgramData+0x64>
 80079a6:	697b      	ldr	r3, [r7, #20]
 80079a8:	2b00      	cmp	r3, #0
 80079aa:	d11e      	bne.n	80079ea <scpiLex_ArbitraryBlockProgramData+0xfa>
 80079ac:	687b      	ldr	r3, [r7, #4]
 80079ae:	685a      	ldr	r2, [r3, #4]
 80079b0:	693b      	ldr	r3, [r7, #16]
 80079b2:	441a      	add	r2, r3
 80079b4:	687b      	ldr	r3, [r7, #4]
 80079b6:	605a      	str	r2, [r3, #4]
 80079b8:	687b      	ldr	r3, [r7, #4]
 80079ba:	681b      	ldr	r3, [r3, #0]
 80079bc:	687a      	ldr	r2, [r7, #4]
 80079be:	6892      	ldr	r2, [r2, #8]
 80079c0:	441a      	add	r2, r3
 80079c2:	687b      	ldr	r3, [r7, #4]
 80079c4:	685b      	ldr	r3, [r3, #4]
 80079c6:	429a      	cmp	r2, r3
 80079c8:	d30c      	bcc.n	80079e4 <scpiLex_ArbitraryBlockProgramData+0xf4>
 80079ca:	687b      	ldr	r3, [r7, #4]
 80079cc:	685a      	ldr	r2, [r3, #4]
 80079ce:	693b      	ldr	r3, [r7, #16]
 80079d0:	425b      	negs	r3, r3
 80079d2:	441a      	add	r2, r3
 80079d4:	683b      	ldr	r3, [r7, #0]
 80079d6:	605a      	str	r2, [r3, #4]
 80079d8:	683b      	ldr	r3, [r7, #0]
 80079da:	693a      	ldr	r2, [r7, #16]
 80079dc:	609a      	str	r2, [r3, #8]
 80079de:	2301      	movs	r3, #1
 80079e0:	60fb      	str	r3, [r7, #12]
 80079e2:	e014      	b.n	8007a0e <scpiLex_ArbitraryBlockProgramData+0x11e>
 80079e4:	2300      	movs	r3, #0
 80079e6:	60fb      	str	r3, [r7, #12]
 80079e8:	e011      	b.n	8007a0e <scpiLex_ArbitraryBlockProgramData+0x11e>
 80079ea:	6878      	ldr	r0, [r7, #4]
 80079ec:	f7ff f93f 	bl	8006c6e <iseos>
 80079f0:	4603      	mov	r3, r0
 80079f2:	2b00      	cmp	r3, #0
 80079f4:	d00b      	beq.n	8007a0e <scpiLex_ArbitraryBlockProgramData+0x11e>
 80079f6:	2300      	movs	r3, #0
 80079f8:	60fb      	str	r3, [r7, #12]
 80079fa:	e008      	b.n	8007a0e <scpiLex_ArbitraryBlockProgramData+0x11e>
 80079fc:	6878      	ldr	r0, [r7, #4]
 80079fe:	f7ff f936 	bl	8006c6e <iseos>
 8007a02:	4603      	mov	r3, r0
 8007a04:	2b00      	cmp	r3, #0
 8007a06:	d003      	beq.n	8007a10 <scpiLex_ArbitraryBlockProgramData+0x120>
 8007a08:	2300      	movs	r3, #0
 8007a0a:	60fb      	str	r3, [r7, #12]
 8007a0c:	e000      	b.n	8007a10 <scpiLex_ArbitraryBlockProgramData+0x120>
 8007a0e:	bf00      	nop
 8007a10:	68fb      	ldr	r3, [r7, #12]
 8007a12:	2b01      	cmp	r3, #1
 8007a14:	d103      	bne.n	8007a1e <scpiLex_ArbitraryBlockProgramData+0x12e>
 8007a16:	683b      	ldr	r3, [r7, #0]
 8007a18:	220d      	movs	r2, #13
 8007a1a:	701a      	strb	r2, [r3, #0]
 8007a1c:	e01a      	b.n	8007a54 <scpiLex_ArbitraryBlockProgramData+0x164>
 8007a1e:	68fb      	ldr	r3, [r7, #12]
 8007a20:	2b00      	cmp	r3, #0
 8007a22:	d10d      	bne.n	8007a40 <scpiLex_ArbitraryBlockProgramData+0x150>
 8007a24:	683b      	ldr	r3, [r7, #0]
 8007a26:	221a      	movs	r2, #26
 8007a28:	701a      	strb	r2, [r3, #0]
 8007a2a:	683b      	ldr	r3, [r7, #0]
 8007a2c:	2200      	movs	r2, #0
 8007a2e:	609a      	str	r2, [r3, #8]
 8007a30:	687b      	ldr	r3, [r7, #4]
 8007a32:	681b      	ldr	r3, [r3, #0]
 8007a34:	687a      	ldr	r2, [r7, #4]
 8007a36:	6892      	ldr	r2, [r2, #8]
 8007a38:	441a      	add	r2, r3
 8007a3a:	687b      	ldr	r3, [r7, #4]
 8007a3c:	605a      	str	r2, [r3, #4]
 8007a3e:	e009      	b.n	8007a54 <scpiLex_ArbitraryBlockProgramData+0x164>
 8007a40:	683b      	ldr	r3, [r7, #0]
 8007a42:	221a      	movs	r2, #26
 8007a44:	701a      	strb	r2, [r3, #0]
 8007a46:	683b      	ldr	r3, [r7, #0]
 8007a48:	685a      	ldr	r2, [r3, #4]
 8007a4a:	687b      	ldr	r3, [r7, #4]
 8007a4c:	605a      	str	r2, [r3, #4]
 8007a4e:	683b      	ldr	r3, [r7, #0]
 8007a50:	2200      	movs	r2, #0
 8007a52:	609a      	str	r2, [r3, #8]
 8007a54:	683b      	ldr	r3, [r7, #0]
 8007a56:	689a      	ldr	r2, [r3, #8]
 8007a58:	683b      	ldr	r3, [r7, #0]
 8007a5a:	6859      	ldr	r1, [r3, #4]
 8007a5c:	68bb      	ldr	r3, [r7, #8]
 8007a5e:	1acb      	subs	r3, r1, r3
 8007a60:	4413      	add	r3, r2
 8007a62:	4618      	mov	r0, r3
 8007a64:	3718      	adds	r7, #24
 8007a66:	46bd      	mov	sp, r7
 8007a68:	bd80      	pop	{r7, pc}
 8007a6a:	bf00      	nop
 8007a6c:	0800c348 	.word	0x0800c348

08007a70 <isProgramExpression>:
 8007a70:	b480      	push	{r7}
 8007a72:	b083      	sub	sp, #12
 8007a74:	af00      	add	r7, sp, #0
 8007a76:	6078      	str	r0, [r7, #4]
 8007a78:	687b      	ldr	r3, [r7, #4]
 8007a7a:	2b1f      	cmp	r3, #31
 8007a7c:	dd16      	ble.n	8007aac <isProgramExpression+0x3c>
 8007a7e:	687b      	ldr	r3, [r7, #4]
 8007a80:	2b7e      	cmp	r3, #126	@ 0x7e
 8007a82:	dc13      	bgt.n	8007aac <isProgramExpression+0x3c>
 8007a84:	687b      	ldr	r3, [r7, #4]
 8007a86:	2b22      	cmp	r3, #34	@ 0x22
 8007a88:	d010      	beq.n	8007aac <isProgramExpression+0x3c>
 8007a8a:	687b      	ldr	r3, [r7, #4]
 8007a8c:	2b23      	cmp	r3, #35	@ 0x23
 8007a8e:	d00d      	beq.n	8007aac <isProgramExpression+0x3c>
 8007a90:	687b      	ldr	r3, [r7, #4]
 8007a92:	2b27      	cmp	r3, #39	@ 0x27
 8007a94:	d00a      	beq.n	8007aac <isProgramExpression+0x3c>
 8007a96:	687b      	ldr	r3, [r7, #4]
 8007a98:	2b28      	cmp	r3, #40	@ 0x28
 8007a9a:	d007      	beq.n	8007aac <isProgramExpression+0x3c>
 8007a9c:	687b      	ldr	r3, [r7, #4]
 8007a9e:	2b29      	cmp	r3, #41	@ 0x29
 8007aa0:	d004      	beq.n	8007aac <isProgramExpression+0x3c>
 8007aa2:	687b      	ldr	r3, [r7, #4]
 8007aa4:	2b3b      	cmp	r3, #59	@ 0x3b
 8007aa6:	d001      	beq.n	8007aac <isProgramExpression+0x3c>
 8007aa8:	2301      	movs	r3, #1
 8007aaa:	e000      	b.n	8007aae <isProgramExpression+0x3e>
 8007aac:	2300      	movs	r3, #0
 8007aae:	4618      	mov	r0, r3
 8007ab0:	370c      	adds	r7, #12
 8007ab2:	46bd      	mov	sp, r7
 8007ab4:	f85d 7b04 	ldr.w	r7, [sp], #4
 8007ab8:	4770      	bx	lr

08007aba <skipProgramExpression>:
 8007aba:	b580      	push	{r7, lr}
 8007abc:	b082      	sub	sp, #8
 8007abe:	af00      	add	r7, sp, #0
 8007ac0:	6078      	str	r0, [r7, #4]
 8007ac2:	e004      	b.n	8007ace <skipProgramExpression+0x14>
 8007ac4:	687b      	ldr	r3, [r7, #4]
 8007ac6:	685b      	ldr	r3, [r3, #4]
 8007ac8:	1c5a      	adds	r2, r3, #1
 8007aca:	687b      	ldr	r3, [r7, #4]
 8007acc:	605a      	str	r2, [r3, #4]
 8007ace:	6878      	ldr	r0, [r7, #4]
 8007ad0:	f7ff f8cd 	bl	8006c6e <iseos>
 8007ad4:	4603      	mov	r3, r0
 8007ad6:	2b00      	cmp	r3, #0
 8007ad8:	d108      	bne.n	8007aec <skipProgramExpression+0x32>
 8007ada:	687b      	ldr	r3, [r7, #4]
 8007adc:	685b      	ldr	r3, [r3, #4]
 8007ade:	781b      	ldrb	r3, [r3, #0]
 8007ae0:	4618      	mov	r0, r3
 8007ae2:	f7ff ffc5 	bl	8007a70 <isProgramExpression>
 8007ae6:	4603      	mov	r3, r0
 8007ae8:	2b00      	cmp	r3, #0
 8007aea:	d1eb      	bne.n	8007ac4 <skipProgramExpression+0xa>
 8007aec:	bf00      	nop
 8007aee:	3708      	adds	r7, #8
 8007af0:	46bd      	mov	sp, r7
 8007af2:	bd80      	pop	{r7, pc}

08007af4 <scpiLex_ProgramExpression>:
 8007af4:	b580      	push	{r7, lr}
 8007af6:	b082      	sub	sp, #8
 8007af8:	af00      	add	r7, sp, #0
 8007afa:	6078      	str	r0, [r7, #4]
 8007afc:	6039      	str	r1, [r7, #0]
 8007afe:	687b      	ldr	r3, [r7, #4]
 8007b00:	685a      	ldr	r2, [r3, #4]
 8007b02:	683b      	ldr	r3, [r7, #0]
 8007b04:	605a      	str	r2, [r3, #4]
 8007b06:	6878      	ldr	r0, [r7, #4]
 8007b08:	f7ff f8b1 	bl	8006c6e <iseos>
 8007b0c:	4603      	mov	r3, r0
 8007b0e:	2b00      	cmp	r3, #0
 8007b10:	d12b      	bne.n	8007b6a <scpiLex_ProgramExpression+0x76>
 8007b12:	2128      	movs	r1, #40	@ 0x28
 8007b14:	6878      	ldr	r0, [r7, #4]
 8007b16:	f7ff f8cc 	bl	8006cb2 <ischr>
 8007b1a:	4603      	mov	r3, r0
 8007b1c:	2b00      	cmp	r3, #0
 8007b1e:	d024      	beq.n	8007b6a <scpiLex_ProgramExpression+0x76>
 8007b20:	687b      	ldr	r3, [r7, #4]
 8007b22:	685b      	ldr	r3, [r3, #4]
 8007b24:	1c5a      	adds	r2, r3, #1
 8007b26:	687b      	ldr	r3, [r7, #4]
 8007b28:	605a      	str	r2, [r3, #4]
 8007b2a:	6878      	ldr	r0, [r7, #4]
 8007b2c:	f7ff ffc5 	bl	8007aba <skipProgramExpression>
 8007b30:	6878      	ldr	r0, [r7, #4]
 8007b32:	f7ff f89c 	bl	8006c6e <iseos>
 8007b36:	4603      	mov	r3, r0
 8007b38:	2b00      	cmp	r3, #0
 8007b3a:	d113      	bne.n	8007b64 <scpiLex_ProgramExpression+0x70>
 8007b3c:	2129      	movs	r1, #41	@ 0x29
 8007b3e:	6878      	ldr	r0, [r7, #4]
 8007b40:	f7ff f8b7 	bl	8006cb2 <ischr>
 8007b44:	4603      	mov	r3, r0
 8007b46:	2b00      	cmp	r3, #0
 8007b48:	d00c      	beq.n	8007b64 <scpiLex_ProgramExpression+0x70>
 8007b4a:	687b      	ldr	r3, [r7, #4]
 8007b4c:	685b      	ldr	r3, [r3, #4]
 8007b4e:	1c5a      	adds	r2, r3, #1
 8007b50:	687b      	ldr	r3, [r7, #4]
 8007b52:	605a      	str	r2, [r3, #4]
 8007b54:	687b      	ldr	r3, [r7, #4]
 8007b56:	685a      	ldr	r2, [r3, #4]
 8007b58:	683b      	ldr	r3, [r7, #0]
 8007b5a:	685b      	ldr	r3, [r3, #4]
 8007b5c:	1ad2      	subs	r2, r2, r3
 8007b5e:	683b      	ldr	r3, [r7, #0]
 8007b60:	609a      	str	r2, [r3, #8]
 8007b62:	e002      	b.n	8007b6a <scpiLex_ProgramExpression+0x76>
 8007b64:	683b      	ldr	r3, [r7, #0]
 8007b66:	2200      	movs	r2, #0
 8007b68:	609a      	str	r2, [r3, #8]
 8007b6a:	683b      	ldr	r3, [r7, #0]
 8007b6c:	689b      	ldr	r3, [r3, #8]
 8007b6e:	2b00      	cmp	r3, #0
 8007b70:	dd03      	ble.n	8007b7a <scpiLex_ProgramExpression+0x86>
 8007b72:	683b      	ldr	r3, [r7, #0]
 8007b74:	2210      	movs	r2, #16
 8007b76:	701a      	strb	r2, [r3, #0]
 8007b78:	e009      	b.n	8007b8e <scpiLex_ProgramExpression+0x9a>
 8007b7a:	683b      	ldr	r3, [r7, #0]
 8007b7c:	221a      	movs	r2, #26
 8007b7e:	701a      	strb	r2, [r3, #0]
 8007b80:	683b      	ldr	r3, [r7, #0]
 8007b82:	685a      	ldr	r2, [r3, #4]
 8007b84:	687b      	ldr	r3, [r7, #4]
 8007b86:	605a      	str	r2, [r3, #4]
 8007b88:	683b      	ldr	r3, [r7, #0]
 8007b8a:	2200      	movs	r2, #0
 8007b8c:	609a      	str	r2, [r3, #8]
 8007b8e:	683b      	ldr	r3, [r7, #0]
 8007b90:	689b      	ldr	r3, [r3, #8]
 8007b92:	4618      	mov	r0, r3
 8007b94:	3708      	adds	r7, #8
 8007b96:	46bd      	mov	sp, r7
 8007b98:	bd80      	pop	{r7, pc}

08007b9a <scpiLex_Comma>:
 8007b9a:	b580      	push	{r7, lr}
 8007b9c:	b082      	sub	sp, #8
 8007b9e:	af00      	add	r7, sp, #0
 8007ba0:	6078      	str	r0, [r7, #4]
 8007ba2:	6039      	str	r1, [r7, #0]
 8007ba4:	687b      	ldr	r3, [r7, #4]
 8007ba6:	685a      	ldr	r2, [r3, #4]
 8007ba8:	683b      	ldr	r3, [r7, #0]
 8007baa:	605a      	str	r2, [r3, #4]
 8007bac:	212c      	movs	r1, #44	@ 0x2c
 8007bae:	6878      	ldr	r0, [r7, #4]
 8007bb0:	f7ff f9aa 	bl	8006f08 <skipChr>
 8007bb4:	4603      	mov	r3, r0
 8007bb6:	2b00      	cmp	r3, #0
 8007bb8:	d006      	beq.n	8007bc8 <scpiLex_Comma+0x2e>
 8007bba:	683b      	ldr	r3, [r7, #0]
 8007bbc:	2201      	movs	r2, #1
 8007bbe:	609a      	str	r2, [r3, #8]
 8007bc0:	683b      	ldr	r3, [r7, #0]
 8007bc2:	2200      	movs	r2, #0
 8007bc4:	701a      	strb	r2, [r3, #0]
 8007bc6:	e005      	b.n	8007bd4 <scpiLex_Comma+0x3a>
 8007bc8:	683b      	ldr	r3, [r7, #0]
 8007bca:	2200      	movs	r2, #0
 8007bcc:	609a      	str	r2, [r3, #8]
 8007bce:	683b      	ldr	r3, [r7, #0]
 8007bd0:	221a      	movs	r2, #26
 8007bd2:	701a      	strb	r2, [r3, #0]
 8007bd4:	683b      	ldr	r3, [r7, #0]
 8007bd6:	689b      	ldr	r3, [r3, #8]
 8007bd8:	4618      	mov	r0, r3
 8007bda:	3708      	adds	r7, #8
 8007bdc:	46bd      	mov	sp, r7
 8007bde:	bd80      	pop	{r7, pc}

08007be0 <scpiLex_Semicolon>:
 8007be0:	b580      	push	{r7, lr}
 8007be2:	b082      	sub	sp, #8
 8007be4:	af00      	add	r7, sp, #0
 8007be6:	6078      	str	r0, [r7, #4]
 8007be8:	6039      	str	r1, [r7, #0]
 8007bea:	687b      	ldr	r3, [r7, #4]
 8007bec:	685a      	ldr	r2, [r3, #4]
 8007bee:	683b      	ldr	r3, [r7, #0]
 8007bf0:	605a      	str	r2, [r3, #4]
 8007bf2:	213b      	movs	r1, #59	@ 0x3b
 8007bf4:	6878      	ldr	r0, [r7, #4]
 8007bf6:	f7ff f987 	bl	8006f08 <skipChr>
 8007bfa:	4603      	mov	r3, r0
 8007bfc:	2b00      	cmp	r3, #0
 8007bfe:	d006      	beq.n	8007c0e <scpiLex_Semicolon+0x2e>
 8007c00:	683b      	ldr	r3, [r7, #0]
 8007c02:	2201      	movs	r2, #1
 8007c04:	609a      	str	r2, [r3, #8]
 8007c06:	683b      	ldr	r3, [r7, #0]
 8007c08:	2201      	movs	r2, #1
 8007c0a:	701a      	strb	r2, [r3, #0]
 8007c0c:	e005      	b.n	8007c1a <scpiLex_Semicolon+0x3a>
 8007c0e:	683b      	ldr	r3, [r7, #0]
 8007c10:	2200      	movs	r2, #0
 8007c12:	609a      	str	r2, [r3, #8]
 8007c14:	683b      	ldr	r3, [r7, #0]
 8007c16:	221a      	movs	r2, #26
 8007c18:	701a      	strb	r2, [r3, #0]
 8007c1a:	683b      	ldr	r3, [r7, #0]
 8007c1c:	689b      	ldr	r3, [r3, #8]
 8007c1e:	4618      	mov	r0, r3
 8007c20:	3708      	adds	r7, #8
 8007c22:	46bd      	mov	sp, r7
 8007c24:	bd80      	pop	{r7, pc}

08007c26 <scpiLex_NewLine>:
 8007c26:	b580      	push	{r7, lr}
 8007c28:	b082      	sub	sp, #8
 8007c2a:	af00      	add	r7, sp, #0
 8007c2c:	6078      	str	r0, [r7, #4]
 8007c2e:	6039      	str	r1, [r7, #0]
 8007c30:	687b      	ldr	r3, [r7, #4]
 8007c32:	685a      	ldr	r2, [r3, #4]
 8007c34:	683b      	ldr	r3, [r7, #0]
 8007c36:	605a      	str	r2, [r3, #4]
 8007c38:	210d      	movs	r1, #13
 8007c3a:	6878      	ldr	r0, [r7, #4]
 8007c3c:	f7ff f964 	bl	8006f08 <skipChr>
 8007c40:	210a      	movs	r1, #10
 8007c42:	6878      	ldr	r0, [r7, #4]
 8007c44:	f7ff f960 	bl	8006f08 <skipChr>
 8007c48:	687b      	ldr	r3, [r7, #4]
 8007c4a:	685a      	ldr	r2, [r3, #4]
 8007c4c:	683b      	ldr	r3, [r7, #0]
 8007c4e:	685b      	ldr	r3, [r3, #4]
 8007c50:	1ad2      	subs	r2, r2, r3
 8007c52:	683b      	ldr	r3, [r7, #0]
 8007c54:	609a      	str	r2, [r3, #8]
 8007c56:	683b      	ldr	r3, [r7, #0]
 8007c58:	689b      	ldr	r3, [r3, #8]
 8007c5a:	2b00      	cmp	r3, #0
 8007c5c:	dd03      	ble.n	8007c66 <scpiLex_NewLine+0x40>
 8007c5e:	683b      	ldr	r3, [r7, #0]
 8007c60:	2205      	movs	r2, #5
 8007c62:	701a      	strb	r2, [r3, #0]
 8007c64:	e009      	b.n	8007c7a <scpiLex_NewLine+0x54>
 8007c66:	683b      	ldr	r3, [r7, #0]
 8007c68:	221a      	movs	r2, #26
 8007c6a:	701a      	strb	r2, [r3, #0]
 8007c6c:	683b      	ldr	r3, [r7, #0]
 8007c6e:	685a      	ldr	r2, [r3, #4]
 8007c70:	687b      	ldr	r3, [r7, #4]
 8007c72:	605a      	str	r2, [r3, #4]
 8007c74:	683b      	ldr	r3, [r7, #0]
 8007c76:	2200      	movs	r2, #0
 8007c78:	609a      	str	r2, [r3, #8]
 8007c7a:	683b      	ldr	r3, [r7, #0]
 8007c7c:	689b      	ldr	r3, [r3, #8]
 8007c7e:	4618      	mov	r0, r3
 8007c80:	3708      	adds	r7, #8
 8007c82:	46bd      	mov	sp, r7
 8007c84:	bd80      	pop	{r7, pc}

08007c86 <SCPI_ErrorInit>:
 8007c86:	b580      	push	{r7, lr}
 8007c88:	b084      	sub	sp, #16
 8007c8a:	af00      	add	r7, sp, #0
 8007c8c:	60f8      	str	r0, [r7, #12]
 8007c8e:	60b9      	str	r1, [r7, #8]
 8007c90:	4613      	mov	r3, r2
 8007c92:	80fb      	strh	r3, [r7, #6]
 8007c94:	68fb      	ldr	r3, [r7, #12]
 8007c96:	333c      	adds	r3, #60	@ 0x3c
 8007c98:	f9b7 2006 	ldrsh.w	r2, [r7, #6]
 8007c9c:	68b9      	ldr	r1, [r7, #8]
 8007c9e:	4618      	mov	r0, r3
 8007ca0:	f000 fa62 	bl	8008168 <fifo_init>
 8007ca4:	bf00      	nop
 8007ca6:	3710      	adds	r7, #16
 8007ca8:	46bd      	mov	sp, r7
 8007caa:	bd80      	pop	{r7, pc}

08007cac <SCPI_ErrorEmitEmpty>:
 8007cac:	b580      	push	{r7, lr}
 8007cae:	b082      	sub	sp, #8
 8007cb0:	af00      	add	r7, sp, #0
 8007cb2:	6078      	str	r0, [r7, #4]
 8007cb4:	6878      	ldr	r0, [r7, #4]
 8007cb6:	f000 f872 	bl	8007d9e <SCPI_ErrorCount>
 8007cba:	4603      	mov	r3, r0
 8007cbc:	2b00      	cmp	r3, #0
 8007cbe:	d11c      	bne.n	8007cfa <SCPI_ErrorEmitEmpty+0x4e>
 8007cc0:	2100      	movs	r1, #0
 8007cc2:	6878      	ldr	r0, [r7, #4]
 8007cc4:	f7fc fd8f 	bl	80047e6 <SCPI_RegGet>
 8007cc8:	4603      	mov	r3, r0
 8007cca:	f003 0304 	and.w	r3, r3, #4
 8007cce:	2b00      	cmp	r3, #0
 8007cd0:	d013      	beq.n	8007cfa <SCPI_ErrorEmitEmpty+0x4e>
 8007cd2:	2204      	movs	r2, #4
 8007cd4:	2100      	movs	r1, #0
 8007cd6:	6878      	ldr	r0, [r7, #4]
 8007cd8:	f7fc fe85 	bl	80049e6 <SCPI_RegClearBits>
 8007cdc:	687b      	ldr	r3, [r7, #4]
 8007cde:	6adb      	ldr	r3, [r3, #44]	@ 0x2c
 8007ce0:	2b00      	cmp	r3, #0
 8007ce2:	d00a      	beq.n	8007cfa <SCPI_ErrorEmitEmpty+0x4e>
 8007ce4:	687b      	ldr	r3, [r7, #4]
 8007ce6:	6adb      	ldr	r3, [r3, #44]	@ 0x2c
 8007ce8:	681b      	ldr	r3, [r3, #0]
 8007cea:	2b00      	cmp	r3, #0
 8007cec:	d005      	beq.n	8007cfa <SCPI_ErrorEmitEmpty+0x4e>
 8007cee:	687b      	ldr	r3, [r7, #4]
 8007cf0:	6adb      	ldr	r3, [r3, #44]	@ 0x2c
 8007cf2:	681b      	ldr	r3, [r3, #0]
 8007cf4:	2100      	movs	r1, #0
 8007cf6:	6878      	ldr	r0, [r7, #4]
 8007cf8:	4798      	blx	r3
 8007cfa:	bf00      	nop
 8007cfc:	3708      	adds	r7, #8
 8007cfe:	46bd      	mov	sp, r7
 8007d00:	bd80      	pop	{r7, pc}

08007d02 <SCPI_ErrorEmit>:
 8007d02:	b580      	push	{r7, lr}
 8007d04:	b082      	sub	sp, #8
 8007d06:	af00      	add	r7, sp, #0
 8007d08:	6078      	str	r0, [r7, #4]
 8007d0a:	460b      	mov	r3, r1
 8007d0c:	807b      	strh	r3, [r7, #2]
 8007d0e:	2204      	movs	r2, #4
 8007d10:	2100      	movs	r1, #0
 8007d12:	6878      	ldr	r0, [r7, #4]
 8007d14:	f7fc fe4c 	bl	80049b0 <SCPI_RegSetBits>
 8007d18:	687b      	ldr	r3, [r7, #4]
 8007d1a:	6adb      	ldr	r3, [r3, #44]	@ 0x2c
 8007d1c:	2b00      	cmp	r3, #0
 8007d1e:	d00c      	beq.n	8007d3a <SCPI_ErrorEmit+0x38>
 8007d20:	687b      	ldr	r3, [r7, #4]
 8007d22:	6adb      	ldr	r3, [r3, #44]	@ 0x2c
 8007d24:	681b      	ldr	r3, [r3, #0]
 8007d26:	2b00      	cmp	r3, #0
 8007d28:	d007      	beq.n	8007d3a <SCPI_ErrorEmit+0x38>
 8007d2a:	687b      	ldr	r3, [r7, #4]
 8007d2c:	6adb      	ldr	r3, [r3, #44]	@ 0x2c
 8007d2e:	681b      	ldr	r3, [r3, #0]
 8007d30:	f9b7 2002 	ldrsh.w	r2, [r7, #2]
 8007d34:	4611      	mov	r1, r2
 8007d36:	6878      	ldr	r0, [r7, #4]
 8007d38:	4798      	blx	r3
 8007d3a:	bf00      	nop
 8007d3c:	3708      	adds	r7, #8
 8007d3e:	46bd      	mov	sp, r7
 8007d40:	bd80      	pop	{r7, pc}

08007d42 <SCPI_ErrorClear>:
 8007d42:	b580      	push	{r7, lr}
 8007d44:	b082      	sub	sp, #8
 8007d46:	af00      	add	r7, sp, #0
 8007d48:	6078      	str	r0, [r7, #4]
 8007d4a:	687b      	ldr	r3, [r7, #4]
 8007d4c:	333c      	adds	r3, #60	@ 0x3c
 8007d4e:	4618      	mov	r0, r3
 8007d50:	f000 fa26 	bl	80081a0 <fifo_clear>
 8007d54:	6878      	ldr	r0, [r7, #4]
 8007d56:	f7ff ffa9 	bl	8007cac <SCPI_ErrorEmitEmpty>
 8007d5a:	bf00      	nop
 8007d5c:	3708      	adds	r7, #8
 8007d5e:	46bd      	mov	sp, r7
 8007d60:	bd80      	pop	{r7, pc}

08007d62 <SCPI_ErrorPop>:
 8007d62:	b580      	push	{r7, lr}
 8007d64:	b082      	sub	sp, #8
 8007d66:	af00      	add	r7, sp, #0
 8007d68:	6078      	str	r0, [r7, #4]
 8007d6a:	6039      	str	r1, [r7, #0]
 8007d6c:	683b      	ldr	r3, [r7, #0]
 8007d6e:	2b00      	cmp	r3, #0
 8007d70:	d002      	beq.n	8007d78 <SCPI_ErrorPop+0x16>
 8007d72:	687b      	ldr	r3, [r7, #4]
 8007d74:	2b00      	cmp	r3, #0
 8007d76:	d101      	bne.n	8007d7c <SCPI_ErrorPop+0x1a>
 8007d78:	2300      	movs	r3, #0
 8007d7a:	e00c      	b.n	8007d96 <SCPI_ErrorPop+0x34>
 8007d7c:	683b      	ldr	r3, [r7, #0]
 8007d7e:	2200      	movs	r2, #0
 8007d80:	801a      	strh	r2, [r3, #0]
 8007d82:	687b      	ldr	r3, [r7, #4]
 8007d84:	333c      	adds	r3, #60	@ 0x3c
 8007d86:	6839      	ldr	r1, [r7, #0]
 8007d88:	4618      	mov	r0, r3
 8007d8a:	f000 fa7c 	bl	8008286 <fifo_remove>
 8007d8e:	6878      	ldr	r0, [r7, #4]
 8007d90:	f7ff ff8c 	bl	8007cac <SCPI_ErrorEmitEmpty>
 8007d94:	2301      	movs	r3, #1
 8007d96:	4618      	mov	r0, r3
 8007d98:	3708      	adds	r7, #8
 8007d9a:	46bd      	mov	sp, r7
 8007d9c:	bd80      	pop	{r7, pc}

08007d9e <SCPI_ErrorCount>:
 8007d9e:	b580      	push	{r7, lr}
 8007da0:	b084      	sub	sp, #16
 8007da2:	af00      	add	r7, sp, #0
 8007da4:	6078      	str	r0, [r7, #4]
 8007da6:	2300      	movs	r3, #0
 8007da8:	81fb      	strh	r3, [r7, #14]
 8007daa:	687b      	ldr	r3, [r7, #4]
 8007dac:	333c      	adds	r3, #60	@ 0x3c
 8007dae:	f107 020e 	add.w	r2, r7, #14
 8007db2:	4611      	mov	r1, r2
 8007db4:	4618      	mov	r0, r3
 8007db6:	f000 fad9 	bl	800836c <fifo_count>
 8007dba:	f9b7 300e 	ldrsh.w	r3, [r7, #14]
 8007dbe:	4618      	mov	r0, r3
 8007dc0:	3710      	adds	r7, #16
 8007dc2:	46bd      	mov	sp, r7
 8007dc4:	bd80      	pop	{r7, pc}

08007dc6 <SCPI_ErrorAddInternal>:
 8007dc6:	b580      	push	{r7, lr}
 8007dc8:	b086      	sub	sp, #24
 8007dca:	af00      	add	r7, sp, #0
 8007dcc:	60f8      	str	r0, [r7, #12]
 8007dce:	607a      	str	r2, [r7, #4]
 8007dd0:	603b      	str	r3, [r7, #0]
 8007dd2:	460b      	mov	r3, r1
 8007dd4:	817b      	strh	r3, [r7, #10]
 8007dd6:	2300      	movs	r3, #0
 8007dd8:	617b      	str	r3, [r7, #20]
 8007dda:	897b      	ldrh	r3, [r7, #10]
 8007ddc:	823b      	strh	r3, [r7, #16]
 8007dde:	68fb      	ldr	r3, [r7, #12]
 8007de0:	333c      	adds	r3, #60	@ 0x3c
 8007de2:	f107 0210 	add.w	r2, r7, #16
 8007de6:	4611      	mov	r1, r2
 8007de8:	4618      	mov	r0, r3
 8007dea:	f000 fa13 	bl	8008214 <fifo_add>
 8007dee:	4603      	mov	r3, r0
 8007df0:	f083 0301 	eor.w	r3, r3, #1
 8007df4:	b2db      	uxtb	r3, r3
 8007df6:	2b00      	cmp	r3, #0
 8007df8:	d014      	beq.n	8007e24 <SCPI_ErrorAddInternal+0x5e>
 8007dfa:	68fb      	ldr	r3, [r7, #12]
 8007dfc:	333c      	adds	r3, #60	@ 0x3c
 8007dfe:	f107 0210 	add.w	r2, r7, #16
 8007e02:	4611      	mov	r1, r2
 8007e04:	4618      	mov	r0, r3
 8007e06:	f000 fa75 	bl	80082f4 <fifo_remove_last>
 8007e0a:	f64f 63a2 	movw	r3, #65186	@ 0xfea2
 8007e0e:	823b      	strh	r3, [r7, #16]
 8007e10:	68fb      	ldr	r3, [r7, #12]
 8007e12:	333c      	adds	r3, #60	@ 0x3c
 8007e14:	f107 0210 	add.w	r2, r7, #16
 8007e18:	4611      	mov	r1, r2
 8007e1a:	4618      	mov	r0, r3
 8007e1c:	f000 f9fa 	bl	8008214 <fifo_add>
 8007e20:	2300      	movs	r3, #0
 8007e22:	e000      	b.n	8007e26 <SCPI_ErrorAddInternal+0x60>
 8007e24:	2301      	movs	r3, #1
 8007e26:	4618      	mov	r0, r3
 8007e28:	3718      	adds	r7, #24
 8007e2a:	46bd      	mov	sp, r7
 8007e2c:	bd80      	pop	{r7, pc}
	...

08007e30 <SCPI_ErrorPushEx>:
 8007e30:	b580      	push	{r7, lr}
 8007e32:	b086      	sub	sp, #24
 8007e34:	af00      	add	r7, sp, #0
 8007e36:	60f8      	str	r0, [r7, #12]
 8007e38:	607a      	str	r2, [r7, #4]
 8007e3a:	603b      	str	r3, [r7, #0]
 8007e3c:	460b      	mov	r3, r1
 8007e3e:	817b      	strh	r3, [r7, #10]
 8007e40:	687b      	ldr	r3, [r7, #4]
 8007e42:	2b00      	cmp	r3, #0
 8007e44:	d007      	beq.n	8007e56 <SCPI_ErrorPushEx+0x26>
 8007e46:	683b      	ldr	r3, [r7, #0]
 8007e48:	2b00      	cmp	r3, #0
 8007e4a:	d104      	bne.n	8007e56 <SCPI_ErrorPushEx+0x26>
 8007e4c:	21ff      	movs	r1, #255	@ 0xff
 8007e4e:	6878      	ldr	r0, [r7, #4]
 8007e50:	f001 fc72 	bl	8009738 <strnlen>
 8007e54:	6038      	str	r0, [r7, #0]
 8007e56:	f9b7 100a 	ldrsh.w	r1, [r7, #10]
 8007e5a:	683b      	ldr	r3, [r7, #0]
 8007e5c:	687a      	ldr	r2, [r7, #4]
 8007e5e:	68f8      	ldr	r0, [r7, #12]
 8007e60:	f7ff ffb1 	bl	8007dc6 <SCPI_ErrorAddInternal>
 8007e64:	4603      	mov	r3, r0
 8007e66:	2b00      	cmp	r3, #0
 8007e68:	bf14      	ite	ne
 8007e6a:	2301      	movne	r3, #1
 8007e6c:	2300      	moveq	r3, #0
 8007e6e:	b2db      	uxtb	r3, r3
 8007e70:	f083 0301 	eor.w	r3, r3, #1
 8007e74:	b2db      	uxtb	r3, r3
 8007e76:	74fb      	strb	r3, [r7, #19]
 8007e78:	7cfb      	ldrb	r3, [r7, #19]
 8007e7a:	f003 0301 	and.w	r3, r3, #1
 8007e7e:	74fb      	strb	r3, [r7, #19]
 8007e80:	2300      	movs	r3, #0
 8007e82:	617b      	str	r3, [r7, #20]
 8007e84:	e02b      	b.n	8007ede <SCPI_ErrorPushEx+0xae>
 8007e86:	4923      	ldr	r1, [pc, #140]	@ (8007f14 <SCPI_ErrorPushEx+0xe4>)
 8007e88:	697a      	ldr	r2, [r7, #20]
 8007e8a:	4613      	mov	r3, r2
 8007e8c:	005b      	lsls	r3, r3, #1
 8007e8e:	4413      	add	r3, r2
 8007e90:	005b      	lsls	r3, r3, #1
 8007e92:	440b      	add	r3, r1
 8007e94:	f9b3 3000 	ldrsh.w	r3, [r3]
 8007e98:	f9b7 200a 	ldrsh.w	r2, [r7, #10]
 8007e9c:	429a      	cmp	r2, r3
 8007e9e:	dc1b      	bgt.n	8007ed8 <SCPI_ErrorPushEx+0xa8>
 8007ea0:	491c      	ldr	r1, [pc, #112]	@ (8007f14 <SCPI_ErrorPushEx+0xe4>)
 8007ea2:	697a      	ldr	r2, [r7, #20]
 8007ea4:	4613      	mov	r3, r2
 8007ea6:	005b      	lsls	r3, r3, #1
 8007ea8:	4413      	add	r3, r2
 8007eaa:	005b      	lsls	r3, r3, #1
 8007eac:	440b      	add	r3, r1
 8007eae:	3302      	adds	r3, #2
 8007eb0:	f9b3 3000 	ldrsh.w	r3, [r3]
 8007eb4:	f9b7 200a 	ldrsh.w	r2, [r7, #10]
 8007eb8:	429a      	cmp	r2, r3
 8007eba:	db0d      	blt.n	8007ed8 <SCPI_ErrorPushEx+0xa8>
 8007ebc:	4915      	ldr	r1, [pc, #84]	@ (8007f14 <SCPI_ErrorPushEx+0xe4>)
 8007ebe:	697a      	ldr	r2, [r7, #20]
 8007ec0:	4613      	mov	r3, r2
 8007ec2:	005b      	lsls	r3, r3, #1
 8007ec4:	4413      	add	r3, r2
 8007ec6:	005b      	lsls	r3, r3, #1
 8007ec8:	440b      	add	r3, r1
 8007eca:	3304      	adds	r3, #4
 8007ecc:	881b      	ldrh	r3, [r3, #0]
 8007ece:	461a      	mov	r2, r3
 8007ed0:	2102      	movs	r1, #2
 8007ed2:	68f8      	ldr	r0, [r7, #12]
 8007ed4:	f7fc fd6c 	bl	80049b0 <SCPI_RegSetBits>
 8007ed8:	697b      	ldr	r3, [r7, #20]
 8007eda:	3301      	adds	r3, #1
 8007edc:	617b      	str	r3, [r7, #20]
 8007ede:	697b      	ldr	r3, [r7, #20]
 8007ee0:	2b08      	cmp	r3, #8
 8007ee2:	ddd0      	ble.n	8007e86 <SCPI_ErrorPushEx+0x56>
 8007ee4:	f9b7 300a 	ldrsh.w	r3, [r7, #10]
 8007ee8:	4619      	mov	r1, r3
 8007eea:	68f8      	ldr	r0, [r7, #12]
 8007eec:	f7ff ff09 	bl	8007d02 <SCPI_ErrorEmit>
 8007ef0:	7cfb      	ldrb	r3, [r7, #19]
 8007ef2:	2b00      	cmp	r3, #0
 8007ef4:	d003      	beq.n	8007efe <SCPI_ErrorPushEx+0xce>
 8007ef6:	4908      	ldr	r1, [pc, #32]	@ (8007f18 <SCPI_ErrorPushEx+0xe8>)
 8007ef8:	68f8      	ldr	r0, [r7, #12]
 8007efa:	f7ff ff02 	bl	8007d02 <SCPI_ErrorEmit>
 8007efe:	68fb      	ldr	r3, [r7, #12]
 8007f00:	2b00      	cmp	r3, #0
 8007f02:	d003      	beq.n	8007f0c <SCPI_ErrorPushEx+0xdc>
 8007f04:	68fb      	ldr	r3, [r7, #12]
 8007f06:	2201      	movs	r2, #1
 8007f08:	f883 2038 	strb.w	r2, [r3, #56]	@ 0x38
 8007f0c:	bf00      	nop
 8007f0e:	3718      	adds	r7, #24
 8007f10:	46bd      	mov	sp, r7
 8007f12:	bd80      	pop	{r7, pc}
 8007f14:	0800c2c0 	.word	0x0800c2c0
 8007f18:	fffffea2 	.word	0xfffffea2

08007f1c <SCPI_ErrorPush>:
 8007f1c:	b580      	push	{r7, lr}
 8007f1e:	b082      	sub	sp, #8
 8007f20:	af00      	add	r7, sp, #0
 8007f22:	6078      	str	r0, [r7, #4]
 8007f24:	460b      	mov	r3, r1
 8007f26:	807b      	strh	r3, [r7, #2]
 8007f28:	f9b7 1002 	ldrsh.w	r1, [r7, #2]
 8007f2c:	2300      	movs	r3, #0
 8007f2e:	2200      	movs	r2, #0
 8007f30:	6878      	ldr	r0, [r7, #4]
 8007f32:	f7ff ff7d 	bl	8007e30 <SCPI_ErrorPushEx>
 8007f36:	bf00      	nop
 8007f38:	3708      	adds	r7, #8
 8007f3a:	46bd      	mov	sp, r7
 8007f3c:	bd80      	pop	{r7, pc}
	...

08007f40 <SCPI_ErrorTranslate>:
 8007f40:	b480      	push	{r7}
 8007f42:	b083      	sub	sp, #12
 8007f44:	af00      	add	r7, sp, #0
 8007f46:	4603      	mov	r3, r0
 8007f48:	80fb      	strh	r3, [r7, #6]
 8007f4a:	f9b7 3006 	ldrsh.w	r3, [r7, #6]
 8007f4e:	2b00      	cmp	r3, #0
 8007f50:	f000 80c0 	beq.w	80080d4 <SCPI_ErrorTranslate+0x194>
 8007f54:	2b00      	cmp	r3, #0
 8007f56:	f300 80dd 	bgt.w	8008114 <SCPI_ErrorTranslate+0x1d4>
 8007f5a:	f113 0f65 	cmn.w	r3, #101	@ 0x65
 8007f5e:	f300 80d9 	bgt.w	8008114 <SCPI_ErrorTranslate+0x1d4>
 8007f62:	f113 0faa 	cmn.w	r3, #170	@ 0xaa
 8007f66:	da21      	bge.n	8007fac <SCPI_ErrorTranslate+0x6c>
 8007f68:	f113 0fc8 	cmn.w	r3, #200	@ 0xc8
 8007f6c:	f000 80c8 	beq.w	8008100 <SCPI_ErrorTranslate+0x1c0>
 8007f70:	f113 0fc8 	cmn.w	r3, #200	@ 0xc8
 8007f74:	f300 80ce 	bgt.w	8008114 <SCPI_ErrorTranslate+0x1d4>
 8007f78:	f113 0fe0 	cmn.w	r3, #224	@ 0xe0
 8007f7c:	f000 80c2 	beq.w	8008104 <SCPI_ErrorTranslate+0x1c4>
 8007f80:	f113 0fe0 	cmn.w	r3, #224	@ 0xe0
 8007f84:	f300 80c6 	bgt.w	8008114 <SCPI_ErrorTranslate+0x1d4>
 8007f88:	f513 7f9b 	cmn.w	r3, #310	@ 0x136
 8007f8c:	f000 80bc 	beq.w	8008108 <SCPI_ErrorTranslate+0x1c8>
 8007f90:	f513 7f9b 	cmn.w	r3, #310	@ 0x136
 8007f94:	f300 80be 	bgt.w	8008114 <SCPI_ErrorTranslate+0x1d4>
 8007f98:	f46f 72b5 	mvn.w	r2, #362	@ 0x16a
 8007f9c:	4293      	cmp	r3, r2
 8007f9e:	f000 80b7 	beq.w	8008110 <SCPI_ErrorTranslate+0x1d0>
 8007fa2:	f513 7faf 	cmn.w	r3, #350	@ 0x15e
 8007fa6:	f000 80b1 	beq.w	800810c <SCPI_ErrorTranslate+0x1cc>
 8007faa:	e0b3      	b.n	8008114 <SCPI_ErrorTranslate+0x1d4>
 8007fac:	33aa      	adds	r3, #170	@ 0xaa
 8007fae:	2b45      	cmp	r3, #69	@ 0x45
 8007fb0:	f200 80b0 	bhi.w	8008114 <SCPI_ErrorTranslate+0x1d4>
 8007fb4:	a201      	add	r2, pc, #4	@ (adr r2, 8007fbc <SCPI_ErrorTranslate+0x7c>)
 8007fb6:	f852 f023 	ldr.w	pc, [r2, r3, lsl #2]
 8007fba:	bf00      	nop
 8007fbc:	080080fd 	.word	0x080080fd
 8007fc0:	08008115 	.word	0x08008115
 8007fc4:	08008115 	.word	0x08008115
 8007fc8:	08008115 	.word	0x08008115
 8007fcc:	08008115 	.word	0x08008115
 8007fd0:	08008115 	.word	0x08008115
 8007fd4:	08008115 	.word	0x08008115
 8007fd8:	08008115 	.word	0x08008115
 8007fdc:	08008115 	.word	0x08008115
 8007fe0:	08008115 	.word	0x08008115
 8007fe4:	08008115 	.word	0x08008115
 8007fe8:	08008115 	.word	0x08008115
 8007fec:	08008115 	.word	0x08008115
 8007ff0:	08008115 	.word	0x08008115
 8007ff4:	08008115 	.word	0x08008115
 8007ff8:	08008115 	.word	0x08008115
 8007ffc:	08008115 	.word	0x08008115
 8008000:	08008115 	.word	0x08008115
 8008004:	08008115 	.word	0x08008115
 8008008:	080080f9 	.word	0x080080f9
 800800c:	08008115 	.word	0x08008115
 8008010:	08008115 	.word	0x08008115
 8008014:	08008115 	.word	0x08008115
 8008018:	08008115 	.word	0x08008115
 800801c:	08008115 	.word	0x08008115
 8008020:	08008115 	.word	0x08008115
 8008024:	08008115 	.word	0x08008115
 8008028:	08008115 	.word	0x08008115
 800802c:	08008115 	.word	0x08008115
 8008030:	08008115 	.word	0x08008115
 8008034:	08008115 	.word	0x08008115
 8008038:	08008115 	.word	0x08008115
 800803c:	080080f5 	.word	0x080080f5
 8008040:	08008115 	.word	0x08008115
 8008044:	08008115 	.word	0x08008115
 8008048:	08008115 	.word	0x08008115
 800804c:	08008115 	.word	0x08008115
 8008050:	08008115 	.word	0x08008115
 8008054:	08008115 	.word	0x08008115
 8008058:	080080f1 	.word	0x080080f1
 800805c:	08008115 	.word	0x08008115
 8008060:	08008115 	.word	0x08008115
 8008064:	08008115 	.word	0x08008115
 8008068:	08008115 	.word	0x08008115
 800806c:	08008115 	.word	0x08008115
 8008070:	08008115 	.word	0x08008115
 8008074:	08008115 	.word	0x08008115
 8008078:	08008115 	.word	0x08008115
 800807c:	08008115 	.word	0x08008115
 8008080:	08008115 	.word	0x08008115
 8008084:	08008115 	.word	0x08008115
 8008088:	08008115 	.word	0x08008115
 800808c:	08008115 	.word	0x08008115
 8008090:	08008115 	.word	0x08008115
 8008094:	08008115 	.word	0x08008115
 8008098:	08008115 	.word	0x08008115
 800809c:	08008115 	.word	0x08008115
 80080a0:	080080ed 	.word	0x080080ed
 80080a4:	08008115 	.word	0x08008115
 80080a8:	08008115 	.word	0x08008115
 80080ac:	08008115 	.word	0x08008115
 80080b0:	080080e9 	.word	0x080080e9
 80080b4:	080080e5 	.word	0x080080e5
 80080b8:	08008115 	.word	0x08008115
 80080bc:	08008115 	.word	0x08008115
 80080c0:	08008115 	.word	0x08008115
 80080c4:	080080e1 	.word	0x080080e1
 80080c8:	080080dd 	.word	0x080080dd
 80080cc:	08008115 	.word	0x08008115
 80080d0:	080080d9 	.word	0x080080d9
 80080d4:	4b13      	ldr	r3, [pc, #76]	@ (8008124 <SCPI_ErrorTranslate+0x1e4>)
 80080d6:	e01e      	b.n	8008116 <SCPI_ErrorTranslate+0x1d6>
 80080d8:	4b13      	ldr	r3, [pc, #76]	@ (8008128 <SCPI_ErrorTranslate+0x1e8>)
 80080da:	e01c      	b.n	8008116 <SCPI_ErrorTranslate+0x1d6>
 80080dc:	4b13      	ldr	r3, [pc, #76]	@ (800812c <SCPI_ErrorTranslate+0x1ec>)
 80080de:	e01a      	b.n	8008116 <SCPI_ErrorTranslate+0x1d6>
 80080e0:	4b13      	ldr	r3, [pc, #76]	@ (8008130 <SCPI_ErrorTranslate+0x1f0>)
 80080e2:	e018      	b.n	8008116 <SCPI_ErrorTranslate+0x1d6>
 80080e4:	4b13      	ldr	r3, [pc, #76]	@ (8008134 <SCPI_ErrorTranslate+0x1f4>)
 80080e6:	e016      	b.n	8008116 <SCPI_ErrorTranslate+0x1d6>
 80080e8:	4b13      	ldr	r3, [pc, #76]	@ (8008138 <SCPI_ErrorTranslate+0x1f8>)
 80080ea:	e014      	b.n	8008116 <SCPI_ErrorTranslate+0x1d6>
 80080ec:	4b13      	ldr	r3, [pc, #76]	@ (800813c <SCPI_ErrorTranslate+0x1fc>)
 80080ee:	e012      	b.n	8008116 <SCPI_ErrorTranslate+0x1d6>
 80080f0:	4b13      	ldr	r3, [pc, #76]	@ (8008140 <SCPI_ErrorTranslate+0x200>)
 80080f2:	e010      	b.n	8008116 <SCPI_ErrorTranslate+0x1d6>
 80080f4:	4b13      	ldr	r3, [pc, #76]	@ (8008144 <SCPI_ErrorTranslate+0x204>)
 80080f6:	e00e      	b.n	8008116 <SCPI_ErrorTranslate+0x1d6>
 80080f8:	4b13      	ldr	r3, [pc, #76]	@ (8008148 <SCPI_ErrorTranslate+0x208>)
 80080fa:	e00c      	b.n	8008116 <SCPI_ErrorTranslate+0x1d6>
 80080fc:	4b13      	ldr	r3, [pc, #76]	@ (800814c <SCPI_ErrorTranslate+0x20c>)
 80080fe:	e00a      	b.n	8008116 <SCPI_ErrorTranslate+0x1d6>
 8008100:	4b13      	ldr	r3, [pc, #76]	@ (8008150 <SCPI_ErrorTranslate+0x210>)
 8008102:	e008      	b.n	8008116 <SCPI_ErrorTranslate+0x1d6>
 8008104:	4b13      	ldr	r3, [pc, #76]	@ (8008154 <SCPI_ErrorTranslate+0x214>)
 8008106:	e006      	b.n	8008116 <SCPI_ErrorTranslate+0x1d6>
 8008108:	4b13      	ldr	r3, [pc, #76]	@ (8008158 <SCPI_ErrorTranslate+0x218>)
 800810a:	e004      	b.n	8008116 <SCPI_ErrorTranslate+0x1d6>
 800810c:	4b13      	ldr	r3, [pc, #76]	@ (800815c <SCPI_ErrorTranslate+0x21c>)
 800810e:	e002      	b.n	8008116 <SCPI_ErrorTranslate+0x1d6>
 8008110:	4b13      	ldr	r3, [pc, #76]	@ (8008160 <SCPI_ErrorTranslate+0x220>)
 8008112:	e000      	b.n	8008116 <SCPI_ErrorTranslate+0x1d6>
 8008114:	4b13      	ldr	r3, [pc, #76]	@ (8008164 <SCPI_ErrorTranslate+0x224>)
 8008116:	4618      	mov	r0, r3
 8008118:	370c      	adds	r7, #12
 800811a:	46bd      	mov	sp, r7
 800811c:	f85d 7b04 	ldr.w	r7, [sp], #4
 8008120:	4770      	bx	lr
 8008122:	bf00      	nop
 8008124:	0800b928 	.word	0x0800b928
 8008128:	0800b934 	.word	0x0800b934
 800812c:	0800b948 	.word	0x0800b948
 8008130:	0800b95c 	.word	0x0800b95c
 8008134:	0800b96c 	.word	0x0800b96c
 8008138:	0800b984 	.word	0x0800b984
 800813c:	0800b998 	.word	0x0800b998
 8008140:	0800b9ac 	.word	0x0800b9ac
 8008144:	0800b9bc 	.word	0x0800b9bc
 8008148:	0800b9d0 	.word	0x0800b9d0
 800814c:	0800b9e4 	.word	0x0800b9e4
 8008150:	0800b9f8 	.word	0x0800b9f8
 8008154:	0800ba08 	.word	0x0800ba08
 8008158:	0800ba20 	.word	0x0800ba20
 800815c:	0800ba30 	.word	0x0800ba30
 8008160:	0800ba40 	.word	0x0800ba40
 8008164:	0800ba58 	.word	0x0800ba58

08008168 <fifo_init>:
 8008168:	b480      	push	{r7}
 800816a:	b085      	sub	sp, #20
 800816c:	af00      	add	r7, sp, #0
 800816e:	60f8      	str	r0, [r7, #12]
 8008170:	60b9      	str	r1, [r7, #8]
 8008172:	4613      	mov	r3, r2
 8008174:	80fb      	strh	r3, [r7, #6]
 8008176:	68fb      	ldr	r3, [r7, #12]
 8008178:	2200      	movs	r2, #0
 800817a:	801a      	strh	r2, [r3, #0]
 800817c:	68fb      	ldr	r3, [r7, #12]
 800817e:	2200      	movs	r2, #0
 8008180:	805a      	strh	r2, [r3, #2]
 8008182:	68fb      	ldr	r3, [r7, #12]
 8008184:	2200      	movs	r2, #0
 8008186:	809a      	strh	r2, [r3, #4]
 8008188:	68fb      	ldr	r3, [r7, #12]
 800818a:	68ba      	ldr	r2, [r7, #8]
 800818c:	609a      	str	r2, [r3, #8]
 800818e:	68fb      	ldr	r3, [r7, #12]
 8008190:	88fa      	ldrh	r2, [r7, #6]
 8008192:	80da      	strh	r2, [r3, #6]
 8008194:	bf00      	nop
 8008196:	3714      	adds	r7, #20
 8008198:	46bd      	mov	sp, r7
 800819a:	f85d 7b04 	ldr.w	r7, [sp], #4
 800819e:	4770      	bx	lr

080081a0 <fifo_clear>:
 80081a0:	b480      	push	{r7}
 80081a2:	b083      	sub	sp, #12
 80081a4:	af00      	add	r7, sp, #0
 80081a6:	6078      	str	r0, [r7, #4]
 80081a8:	687b      	ldr	r3, [r7, #4]
 80081aa:	2200      	movs	r2, #0
 80081ac:	801a      	strh	r2, [r3, #0]
 80081ae:	687b      	ldr	r3, [r7, #4]
 80081b0:	2200      	movs	r2, #0
 80081b2:	805a      	strh	r2, [r3, #2]
 80081b4:	687b      	ldr	r3, [r7, #4]
 80081b6:	2200      	movs	r2, #0
 80081b8:	809a      	strh	r2, [r3, #4]
 80081ba:	bf00      	nop
 80081bc:	370c      	adds	r7, #12
 80081be:	46bd      	mov	sp, r7
 80081c0:	f85d 7b04 	ldr.w	r7, [sp], #4
 80081c4:	4770      	bx	lr

080081c6 <fifo_is_empty>:
 80081c6:	b480      	push	{r7}
 80081c8:	b083      	sub	sp, #12
 80081ca:	af00      	add	r7, sp, #0
 80081cc:	6078      	str	r0, [r7, #4]
 80081ce:	687b      	ldr	r3, [r7, #4]
 80081d0:	f9b3 3004 	ldrsh.w	r3, [r3, #4]
 80081d4:	2b00      	cmp	r3, #0
 80081d6:	bf0c      	ite	eq
 80081d8:	2301      	moveq	r3, #1
 80081da:	2300      	movne	r3, #0
 80081dc:	b2db      	uxtb	r3, r3
 80081de:	4618      	mov	r0, r3
 80081e0:	370c      	adds	r7, #12
 80081e2:	46bd      	mov	sp, r7
 80081e4:	f85d 7b04 	ldr.w	r7, [sp], #4
 80081e8:	4770      	bx	lr

080081ea <fifo_is_full>:
 80081ea:	b480      	push	{r7}
 80081ec:	b083      	sub	sp, #12
 80081ee:	af00      	add	r7, sp, #0
 80081f0:	6078      	str	r0, [r7, #4]
 80081f2:	687b      	ldr	r3, [r7, #4]
 80081f4:	f9b3 2004 	ldrsh.w	r2, [r3, #4]
 80081f8:	687b      	ldr	r3, [r7, #4]
 80081fa:	f9b3 3006 	ldrsh.w	r3, [r3, #6]
 80081fe:	429a      	cmp	r2, r3
 8008200:	bf0c      	ite	eq
 8008202:	2301      	moveq	r3, #1
 8008204:	2300      	movne	r3, #0
 8008206:	b2db      	uxtb	r3, r3
 8008208:	4618      	mov	r0, r3
 800820a:	370c      	adds	r7, #12
 800820c:	46bd      	mov	sp, r7
 800820e:	f85d 7b04 	ldr.w	r7, [sp], #4
 8008212:	4770      	bx	lr

08008214 <fifo_add>:
 8008214:	b580      	push	{r7, lr}
 8008216:	b082      	sub	sp, #8
 8008218:	af00      	add	r7, sp, #0
 800821a:	6078      	str	r0, [r7, #4]
 800821c:	6039      	str	r1, [r7, #0]
 800821e:	6878      	ldr	r0, [r7, #4]
 8008220:	f7ff ffe3 	bl	80081ea <fifo_is_full>
 8008224:	4603      	mov	r3, r0
 8008226:	2b00      	cmp	r3, #0
 8008228:	d001      	beq.n	800822e <fifo_add+0x1a>
 800822a:	2300      	movs	r3, #0
 800822c:	e027      	b.n	800827e <fifo_add+0x6a>
 800822e:	683b      	ldr	r3, [r7, #0]
 8008230:	2b00      	cmp	r3, #0
 8008232:	d101      	bne.n	8008238 <fifo_add+0x24>
 8008234:	2300      	movs	r3, #0
 8008236:	e022      	b.n	800827e <fifo_add+0x6a>
 8008238:	687b      	ldr	r3, [r7, #4]
 800823a:	689a      	ldr	r2, [r3, #8]
 800823c:	687b      	ldr	r3, [r7, #4]
 800823e:	f9b3 3000 	ldrsh.w	r3, [r3]
 8008242:	005b      	lsls	r3, r3, #1
 8008244:	4413      	add	r3, r2
 8008246:	683a      	ldr	r2, [r7, #0]
 8008248:	8812      	ldrh	r2, [r2, #0]
 800824a:	801a      	strh	r2, [r3, #0]
 800824c:	687b      	ldr	r3, [r7, #4]
 800824e:	f9b3 3000 	ldrsh.w	r3, [r3]
 8008252:	3301      	adds	r3, #1
 8008254:	687a      	ldr	r2, [r7, #4]
 8008256:	f9b2 2006 	ldrsh.w	r2, [r2, #6]
 800825a:	fb93 f1f2 	sdiv	r1, r3, r2
 800825e:	fb01 f202 	mul.w	r2, r1, r2
 8008262:	1a9b      	subs	r3, r3, r2
 8008264:	b21a      	sxth	r2, r3
 8008266:	687b      	ldr	r3, [r7, #4]
 8008268:	801a      	strh	r2, [r3, #0]
 800826a:	687b      	ldr	r3, [r7, #4]
 800826c:	f9b3 3004 	ldrsh.w	r3, [r3, #4]
 8008270:	b29b      	uxth	r3, r3
 8008272:	3301      	adds	r3, #1
 8008274:	b29b      	uxth	r3, r3
 8008276:	b21a      	sxth	r2, r3
 8008278:	687b      	ldr	r3, [r7, #4]
 800827a:	809a      	strh	r2, [r3, #4]
 800827c:	2301      	movs	r3, #1
 800827e:	4618      	mov	r0, r3
 8008280:	3708      	adds	r7, #8
 8008282:	46bd      	mov	sp, r7
 8008284:	bd80      	pop	{r7, pc}

08008286 <fifo_remove>:
 8008286:	b580      	push	{r7, lr}
 8008288:	b082      	sub	sp, #8
 800828a:	af00      	add	r7, sp, #0
 800828c:	6078      	str	r0, [r7, #4]
 800828e:	6039      	str	r1, [r7, #0]
 8008290:	6878      	ldr	r0, [r7, #4]
 8008292:	f7ff ff98 	bl	80081c6 <fifo_is_empty>
 8008296:	4603      	mov	r3, r0
 8008298:	2b00      	cmp	r3, #0
 800829a:	d001      	beq.n	80082a0 <fifo_remove+0x1a>
 800829c:	2300      	movs	r3, #0
 800829e:	e025      	b.n	80082ec <fifo_remove+0x66>
 80082a0:	683b      	ldr	r3, [r7, #0]
 80082a2:	2b00      	cmp	r3, #0
 80082a4:	d009      	beq.n	80082ba <fifo_remove+0x34>
 80082a6:	687b      	ldr	r3, [r7, #4]
 80082a8:	689a      	ldr	r2, [r3, #8]
 80082aa:	687b      	ldr	r3, [r7, #4]
 80082ac:	f9b3 3002 	ldrsh.w	r3, [r3, #2]
 80082b0:	005b      	lsls	r3, r3, #1
 80082b2:	441a      	add	r2, r3
 80082b4:	683b      	ldr	r3, [r7, #0]
 80082b6:	8812      	ldrh	r2, [r2, #0]
 80082b8:	801a      	strh	r2, [r3, #0]
 80082ba:	687b      	ldr	r3, [r7, #4]
 80082bc:	f9b3 3002 	ldrsh.w	r3, [r3, #2]
 80082c0:	3301      	adds	r3, #1
 80082c2:	687a      	ldr	r2, [r7, #4]
 80082c4:	f9b2 2006 	ldrsh.w	r2, [r2, #6]
 80082c8:	fb93 f1f2 	sdiv	r1, r3, r2
 80082cc:	fb01 f202 	mul.w	r2, r1, r2
 80082d0:	1a9b      	subs	r3, r3, r2
 80082d2:	b21a      	sxth	r2, r3
 80082d4:	687b      	ldr	r3, [r7, #4]
 80082d6:	805a      	strh	r2, [r3, #2]
 80082d8:	687b      	ldr	r3, [r7, #4]
 80082da:	f9b3 3004 	ldrsh.w	r3, [r3, #4]
 80082de:	b29b      	uxth	r3, r3
 80082e0:	3b01      	subs	r3, #1
 80082e2:	b29b      	uxth	r3, r3
 80082e4:	b21a      	sxth	r2, r3
 80082e6:	687b      	ldr	r3, [r7, #4]
 80082e8:	809a      	strh	r2, [r3, #4]
 80082ea:	2301      	movs	r3, #1
 80082ec:	4618      	mov	r0, r3
 80082ee:	3708      	adds	r7, #8
 80082f0:	46bd      	mov	sp, r7
 80082f2:	bd80      	pop	{r7, pc}

080082f4 <fifo_remove_last>:
 80082f4:	b580      	push	{r7, lr}
 80082f6:	b082      	sub	sp, #8
 80082f8:	af00      	add	r7, sp, #0
 80082fa:	6078      	str	r0, [r7, #4]
 80082fc:	6039      	str	r1, [r7, #0]
 80082fe:	6878      	ldr	r0, [r7, #4]
 8008300:	f7ff ff61 	bl	80081c6 <fifo_is_empty>
 8008304:	4603      	mov	r3, r0
 8008306:	2b00      	cmp	r3, #0
 8008308:	d001      	beq.n	800830e <fifo_remove_last+0x1a>
 800830a:	2300      	movs	r3, #0
 800830c:	e02a      	b.n	8008364 <fifo_remove_last+0x70>
 800830e:	687b      	ldr	r3, [r7, #4]
 8008310:	f9b3 3000 	ldrsh.w	r3, [r3]
 8008314:	461a      	mov	r2, r3
 8008316:	687b      	ldr	r3, [r7, #4]
 8008318:	f9b3 3006 	ldrsh.w	r3, [r3, #6]
 800831c:	4413      	add	r3, r2
 800831e:	3b01      	subs	r3, #1
 8008320:	687a      	ldr	r2, [r7, #4]
 8008322:	f9b2 2006 	ldrsh.w	r2, [r2, #6]
 8008326:	fb93 f1f2 	sdiv	r1, r3, r2
 800832a:	fb01 f202 	mul.w	r2, r1, r2
 800832e:	1a9b      	subs	r3, r3, r2
 8008330:	b21a      	sxth	r2, r3
 8008332:	687b      	ldr	r3, [r7, #4]
 8008334:	801a      	strh	r2, [r3, #0]
 8008336:	683b      	ldr	r3, [r7, #0]
 8008338:	2b00      	cmp	r3, #0
 800833a:	d009      	beq.n	8008350 <fifo_remove_last+0x5c>
 800833c:	687b      	ldr	r3, [r7, #4]
 800833e:	689a      	ldr	r2, [r3, #8]
 8008340:	687b      	ldr	r3, [r7, #4]
 8008342:	f9b3 3000 	ldrsh.w	r3, [r3]
 8008346:	005b      	lsls	r3, r3, #1
 8008348:	441a      	add	r2, r3
 800834a:	683b      	ldr	r3, [r7, #0]
 800834c:	8812      	ldrh	r2, [r2, #0]
 800834e:	801a      	strh	r2, [r3, #0]
 8008350:	687b      	ldr	r3, [r7, #4]
 8008352:	f9b3 3004 	ldrsh.w	r3, [r3, #4]
 8008356:	b29b      	uxth	r3, r3
 8008358:	3b01      	subs	r3, #1
 800835a:	b29b      	uxth	r3, r3
 800835c:	b21a      	sxth	r2, r3
 800835e:	687b      	ldr	r3, [r7, #4]
 8008360:	809a      	strh	r2, [r3, #4]
 8008362:	2301      	movs	r3, #1
 8008364:	4618      	mov	r0, r3
 8008366:	3708      	adds	r7, #8
 8008368:	46bd      	mov	sp, r7
 800836a:	bd80      	pop	{r7, pc}

0800836c <fifo_count>:
 800836c:	b480      	push	{r7}
 800836e:	b083      	sub	sp, #12
 8008370:	af00      	add	r7, sp, #0
 8008372:	6078      	str	r0, [r7, #4]
 8008374:	6039      	str	r1, [r7, #0]
 8008376:	687b      	ldr	r3, [r7, #4]
 8008378:	f9b3 2004 	ldrsh.w	r2, [r3, #4]
 800837c:	683b      	ldr	r3, [r7, #0]
 800837e:	801a      	strh	r2, [r3, #0]
 8008380:	2301      	movs	r3, #1
 8008382:	4618      	mov	r0, r3
 8008384:	370c      	adds	r7, #12
 8008386:	46bd      	mov	sp, r7
 8008388:	f85d 7b04 	ldr.w	r7, [sp], #4
 800838c:	4770      	bx	lr

0800838e <sulp>:
 800838e:	b570      	push	{r4, r5, r6, lr}
 8008390:	4604      	mov	r4, r0
 8008392:	460d      	mov	r5, r1
 8008394:	ec45 4b10 	vmov	d0, r4, r5
 8008398:	4616      	mov	r6, r2
 800839a:	f002 fa15 	bl	800a7c8 <__ulp>
 800839e:	ec51 0b10 	vmov	r0, r1, d0
 80083a2:	b17e      	cbz	r6, 80083c4 <sulp+0x36>
 80083a4:	f3c5 530a 	ubfx	r3, r5, #20, #11
 80083a8:	f1c3 036b 	rsb	r3, r3, #107	@ 0x6b
 80083ac:	2b00      	cmp	r3, #0
 80083ae:	dd09      	ble.n	80083c4 <sulp+0x36>
 80083b0:	051b      	lsls	r3, r3, #20
 80083b2:	f103 557f 	add.w	r5, r3, #1069547520	@ 0x3fc00000
 80083b6:	2400      	movs	r4, #0
 80083b8:	f505 1540 	add.w	r5, r5, #3145728	@ 0x300000
 80083bc:	4622      	mov	r2, r4
 80083be:	462b      	mov	r3, r5
 80083c0:	f7f8 f91a 	bl	80005f8 <__aeabi_dmul>
 80083c4:	ec41 0b10 	vmov	d0, r0, r1
 80083c8:	bd70      	pop	{r4, r5, r6, pc}
 80083ca:	0000      	movs	r0, r0
 80083cc:	0000      	movs	r0, r0
	...

080083d0 <_strtod_l>:
 80083d0:	e92d 4ff0 	stmdb	sp!, {r4, r5, r6, r7, r8, r9, sl, fp, lr}
 80083d4:	b09f      	sub	sp, #124	@ 0x7c
 80083d6:	460c      	mov	r4, r1
 80083d8:	9217      	str	r2, [sp, #92]	@ 0x5c
 80083da:	2200      	movs	r2, #0
 80083dc:	921a      	str	r2, [sp, #104]	@ 0x68
 80083de:	9005      	str	r0, [sp, #20]
 80083e0:	f04f 0a00 	mov.w	sl, #0
 80083e4:	f04f 0b00 	mov.w	fp, #0
 80083e8:	460a      	mov	r2, r1
 80083ea:	9219      	str	r2, [sp, #100]	@ 0x64
 80083ec:	7811      	ldrb	r1, [r2, #0]
 80083ee:	292b      	cmp	r1, #43	@ 0x2b
 80083f0:	d04a      	beq.n	8008488 <_strtod_l+0xb8>
 80083f2:	d838      	bhi.n	8008466 <_strtod_l+0x96>
 80083f4:	290d      	cmp	r1, #13
 80083f6:	d832      	bhi.n	800845e <_strtod_l+0x8e>
 80083f8:	2908      	cmp	r1, #8
 80083fa:	d832      	bhi.n	8008462 <_strtod_l+0x92>
 80083fc:	2900      	cmp	r1, #0
 80083fe:	d03b      	beq.n	8008478 <_strtod_l+0xa8>
 8008400:	2200      	movs	r2, #0
 8008402:	920e      	str	r2, [sp, #56]	@ 0x38
 8008404:	9d19      	ldr	r5, [sp, #100]	@ 0x64
 8008406:	782a      	ldrb	r2, [r5, #0]
 8008408:	2a30      	cmp	r2, #48	@ 0x30
 800840a:	f040 80b2 	bne.w	8008572 <_strtod_l+0x1a2>
 800840e:	786a      	ldrb	r2, [r5, #1]
 8008410:	f002 02df 	and.w	r2, r2, #223	@ 0xdf
 8008414:	2a58      	cmp	r2, #88	@ 0x58
 8008416:	d16e      	bne.n	80084f6 <_strtod_l+0x126>
 8008418:	9302      	str	r3, [sp, #8]
 800841a:	9b0e      	ldr	r3, [sp, #56]	@ 0x38
 800841c:	9301      	str	r3, [sp, #4]
 800841e:	ab1a      	add	r3, sp, #104	@ 0x68
 8008420:	9300      	str	r3, [sp, #0]
 8008422:	4a8f      	ldr	r2, [pc, #572]	@ (8008660 <_strtod_l+0x290>)
 8008424:	9805      	ldr	r0, [sp, #20]
 8008426:	ab1b      	add	r3, sp, #108	@ 0x6c
 8008428:	a919      	add	r1, sp, #100	@ 0x64
 800842a:	f001 facf 	bl	80099cc <__gethex>
 800842e:	f010 060f 	ands.w	r6, r0, #15
 8008432:	4604      	mov	r4, r0
 8008434:	d005      	beq.n	8008442 <_strtod_l+0x72>
 8008436:	2e06      	cmp	r6, #6
 8008438:	d128      	bne.n	800848c <_strtod_l+0xbc>
 800843a:	3501      	adds	r5, #1
 800843c:	2300      	movs	r3, #0
 800843e:	9519      	str	r5, [sp, #100]	@ 0x64
 8008440:	930e      	str	r3, [sp, #56]	@ 0x38
 8008442:	9b17      	ldr	r3, [sp, #92]	@ 0x5c
 8008444:	2b00      	cmp	r3, #0
 8008446:	f040 858e 	bne.w	8008f66 <_strtod_l+0xb96>
 800844a:	9b0e      	ldr	r3, [sp, #56]	@ 0x38
 800844c:	b1cb      	cbz	r3, 8008482 <_strtod_l+0xb2>
 800844e:	4652      	mov	r2, sl
 8008450:	f10b 4300 	add.w	r3, fp, #2147483648	@ 0x80000000
 8008454:	ec43 2b10 	vmov	d0, r2, r3
 8008458:	b01f      	add	sp, #124	@ 0x7c
 800845a:	e8bd 8ff0 	ldmia.w	sp!, {r4, r5, r6, r7, r8, r9, sl, fp, pc}
 800845e:	2920      	cmp	r1, #32
 8008460:	d1ce      	bne.n	8008400 <_strtod_l+0x30>
 8008462:	3201      	adds	r2, #1
 8008464:	e7c1      	b.n	80083ea <_strtod_l+0x1a>
 8008466:	292d      	cmp	r1, #45	@ 0x2d
 8008468:	d1ca      	bne.n	8008400 <_strtod_l+0x30>
 800846a:	2101      	movs	r1, #1
 800846c:	910e      	str	r1, [sp, #56]	@ 0x38
 800846e:	1c51      	adds	r1, r2, #1
 8008470:	9119      	str	r1, [sp, #100]	@ 0x64
 8008472:	7852      	ldrb	r2, [r2, #1]
 8008474:	2a00      	cmp	r2, #0
 8008476:	d1c5      	bne.n	8008404 <_strtod_l+0x34>
 8008478:	9b17      	ldr	r3, [sp, #92]	@ 0x5c
 800847a:	9419      	str	r4, [sp, #100]	@ 0x64
 800847c:	2b00      	cmp	r3, #0
 800847e:	f040 8570 	bne.w	8008f62 <_strtod_l+0xb92>
 8008482:	4652      	mov	r2, sl
 8008484:	465b      	mov	r3, fp
 8008486:	e7e5      	b.n	8008454 <_strtod_l+0x84>
 8008488:	2100      	movs	r1, #0
 800848a:	e7ef      	b.n	800846c <_strtod_l+0x9c>
 800848c:	9a1a      	ldr	r2, [sp, #104]	@ 0x68
 800848e:	b13a      	cbz	r2, 80084a0 <_strtod_l+0xd0>
 8008490:	2135      	movs	r1, #53	@ 0x35
 8008492:	a81c      	add	r0, sp, #112	@ 0x70
 8008494:	f002 fa92 	bl	800a9bc <__copybits>
 8008498:	991a      	ldr	r1, [sp, #104]	@ 0x68
 800849a:	9805      	ldr	r0, [sp, #20]
 800849c:	f001 fe68 	bl	800a170 <_Bfree>
 80084a0:	3e01      	subs	r6, #1
 80084a2:	9a1b      	ldr	r2, [sp, #108]	@ 0x6c
 80084a4:	2e04      	cmp	r6, #4
 80084a6:	d806      	bhi.n	80084b6 <_strtod_l+0xe6>
 80084a8:	e8df f006 	tbb	[pc, r6]
 80084ac:	201d0314 	.word	0x201d0314
 80084b0:	14          	.byte	0x14
 80084b1:	00          	.byte	0x00
 80084b2:	e9dd ab1c 	ldrd	sl, fp, [sp, #112]	@ 0x70
 80084b6:	05e1      	lsls	r1, r4, #23
 80084b8:	bf48      	it	mi
 80084ba:	f04b 4b00 	orrmi.w	fp, fp, #2147483648	@ 0x80000000
 80084be:	f02b 4300 	bic.w	r3, fp, #2147483648	@ 0x80000000
 80084c2:	0d1b      	lsrs	r3, r3, #20
 80084c4:	051b      	lsls	r3, r3, #20
 80084c6:	2b00      	cmp	r3, #0
 80084c8:	d1bb      	bne.n	8008442 <_strtod_l+0x72>
 80084ca:	f001 f987 	bl	80097dc <__errno>
 80084ce:	2322      	movs	r3, #34	@ 0x22
 80084d0:	6003      	str	r3, [r0, #0]
 80084d2:	e7b6      	b.n	8008442 <_strtod_l+0x72>
 80084d4:	e9dd a31c 	ldrd	sl, r3, [sp, #112]	@ 0x70
 80084d8:	f202 4233 	addw	r2, r2, #1075	@ 0x433
 80084dc:	f423 1380 	bic.w	r3, r3, #1048576	@ 0x100000
 80084e0:	ea43 5b02 	orr.w	fp, r3, r2, lsl #20
 80084e4:	e7e7      	b.n	80084b6 <_strtod_l+0xe6>
 80084e6:	f8df b180 	ldr.w	fp, [pc, #384]	@ 8008668 <_strtod_l+0x298>
 80084ea:	e7e4      	b.n	80084b6 <_strtod_l+0xe6>
 80084ec:	f06f 4b00 	mvn.w	fp, #2147483648	@ 0x80000000
 80084f0:	f04f 3aff 	mov.w	sl, #4294967295
 80084f4:	e7df      	b.n	80084b6 <_strtod_l+0xe6>
 80084f6:	9b19      	ldr	r3, [sp, #100]	@ 0x64
 80084f8:	1c5a      	adds	r2, r3, #1
 80084fa:	9219      	str	r2, [sp, #100]	@ 0x64
 80084fc:	785b      	ldrb	r3, [r3, #1]
 80084fe:	2b30      	cmp	r3, #48	@ 0x30
 8008500:	d0f9      	beq.n	80084f6 <_strtod_l+0x126>
 8008502:	2b00      	cmp	r3, #0
 8008504:	d09d      	beq.n	8008442 <_strtod_l+0x72>
 8008506:	2301      	movs	r3, #1
 8008508:	2700      	movs	r7, #0
 800850a:	9308      	str	r3, [sp, #32]
 800850c:	9b19      	ldr	r3, [sp, #100]	@ 0x64
 800850e:	930c      	str	r3, [sp, #48]	@ 0x30
 8008510:	970b      	str	r7, [sp, #44]	@ 0x2c
 8008512:	46b9      	mov	r9, r7
 8008514:	220a      	movs	r2, #10
 8008516:	9819      	ldr	r0, [sp, #100]	@ 0x64
 8008518:	7805      	ldrb	r5, [r0, #0]
 800851a:	f1a5 0330 	sub.w	r3, r5, #48	@ 0x30
 800851e:	b2d9      	uxtb	r1, r3
 8008520:	2909      	cmp	r1, #9
 8008522:	d928      	bls.n	8008576 <_strtod_l+0x1a6>
 8008524:	494f      	ldr	r1, [pc, #316]	@ (8008664 <_strtod_l+0x294>)
 8008526:	2201      	movs	r2, #1
 8008528:	f001 f8f4 	bl	8009714 <strncmp>
 800852c:	2800      	cmp	r0, #0
 800852e:	d032      	beq.n	8008596 <_strtod_l+0x1c6>
 8008530:	2000      	movs	r0, #0
 8008532:	462a      	mov	r2, r5
 8008534:	900a      	str	r0, [sp, #40]	@ 0x28
 8008536:	464d      	mov	r5, r9
 8008538:	4603      	mov	r3, r0
 800853a:	2a65      	cmp	r2, #101	@ 0x65
 800853c:	d001      	beq.n	8008542 <_strtod_l+0x172>
 800853e:	2a45      	cmp	r2, #69	@ 0x45
 8008540:	d114      	bne.n	800856c <_strtod_l+0x19c>
 8008542:	b91d      	cbnz	r5, 800854c <_strtod_l+0x17c>
 8008544:	9a08      	ldr	r2, [sp, #32]
 8008546:	4302      	orrs	r2, r0
 8008548:	d096      	beq.n	8008478 <_strtod_l+0xa8>
 800854a:	2500      	movs	r5, #0
 800854c:	9c19      	ldr	r4, [sp, #100]	@ 0x64
 800854e:	1c62      	adds	r2, r4, #1
 8008550:	9219      	str	r2, [sp, #100]	@ 0x64
 8008552:	7862      	ldrb	r2, [r4, #1]
 8008554:	2a2b      	cmp	r2, #43	@ 0x2b
 8008556:	d07a      	beq.n	800864e <_strtod_l+0x27e>
 8008558:	2a2d      	cmp	r2, #45	@ 0x2d
 800855a:	d07e      	beq.n	800865a <_strtod_l+0x28a>
 800855c:	f04f 0c00 	mov.w	ip, #0
 8008560:	f1a2 0130 	sub.w	r1, r2, #48	@ 0x30
 8008564:	2909      	cmp	r1, #9
 8008566:	f240 8085 	bls.w	8008674 <_strtod_l+0x2a4>
 800856a:	9419      	str	r4, [sp, #100]	@ 0x64
 800856c:	f04f 0800 	mov.w	r8, #0
 8008570:	e0a5      	b.n	80086be <_strtod_l+0x2ee>
 8008572:	2300      	movs	r3, #0
 8008574:	e7c8      	b.n	8008508 <_strtod_l+0x138>
 8008576:	f1b9 0f08 	cmp.w	r9, #8
 800857a:	bfd8      	it	le
 800857c:	990b      	ldrle	r1, [sp, #44]	@ 0x2c
 800857e:	f100 0001 	add.w	r0, r0, #1
 8008582:	bfda      	itte	le
 8008584:	fb02 3301 	mlale	r3, r2, r1, r3
 8008588:	930b      	strle	r3, [sp, #44]	@ 0x2c
 800858a:	fb02 3707 	mlagt	r7, r2, r7, r3
 800858e:	f109 0901 	add.w	r9, r9, #1
 8008592:	9019      	str	r0, [sp, #100]	@ 0x64
 8008594:	e7bf      	b.n	8008516 <_strtod_l+0x146>
 8008596:	9b19      	ldr	r3, [sp, #100]	@ 0x64
 8008598:	1c5a      	adds	r2, r3, #1
 800859a:	9219      	str	r2, [sp, #100]	@ 0x64
 800859c:	785a      	ldrb	r2, [r3, #1]
 800859e:	f1b9 0f00 	cmp.w	r9, #0
 80085a2:	d03b      	beq.n	800861c <_strtod_l+0x24c>
 80085a4:	900a      	str	r0, [sp, #40]	@ 0x28
 80085a6:	464d      	mov	r5, r9
 80085a8:	f1a2 0330 	sub.w	r3, r2, #48	@ 0x30
 80085ac:	2b09      	cmp	r3, #9
 80085ae:	d912      	bls.n	80085d6 <_strtod_l+0x206>
 80085b0:	2301      	movs	r3, #1
 80085b2:	e7c2      	b.n	800853a <_strtod_l+0x16a>
 80085b4:	9b19      	ldr	r3, [sp, #100]	@ 0x64
 80085b6:	1c5a      	adds	r2, r3, #1
 80085b8:	9219      	str	r2, [sp, #100]	@ 0x64
 80085ba:	785a      	ldrb	r2, [r3, #1]
 80085bc:	3001      	adds	r0, #1
 80085be:	2a30      	cmp	r2, #48	@ 0x30
 80085c0:	d0f8      	beq.n	80085b4 <_strtod_l+0x1e4>
 80085c2:	f1a2 0331 	sub.w	r3, r2, #49	@ 0x31
 80085c6:	2b08      	cmp	r3, #8
 80085c8:	f200 84d2 	bhi.w	8008f70 <_strtod_l+0xba0>
 80085cc:	9b19      	ldr	r3, [sp, #100]	@ 0x64
 80085ce:	900a      	str	r0, [sp, #40]	@ 0x28
 80085d0:	2000      	movs	r0, #0
 80085d2:	930c      	str	r3, [sp, #48]	@ 0x30
 80085d4:	4605      	mov	r5, r0
 80085d6:	3a30      	subs	r2, #48	@ 0x30
 80085d8:	f100 0301 	add.w	r3, r0, #1
 80085dc:	d018      	beq.n	8008610 <_strtod_l+0x240>
 80085de:	990a      	ldr	r1, [sp, #40]	@ 0x28
 80085e0:	4419      	add	r1, r3
 80085e2:	910a      	str	r1, [sp, #40]	@ 0x28
 80085e4:	462e      	mov	r6, r5
 80085e6:	f04f 0e0a 	mov.w	lr, #10
 80085ea:	1c71      	adds	r1, r6, #1
 80085ec:	eba1 0c05 	sub.w	ip, r1, r5
 80085f0:	4563      	cmp	r3, ip
 80085f2:	dc15      	bgt.n	8008620 <_strtod_l+0x250>
 80085f4:	ea20 70e0 	bic.w	r0, r0, r0, asr #31
 80085f8:	182b      	adds	r3, r5, r0
 80085fa:	2b08      	cmp	r3, #8
 80085fc:	f105 0501 	add.w	r5, r5, #1
 8008600:	4405      	add	r5, r0
 8008602:	dc1a      	bgt.n	800863a <_strtod_l+0x26a>
 8008604:	990b      	ldr	r1, [sp, #44]	@ 0x2c
 8008606:	230a      	movs	r3, #10
 8008608:	fb03 2301 	mla	r3, r3, r1, r2
 800860c:	930b      	str	r3, [sp, #44]	@ 0x2c
 800860e:	2300      	movs	r3, #0
 8008610:	9a19      	ldr	r2, [sp, #100]	@ 0x64
 8008612:	1c51      	adds	r1, r2, #1
 8008614:	9119      	str	r1, [sp, #100]	@ 0x64
 8008616:	7852      	ldrb	r2, [r2, #1]
 8008618:	4618      	mov	r0, r3
 800861a:	e7c5      	b.n	80085a8 <_strtod_l+0x1d8>
 800861c:	4648      	mov	r0, r9
 800861e:	e7ce      	b.n	80085be <_strtod_l+0x1ee>
 8008620:	2e08      	cmp	r6, #8
 8008622:	dc05      	bgt.n	8008630 <_strtod_l+0x260>
 8008624:	9e0b      	ldr	r6, [sp, #44]	@ 0x2c
 8008626:	fb0e f606 	mul.w	r6, lr, r6
 800862a:	960b      	str	r6, [sp, #44]	@ 0x2c
 800862c:	460e      	mov	r6, r1
 800862e:	e7dc      	b.n	80085ea <_strtod_l+0x21a>
 8008630:	2910      	cmp	r1, #16
 8008632:	bfd8      	it	le
 8008634:	fb0e f707 	mulle.w	r7, lr, r7
 8008638:	e7f8      	b.n	800862c <_strtod_l+0x25c>
 800863a:	2b0f      	cmp	r3, #15
 800863c:	bfdc      	itt	le
 800863e:	230a      	movle	r3, #10
 8008640:	fb03 2707 	mlale	r7, r3, r7, r2
 8008644:	e7e3      	b.n	800860e <_strtod_l+0x23e>
 8008646:	2300      	movs	r3, #0
 8008648:	930a      	str	r3, [sp, #40]	@ 0x28
 800864a:	2301      	movs	r3, #1
 800864c:	e77a      	b.n	8008544 <_strtod_l+0x174>
 800864e:	f04f 0c00 	mov.w	ip, #0
 8008652:	1ca2      	adds	r2, r4, #2
 8008654:	9219      	str	r2, [sp, #100]	@ 0x64
 8008656:	78a2      	ldrb	r2, [r4, #2]
 8008658:	e782      	b.n	8008560 <_strtod_l+0x190>
 800865a:	f04f 0c01 	mov.w	ip, #1
 800865e:	e7f8      	b.n	8008652 <_strtod_l+0x282>
 8008660:	0800c30c 	.word	0x0800c30c
 8008664:	0800bc86 	.word	0x0800bc86
 8008668:	7ff00000 	.word	0x7ff00000
 800866c:	9a19      	ldr	r2, [sp, #100]	@ 0x64
 800866e:	1c51      	adds	r1, r2, #1
 8008670:	9119      	str	r1, [sp, #100]	@ 0x64
 8008672:	7852      	ldrb	r2, [r2, #1]
 8008674:	2a30      	cmp	r2, #48	@ 0x30
 8008676:	d0f9      	beq.n	800866c <_strtod_l+0x29c>
 8008678:	f1a2 0131 	sub.w	r1, r2, #49	@ 0x31
 800867c:	2908      	cmp	r1, #8
 800867e:	f63f af75 	bhi.w	800856c <_strtod_l+0x19c>
 8008682:	3a30      	subs	r2, #48	@ 0x30
 8008684:	9209      	str	r2, [sp, #36]	@ 0x24
 8008686:	9a19      	ldr	r2, [sp, #100]	@ 0x64
 8008688:	920f      	str	r2, [sp, #60]	@ 0x3c
 800868a:	f04f 080a 	mov.w	r8, #10
 800868e:	9a19      	ldr	r2, [sp, #100]	@ 0x64
 8008690:	1c56      	adds	r6, r2, #1
 8008692:	9619      	str	r6, [sp, #100]	@ 0x64
 8008694:	7852      	ldrb	r2, [r2, #1]
 8008696:	f1a2 0e30 	sub.w	lr, r2, #48	@ 0x30
 800869a:	f1be 0f09 	cmp.w	lr, #9
 800869e:	d939      	bls.n	8008714 <_strtod_l+0x344>
 80086a0:	990f      	ldr	r1, [sp, #60]	@ 0x3c
 80086a2:	1a76      	subs	r6, r6, r1
 80086a4:	2e08      	cmp	r6, #8
 80086a6:	f644 681f 	movw	r8, #19999	@ 0x4e1f
 80086aa:	dc03      	bgt.n	80086b4 <_strtod_l+0x2e4>
 80086ac:	9909      	ldr	r1, [sp, #36]	@ 0x24
 80086ae:	4588      	cmp	r8, r1
 80086b0:	bfa8      	it	ge
 80086b2:	4688      	movge	r8, r1
 80086b4:	f1bc 0f00 	cmp.w	ip, #0
 80086b8:	d001      	beq.n	80086be <_strtod_l+0x2ee>
 80086ba:	f1c8 0800 	rsb	r8, r8, #0
 80086be:	2d00      	cmp	r5, #0
 80086c0:	d14e      	bne.n	8008760 <_strtod_l+0x390>
 80086c2:	9908      	ldr	r1, [sp, #32]
 80086c4:	4308      	orrs	r0, r1
 80086c6:	f47f aebc 	bne.w	8008442 <_strtod_l+0x72>
 80086ca:	2b00      	cmp	r3, #0
 80086cc:	f47f aed4 	bne.w	8008478 <_strtod_l+0xa8>
 80086d0:	2a69      	cmp	r2, #105	@ 0x69
 80086d2:	d028      	beq.n	8008726 <_strtod_l+0x356>
 80086d4:	dc25      	bgt.n	8008722 <_strtod_l+0x352>
 80086d6:	2a49      	cmp	r2, #73	@ 0x49
 80086d8:	d025      	beq.n	8008726 <_strtod_l+0x356>
 80086da:	2a4e      	cmp	r2, #78	@ 0x4e
 80086dc:	f47f aecc 	bne.w	8008478 <_strtod_l+0xa8>
 80086e0:	499a      	ldr	r1, [pc, #616]	@ (800894c <_strtod_l+0x57c>)
 80086e2:	a819      	add	r0, sp, #100	@ 0x64
 80086e4:	f001 fb94 	bl	8009e10 <__match>
 80086e8:	2800      	cmp	r0, #0
 80086ea:	f43f aec5 	beq.w	8008478 <_strtod_l+0xa8>
 80086ee:	9b19      	ldr	r3, [sp, #100]	@ 0x64
 80086f0:	781b      	ldrb	r3, [r3, #0]
 80086f2:	2b28      	cmp	r3, #40	@ 0x28
 80086f4:	d12e      	bne.n	8008754 <_strtod_l+0x384>
 80086f6:	4996      	ldr	r1, [pc, #600]	@ (8008950 <_strtod_l+0x580>)
 80086f8:	aa1c      	add	r2, sp, #112	@ 0x70
 80086fa:	a819      	add	r0, sp, #100	@ 0x64
 80086fc:	f001 fb9c 	bl	8009e38 <__hexnan>
 8008700:	2805      	cmp	r0, #5
 8008702:	d127      	bne.n	8008754 <_strtod_l+0x384>
 8008704:	9b1d      	ldr	r3, [sp, #116]	@ 0x74
 8008706:	f8dd a070 	ldr.w	sl, [sp, #112]	@ 0x70
 800870a:	f043 4bff 	orr.w	fp, r3, #2139095040	@ 0x7f800000
 800870e:	f44b 0be0 	orr.w	fp, fp, #7340032	@ 0x700000
 8008712:	e696      	b.n	8008442 <_strtod_l+0x72>
 8008714:	9909      	ldr	r1, [sp, #36]	@ 0x24
 8008716:	fb08 2101 	mla	r1, r8, r1, r2
 800871a:	f1a1 0230 	sub.w	r2, r1, #48	@ 0x30
 800871e:	9209      	str	r2, [sp, #36]	@ 0x24
 8008720:	e7b5      	b.n	800868e <_strtod_l+0x2be>
 8008722:	2a6e      	cmp	r2, #110	@ 0x6e
 8008724:	e7da      	b.n	80086dc <_strtod_l+0x30c>
 8008726:	498b      	ldr	r1, [pc, #556]	@ (8008954 <_strtod_l+0x584>)
 8008728:	a819      	add	r0, sp, #100	@ 0x64
 800872a:	f001 fb71 	bl	8009e10 <__match>
 800872e:	2800      	cmp	r0, #0
 8008730:	f43f aea2 	beq.w	8008478 <_strtod_l+0xa8>
 8008734:	9b19      	ldr	r3, [sp, #100]	@ 0x64
 8008736:	4988      	ldr	r1, [pc, #544]	@ (8008958 <_strtod_l+0x588>)
 8008738:	3b01      	subs	r3, #1
 800873a:	a819      	add	r0, sp, #100	@ 0x64
 800873c:	9319      	str	r3, [sp, #100]	@ 0x64
 800873e:	f001 fb67 	bl	8009e10 <__match>
 8008742:	b910      	cbnz	r0, 800874a <_strtod_l+0x37a>
 8008744:	9b19      	ldr	r3, [sp, #100]	@ 0x64
 8008746:	3301      	adds	r3, #1
 8008748:	9319      	str	r3, [sp, #100]	@ 0x64
 800874a:	f8df b21c 	ldr.w	fp, [pc, #540]	@ 8008968 <_strtod_l+0x598>
 800874e:	f04f 0a00 	mov.w	sl, #0
 8008752:	e676      	b.n	8008442 <_strtod_l+0x72>
 8008754:	4881      	ldr	r0, [pc, #516]	@ (800895c <_strtod_l+0x58c>)
 8008756:	f001 f87f 	bl	8009858 <nan>
 800875a:	ec5b ab10 	vmov	sl, fp, d0
 800875e:	e670      	b.n	8008442 <_strtod_l+0x72>
 8008760:	9b0a      	ldr	r3, [sp, #40]	@ 0x28
 8008762:	980b      	ldr	r0, [sp, #44]	@ 0x2c
 8008764:	eba8 0303 	sub.w	r3, r8, r3
 8008768:	f1b9 0f00 	cmp.w	r9, #0
 800876c:	bf08      	it	eq
 800876e:	46a9      	moveq	r9, r5
 8008770:	2d10      	cmp	r5, #16
 8008772:	9309      	str	r3, [sp, #36]	@ 0x24
 8008774:	462c      	mov	r4, r5
 8008776:	bfa8      	it	ge
 8008778:	2410      	movge	r4, #16
 800877a:	f7f7 fec3 	bl	8000504 <__aeabi_ui2d>
 800877e:	2d09      	cmp	r5, #9
 8008780:	4682      	mov	sl, r0
 8008782:	468b      	mov	fp, r1
 8008784:	dc13      	bgt.n	80087ae <_strtod_l+0x3de>
 8008786:	9b09      	ldr	r3, [sp, #36]	@ 0x24
 8008788:	2b00      	cmp	r3, #0
 800878a:	f43f ae5a 	beq.w	8008442 <_strtod_l+0x72>
 800878e:	9b09      	ldr	r3, [sp, #36]	@ 0x24
 8008790:	dd78      	ble.n	8008884 <_strtod_l+0x4b4>
 8008792:	2b16      	cmp	r3, #22
 8008794:	dc5f      	bgt.n	8008856 <_strtod_l+0x486>
 8008796:	4972      	ldr	r1, [pc, #456]	@ (8008960 <_strtod_l+0x590>)
 8008798:	eb01 01c3 	add.w	r1, r1, r3, lsl #3
 800879c:	e9d1 0100 	ldrd	r0, r1, [r1]
 80087a0:	4652      	mov	r2, sl
 80087a2:	465b      	mov	r3, fp
 80087a4:	f7f7 ff28 	bl	80005f8 <__aeabi_dmul>
 80087a8:	4682      	mov	sl, r0
 80087aa:	468b      	mov	fp, r1
 80087ac:	e649      	b.n	8008442 <_strtod_l+0x72>
 80087ae:	4b6c      	ldr	r3, [pc, #432]	@ (8008960 <_strtod_l+0x590>)
 80087b0:	eb03 03c4 	add.w	r3, r3, r4, lsl #3
 80087b4:	e953 2312 	ldrd	r2, r3, [r3, #-72]	@ 0x48
 80087b8:	f7f7 ff1e 	bl	80005f8 <__aeabi_dmul>
 80087bc:	4682      	mov	sl, r0
 80087be:	4638      	mov	r0, r7
 80087c0:	468b      	mov	fp, r1
 80087c2:	f7f7 fe9f 	bl	8000504 <__aeabi_ui2d>
 80087c6:	4602      	mov	r2, r0
 80087c8:	460b      	mov	r3, r1
 80087ca:	4650      	mov	r0, sl
 80087cc:	4659      	mov	r1, fp
 80087ce:	f7f7 fd5d 	bl	800028c <__adddf3>
 80087d2:	2d0f      	cmp	r5, #15
 80087d4:	4682      	mov	sl, r0
 80087d6:	468b      	mov	fp, r1
 80087d8:	ddd5      	ble.n	8008786 <_strtod_l+0x3b6>
 80087da:	9b09      	ldr	r3, [sp, #36]	@ 0x24
 80087dc:	1b2c      	subs	r4, r5, r4
 80087de:	441c      	add	r4, r3
 80087e0:	2c00      	cmp	r4, #0
 80087e2:	f340 8093 	ble.w	800890c <_strtod_l+0x53c>
 80087e6:	f014 030f 	ands.w	r3, r4, #15
 80087ea:	d00a      	beq.n	8008802 <_strtod_l+0x432>
 80087ec:	495c      	ldr	r1, [pc, #368]	@ (8008960 <_strtod_l+0x590>)
 80087ee:	eb01 01c3 	add.w	r1, r1, r3, lsl #3
 80087f2:	4652      	mov	r2, sl
 80087f4:	465b      	mov	r3, fp
 80087f6:	e9d1 0100 	ldrd	r0, r1, [r1]
 80087fa:	f7f7 fefd 	bl	80005f8 <__aeabi_dmul>
 80087fe:	4682      	mov	sl, r0
 8008800:	468b      	mov	fp, r1
 8008802:	f034 040f 	bics.w	r4, r4, #15
 8008806:	d073      	beq.n	80088f0 <_strtod_l+0x520>
 8008808:	f5b4 7f9a 	cmp.w	r4, #308	@ 0x134
 800880c:	dd49      	ble.n	80088a2 <_strtod_l+0x4d2>
 800880e:	2400      	movs	r4, #0
 8008810:	46a0      	mov	r8, r4
 8008812:	940b      	str	r4, [sp, #44]	@ 0x2c
 8008814:	46a1      	mov	r9, r4
 8008816:	9a05      	ldr	r2, [sp, #20]
 8008818:	f8df b14c 	ldr.w	fp, [pc, #332]	@ 8008968 <_strtod_l+0x598>
 800881c:	2322      	movs	r3, #34	@ 0x22
 800881e:	6013      	str	r3, [r2, #0]
 8008820:	f04f 0a00 	mov.w	sl, #0
 8008824:	9b0b      	ldr	r3, [sp, #44]	@ 0x2c
 8008826:	2b00      	cmp	r3, #0
 8008828:	f43f ae0b 	beq.w	8008442 <_strtod_l+0x72>
 800882c:	991a      	ldr	r1, [sp, #104]	@ 0x68
 800882e:	9805      	ldr	r0, [sp, #20]
 8008830:	f001 fc9e 	bl	800a170 <_Bfree>
 8008834:	9805      	ldr	r0, [sp, #20]
 8008836:	4649      	mov	r1, r9
 8008838:	f001 fc9a 	bl	800a170 <_Bfree>
 800883c:	9805      	ldr	r0, [sp, #20]
 800883e:	4641      	mov	r1, r8
 8008840:	f001 fc96 	bl	800a170 <_Bfree>
 8008844:	990b      	ldr	r1, [sp, #44]	@ 0x2c
 8008846:	9805      	ldr	r0, [sp, #20]
 8008848:	f001 fc92 	bl	800a170 <_Bfree>
 800884c:	9805      	ldr	r0, [sp, #20]
 800884e:	4621      	mov	r1, r4
 8008850:	f001 fc8e 	bl	800a170 <_Bfree>
 8008854:	e5f5      	b.n	8008442 <_strtod_l+0x72>
 8008856:	9a09      	ldr	r2, [sp, #36]	@ 0x24
 8008858:	f1c5 0325 	rsb	r3, r5, #37	@ 0x25
 800885c:	4293      	cmp	r3, r2
 800885e:	dbbc      	blt.n	80087da <_strtod_l+0x40a>
 8008860:	4c3f      	ldr	r4, [pc, #252]	@ (8008960 <_strtod_l+0x590>)
 8008862:	f1c5 050f 	rsb	r5, r5, #15
 8008866:	eb04 01c5 	add.w	r1, r4, r5, lsl #3
 800886a:	4652      	mov	r2, sl
 800886c:	465b      	mov	r3, fp
 800886e:	e9d1 0100 	ldrd	r0, r1, [r1]
 8008872:	f7f7 fec1 	bl	80005f8 <__aeabi_dmul>
 8008876:	9b09      	ldr	r3, [sp, #36]	@ 0x24
 8008878:	1b5d      	subs	r5, r3, r5
 800887a:	eb04 04c5 	add.w	r4, r4, r5, lsl #3
 800887e:	e9d4 2300 	ldrd	r2, r3, [r4]
 8008882:	e78f      	b.n	80087a4 <_strtod_l+0x3d4>
 8008884:	3316      	adds	r3, #22
 8008886:	dba8      	blt.n	80087da <_strtod_l+0x40a>
 8008888:	9b0a      	ldr	r3, [sp, #40]	@ 0x28
 800888a:	eba3 0808 	sub.w	r8, r3, r8
 800888e:	4b34      	ldr	r3, [pc, #208]	@ (8008960 <_strtod_l+0x590>)
 8008890:	eb03 08c8 	add.w	r8, r3, r8, lsl #3
 8008894:	e9d8 2300 	ldrd	r2, r3, [r8]
 8008898:	4650      	mov	r0, sl
 800889a:	4659      	mov	r1, fp
 800889c:	f7f7 ffd6 	bl	800084c <__aeabi_ddiv>
 80088a0:	e782      	b.n	80087a8 <_strtod_l+0x3d8>
 80088a2:	2300      	movs	r3, #0
 80088a4:	4f2f      	ldr	r7, [pc, #188]	@ (8008964 <_strtod_l+0x594>)
 80088a6:	1124      	asrs	r4, r4, #4
 80088a8:	4650      	mov	r0, sl
 80088aa:	4659      	mov	r1, fp
 80088ac:	461e      	mov	r6, r3
 80088ae:	2c01      	cmp	r4, #1
 80088b0:	dc21      	bgt.n	80088f6 <_strtod_l+0x526>
 80088b2:	b10b      	cbz	r3, 80088b8 <_strtod_l+0x4e8>
 80088b4:	4682      	mov	sl, r0
 80088b6:	468b      	mov	fp, r1
 80088b8:	492a      	ldr	r1, [pc, #168]	@ (8008964 <_strtod_l+0x594>)
 80088ba:	f1ab 7b54 	sub.w	fp, fp, #55574528	@ 0x3500000
 80088be:	eb01 01c6 	add.w	r1, r1, r6, lsl #3
 80088c2:	4652      	mov	r2, sl
 80088c4:	465b      	mov	r3, fp
 80088c6:	e9d1 0100 	ldrd	r0, r1, [r1]
 80088ca:	f7f7 fe95 	bl	80005f8 <__aeabi_dmul>
 80088ce:	4b26      	ldr	r3, [pc, #152]	@ (8008968 <_strtod_l+0x598>)
 80088d0:	460a      	mov	r2, r1
 80088d2:	400b      	ands	r3, r1
 80088d4:	4925      	ldr	r1, [pc, #148]	@ (800896c <_strtod_l+0x59c>)
 80088d6:	428b      	cmp	r3, r1
 80088d8:	4682      	mov	sl, r0
 80088da:	d898      	bhi.n	800880e <_strtod_l+0x43e>
 80088dc:	f5a1 1180 	sub.w	r1, r1, #1048576	@ 0x100000
 80088e0:	428b      	cmp	r3, r1
 80088e2:	bf86      	itte	hi
 80088e4:	f8df b088 	ldrhi.w	fp, [pc, #136]	@ 8008970 <_strtod_l+0x5a0>
 80088e8:	f04f 3aff 	movhi.w	sl, #4294967295
 80088ec:	f102 7b54 	addls.w	fp, r2, #55574528	@ 0x3500000
 80088f0:	2300      	movs	r3, #0
 80088f2:	9308      	str	r3, [sp, #32]
 80088f4:	e076      	b.n	80089e4 <_strtod_l+0x614>
 80088f6:	07e2      	lsls	r2, r4, #31
 80088f8:	d504      	bpl.n	8008904 <_strtod_l+0x534>
 80088fa:	e9d7 2300 	ldrd	r2, r3, [r7]
 80088fe:	f7f7 fe7b 	bl	80005f8 <__aeabi_dmul>
 8008902:	2301      	movs	r3, #1
 8008904:	3601      	adds	r6, #1
 8008906:	1064      	asrs	r4, r4, #1
 8008908:	3708      	adds	r7, #8
 800890a:	e7d0      	b.n	80088ae <_strtod_l+0x4de>
 800890c:	d0f0      	beq.n	80088f0 <_strtod_l+0x520>
 800890e:	4264      	negs	r4, r4
 8008910:	f014 020f 	ands.w	r2, r4, #15
 8008914:	d00a      	beq.n	800892c <_strtod_l+0x55c>
 8008916:	4b12      	ldr	r3, [pc, #72]	@ (8008960 <_strtod_l+0x590>)
 8008918:	eb03 03c2 	add.w	r3, r3, r2, lsl #3
 800891c:	4650      	mov	r0, sl
 800891e:	4659      	mov	r1, fp
 8008920:	e9d3 2300 	ldrd	r2, r3, [r3]
 8008924:	f7f7 ff92 	bl	800084c <__aeabi_ddiv>
 8008928:	4682      	mov	sl, r0
 800892a:	468b      	mov	fp, r1
 800892c:	1124      	asrs	r4, r4, #4
 800892e:	d0df      	beq.n	80088f0 <_strtod_l+0x520>
 8008930:	2c1f      	cmp	r4, #31
 8008932:	dd1f      	ble.n	8008974 <_strtod_l+0x5a4>
 8008934:	2400      	movs	r4, #0
 8008936:	46a0      	mov	r8, r4
 8008938:	940b      	str	r4, [sp, #44]	@ 0x2c
 800893a:	46a1      	mov	r9, r4
 800893c:	9a05      	ldr	r2, [sp, #20]
 800893e:	2322      	movs	r3, #34	@ 0x22
 8008940:	f04f 0a00 	mov.w	sl, #0
 8008944:	f04f 0b00 	mov.w	fp, #0
 8008948:	6013      	str	r3, [r2, #0]
 800894a:	e76b      	b.n	8008824 <_strtod_l+0x454>
 800894c:	0800bc91 	.word	0x0800bc91
 8008950:	0800c2f8 	.word	0x0800c2f8
 8008954:	0800bc88 	.word	0x0800bc88
 8008958:	0800bc8b 	.word	0x0800bc8b
 800895c:	0800ba85 	.word	0x0800ba85
 8008960:	0800c480 	.word	0x0800c480
 8008964:	0800c458 	.word	0x0800c458
 8008968:	7ff00000 	.word	0x7ff00000
 800896c:	7ca00000 	.word	0x7ca00000
 8008970:	7fefffff 	.word	0x7fefffff
 8008974:	f014 0310 	ands.w	r3, r4, #16
 8008978:	bf18      	it	ne
 800897a:	236a      	movne	r3, #106	@ 0x6a
 800897c:	4ea9      	ldr	r6, [pc, #676]	@ (8008c24 <_strtod_l+0x854>)
 800897e:	9308      	str	r3, [sp, #32]
 8008980:	4650      	mov	r0, sl
 8008982:	4659      	mov	r1, fp
 8008984:	2300      	movs	r3, #0
 8008986:	07e7      	lsls	r7, r4, #31
 8008988:	d504      	bpl.n	8008994 <_strtod_l+0x5c4>
 800898a:	e9d6 2300 	ldrd	r2, r3, [r6]
 800898e:	f7f7 fe33 	bl	80005f8 <__aeabi_dmul>
 8008992:	2301      	movs	r3, #1
 8008994:	1064      	asrs	r4, r4, #1
 8008996:	f106 0608 	add.w	r6, r6, #8
 800899a:	d1f4      	bne.n	8008986 <_strtod_l+0x5b6>
 800899c:	b10b      	cbz	r3, 80089a2 <_strtod_l+0x5d2>
 800899e:	4682      	mov	sl, r0
 80089a0:	468b      	mov	fp, r1
 80089a2:	9b08      	ldr	r3, [sp, #32]
 80089a4:	b1b3      	cbz	r3, 80089d4 <_strtod_l+0x604>
 80089a6:	f3cb 520a 	ubfx	r2, fp, #20, #11
 80089aa:	f1c2 036b 	rsb	r3, r2, #107	@ 0x6b
 80089ae:	2b00      	cmp	r3, #0
 80089b0:	4659      	mov	r1, fp
 80089b2:	dd0f      	ble.n	80089d4 <_strtod_l+0x604>
 80089b4:	2b1f      	cmp	r3, #31
 80089b6:	dd56      	ble.n	8008a66 <_strtod_l+0x696>
 80089b8:	2b34      	cmp	r3, #52	@ 0x34
 80089ba:	bfde      	ittt	le
 80089bc:	f04f 33ff 	movle.w	r3, #4294967295
 80089c0:	f1c2 024b 	rsble	r2, r2, #75	@ 0x4b
 80089c4:	4093      	lslle	r3, r2
 80089c6:	f04f 0a00 	mov.w	sl, #0
 80089ca:	bfcc      	ite	gt
 80089cc:	f04f 7b5c 	movgt.w	fp, #57671680	@ 0x3700000
 80089d0:	ea03 0b01 	andle.w	fp, r3, r1
 80089d4:	2200      	movs	r2, #0
 80089d6:	2300      	movs	r3, #0
 80089d8:	4650      	mov	r0, sl
 80089da:	4659      	mov	r1, fp
 80089dc:	f7f8 f874 	bl	8000ac8 <__aeabi_dcmpeq>
 80089e0:	2800      	cmp	r0, #0
 80089e2:	d1a7      	bne.n	8008934 <_strtod_l+0x564>
 80089e4:	9b0b      	ldr	r3, [sp, #44]	@ 0x2c
 80089e6:	9300      	str	r3, [sp, #0]
 80089e8:	990c      	ldr	r1, [sp, #48]	@ 0x30
 80089ea:	9805      	ldr	r0, [sp, #20]
 80089ec:	462b      	mov	r3, r5
 80089ee:	464a      	mov	r2, r9
 80089f0:	f001 fc26 	bl	800a240 <__s2b>
 80089f4:	900b      	str	r0, [sp, #44]	@ 0x2c
 80089f6:	2800      	cmp	r0, #0
 80089f8:	f43f af09 	beq.w	800880e <_strtod_l+0x43e>
 80089fc:	9a09      	ldr	r2, [sp, #36]	@ 0x24
 80089fe:	9b0a      	ldr	r3, [sp, #40]	@ 0x28
 8008a00:	2a00      	cmp	r2, #0
 8008a02:	eba3 0308 	sub.w	r3, r3, r8
 8008a06:	bfa8      	it	ge
 8008a08:	2300      	movge	r3, #0
 8008a0a:	9312      	str	r3, [sp, #72]	@ 0x48
 8008a0c:	2400      	movs	r4, #0
 8008a0e:	ea22 73e2 	bic.w	r3, r2, r2, asr #31
 8008a12:	9316      	str	r3, [sp, #88]	@ 0x58
 8008a14:	46a0      	mov	r8, r4
 8008a16:	9b0b      	ldr	r3, [sp, #44]	@ 0x2c
 8008a18:	9805      	ldr	r0, [sp, #20]
 8008a1a:	6859      	ldr	r1, [r3, #4]
 8008a1c:	f001 fb68 	bl	800a0f0 <_Balloc>
 8008a20:	4681      	mov	r9, r0
 8008a22:	2800      	cmp	r0, #0
 8008a24:	f43f aef7 	beq.w	8008816 <_strtod_l+0x446>
 8008a28:	9b0b      	ldr	r3, [sp, #44]	@ 0x2c
 8008a2a:	691a      	ldr	r2, [r3, #16]
 8008a2c:	3202      	adds	r2, #2
 8008a2e:	f103 010c 	add.w	r1, r3, #12
 8008a32:	0092      	lsls	r2, r2, #2
 8008a34:	300c      	adds	r0, #12
 8008a36:	f000 fefe 	bl	8009836 <memcpy>
 8008a3a:	ec4b ab10 	vmov	d0, sl, fp
 8008a3e:	9805      	ldr	r0, [sp, #20]
 8008a40:	aa1c      	add	r2, sp, #112	@ 0x70
 8008a42:	a91b      	add	r1, sp, #108	@ 0x6c
 8008a44:	e9cd ab0c 	strd	sl, fp, [sp, #48]	@ 0x30
 8008a48:	f001 ff2e 	bl	800a8a8 <__d2b>
 8008a4c:	901a      	str	r0, [sp, #104]	@ 0x68
 8008a4e:	2800      	cmp	r0, #0
 8008a50:	f43f aee1 	beq.w	8008816 <_strtod_l+0x446>
 8008a54:	9805      	ldr	r0, [sp, #20]
 8008a56:	2101      	movs	r1, #1
 8008a58:	f001 fc88 	bl	800a36c <__i2b>
 8008a5c:	4680      	mov	r8, r0
 8008a5e:	b948      	cbnz	r0, 8008a74 <_strtod_l+0x6a4>
 8008a60:	f04f 0800 	mov.w	r8, #0
 8008a64:	e6d7      	b.n	8008816 <_strtod_l+0x446>
 8008a66:	f04f 32ff 	mov.w	r2, #4294967295
 8008a6a:	fa02 f303 	lsl.w	r3, r2, r3
 8008a6e:	ea03 0a0a 	and.w	sl, r3, sl
 8008a72:	e7af      	b.n	80089d4 <_strtod_l+0x604>
 8008a74:	9d1b      	ldr	r5, [sp, #108]	@ 0x6c
 8008a76:	9a1c      	ldr	r2, [sp, #112]	@ 0x70
 8008a78:	2d00      	cmp	r5, #0
 8008a7a:	bfab      	itete	ge
 8008a7c:	9b12      	ldrge	r3, [sp, #72]	@ 0x48
 8008a7e:	9b16      	ldrlt	r3, [sp, #88]	@ 0x58
 8008a80:	9e16      	ldrge	r6, [sp, #88]	@ 0x58
 8008a82:	9f12      	ldrlt	r7, [sp, #72]	@ 0x48
 8008a84:	bfac      	ite	ge
 8008a86:	18ef      	addge	r7, r5, r3
 8008a88:	1b5e      	sublt	r6, r3, r5
 8008a8a:	9b08      	ldr	r3, [sp, #32]
 8008a8c:	1aed      	subs	r5, r5, r3
 8008a8e:	4415      	add	r5, r2
 8008a90:	4b65      	ldr	r3, [pc, #404]	@ (8008c28 <_strtod_l+0x858>)
 8008a92:	3d01      	subs	r5, #1
 8008a94:	429d      	cmp	r5, r3
 8008a96:	f1c2 0236 	rsb	r2, r2, #54	@ 0x36
 8008a9a:	da50      	bge.n	8008b3e <_strtod_l+0x76e>
 8008a9c:	1b5b      	subs	r3, r3, r5
 8008a9e:	2b1f      	cmp	r3, #31
 8008aa0:	eba2 0203 	sub.w	r2, r2, r3
 8008aa4:	f04f 0101 	mov.w	r1, #1
 8008aa8:	dc3d      	bgt.n	8008b26 <_strtod_l+0x756>
 8008aaa:	fa01 f303 	lsl.w	r3, r1, r3
 8008aae:	9313      	str	r3, [sp, #76]	@ 0x4c
 8008ab0:	2300      	movs	r3, #0
 8008ab2:	9310      	str	r3, [sp, #64]	@ 0x40
 8008ab4:	18bd      	adds	r5, r7, r2
 8008ab6:	9b08      	ldr	r3, [sp, #32]
 8008ab8:	42af      	cmp	r7, r5
 8008aba:	4416      	add	r6, r2
 8008abc:	441e      	add	r6, r3
 8008abe:	463b      	mov	r3, r7
 8008ac0:	bfa8      	it	ge
 8008ac2:	462b      	movge	r3, r5
 8008ac4:	42b3      	cmp	r3, r6
 8008ac6:	bfa8      	it	ge
 8008ac8:	4633      	movge	r3, r6
 8008aca:	2b00      	cmp	r3, #0
 8008acc:	bfc2      	ittt	gt
 8008ace:	1aed      	subgt	r5, r5, r3
 8008ad0:	1af6      	subgt	r6, r6, r3
 8008ad2:	1aff      	subgt	r7, r7, r3
 8008ad4:	9b12      	ldr	r3, [sp, #72]	@ 0x48
 8008ad6:	2b00      	cmp	r3, #0
 8008ad8:	dd16      	ble.n	8008b08 <_strtod_l+0x738>
 8008ada:	4641      	mov	r1, r8
 8008adc:	9805      	ldr	r0, [sp, #20]
 8008ade:	461a      	mov	r2, r3
 8008ae0:	f001 fcfc 	bl	800a4dc <__pow5mult>
 8008ae4:	4680      	mov	r8, r0
 8008ae6:	2800      	cmp	r0, #0
 8008ae8:	d0ba      	beq.n	8008a60 <_strtod_l+0x690>
 8008aea:	4601      	mov	r1, r0
 8008aec:	9a1a      	ldr	r2, [sp, #104]	@ 0x68
 8008aee:	9805      	ldr	r0, [sp, #20]
 8008af0:	f001 fc52 	bl	800a398 <__multiply>
 8008af4:	900a      	str	r0, [sp, #40]	@ 0x28
 8008af6:	2800      	cmp	r0, #0
 8008af8:	f43f ae8d 	beq.w	8008816 <_strtod_l+0x446>
 8008afc:	991a      	ldr	r1, [sp, #104]	@ 0x68
 8008afe:	9805      	ldr	r0, [sp, #20]
 8008b00:	f001 fb36 	bl	800a170 <_Bfree>
 8008b04:	9b0a      	ldr	r3, [sp, #40]	@ 0x28
 8008b06:	931a      	str	r3, [sp, #104]	@ 0x68
 8008b08:	2d00      	cmp	r5, #0
 8008b0a:	dc1d      	bgt.n	8008b48 <_strtod_l+0x778>
 8008b0c:	9b09      	ldr	r3, [sp, #36]	@ 0x24
 8008b0e:	2b00      	cmp	r3, #0
 8008b10:	dd23      	ble.n	8008b5a <_strtod_l+0x78a>
 8008b12:	4649      	mov	r1, r9
 8008b14:	9a16      	ldr	r2, [sp, #88]	@ 0x58
 8008b16:	9805      	ldr	r0, [sp, #20]
 8008b18:	f001 fce0 	bl	800a4dc <__pow5mult>
 8008b1c:	4681      	mov	r9, r0
 8008b1e:	b9e0      	cbnz	r0, 8008b5a <_strtod_l+0x78a>
 8008b20:	f04f 0900 	mov.w	r9, #0
 8008b24:	e677      	b.n	8008816 <_strtod_l+0x446>
 8008b26:	f1c5 457f 	rsb	r5, r5, #4278190080	@ 0xff000000
 8008b2a:	f505 057f 	add.w	r5, r5, #16711680	@ 0xff0000
 8008b2e:	f505 457b 	add.w	r5, r5, #64256	@ 0xfb00
 8008b32:	35e2      	adds	r5, #226	@ 0xe2
 8008b34:	fa01 f305 	lsl.w	r3, r1, r5
 8008b38:	9310      	str	r3, [sp, #64]	@ 0x40
 8008b3a:	9113      	str	r1, [sp, #76]	@ 0x4c
 8008b3c:	e7ba      	b.n	8008ab4 <_strtod_l+0x6e4>
 8008b3e:	2300      	movs	r3, #0
 8008b40:	9310      	str	r3, [sp, #64]	@ 0x40
 8008b42:	2301      	movs	r3, #1
 8008b44:	9313      	str	r3, [sp, #76]	@ 0x4c
 8008b46:	e7b5      	b.n	8008ab4 <_strtod_l+0x6e4>
 8008b48:	991a      	ldr	r1, [sp, #104]	@ 0x68
 8008b4a:	9805      	ldr	r0, [sp, #20]
 8008b4c:	462a      	mov	r2, r5
 8008b4e:	f001 fd1f 	bl	800a590 <__lshift>
 8008b52:	901a      	str	r0, [sp, #104]	@ 0x68
 8008b54:	2800      	cmp	r0, #0
 8008b56:	d1d9      	bne.n	8008b0c <_strtod_l+0x73c>
 8008b58:	e65d      	b.n	8008816 <_strtod_l+0x446>
 8008b5a:	2e00      	cmp	r6, #0
 8008b5c:	dd07      	ble.n	8008b6e <_strtod_l+0x79e>
 8008b5e:	4649      	mov	r1, r9
 8008b60:	9805      	ldr	r0, [sp, #20]
 8008b62:	4632      	mov	r2, r6
 8008b64:	f001 fd14 	bl	800a590 <__lshift>
 8008b68:	4681      	mov	r9, r0
 8008b6a:	2800      	cmp	r0, #0
 8008b6c:	d0d8      	beq.n	8008b20 <_strtod_l+0x750>
 8008b6e:	2f00      	cmp	r7, #0
 8008b70:	dd08      	ble.n	8008b84 <_strtod_l+0x7b4>
 8008b72:	4641      	mov	r1, r8
 8008b74:	9805      	ldr	r0, [sp, #20]
 8008b76:	463a      	mov	r2, r7
 8008b78:	f001 fd0a 	bl	800a590 <__lshift>
 8008b7c:	4680      	mov	r8, r0
 8008b7e:	2800      	cmp	r0, #0
 8008b80:	f43f ae49 	beq.w	8008816 <_strtod_l+0x446>
 8008b84:	991a      	ldr	r1, [sp, #104]	@ 0x68
 8008b86:	9805      	ldr	r0, [sp, #20]
 8008b88:	464a      	mov	r2, r9
 8008b8a:	f001 fd89 	bl	800a6a0 <__mdiff>
 8008b8e:	4604      	mov	r4, r0
 8008b90:	2800      	cmp	r0, #0
 8008b92:	f43f ae40 	beq.w	8008816 <_strtod_l+0x446>
 8008b96:	68c3      	ldr	r3, [r0, #12]
 8008b98:	930f      	str	r3, [sp, #60]	@ 0x3c
 8008b9a:	2300      	movs	r3, #0
 8008b9c:	60c3      	str	r3, [r0, #12]
 8008b9e:	4641      	mov	r1, r8
 8008ba0:	f001 fd62 	bl	800a668 <__mcmp>
 8008ba4:	2800      	cmp	r0, #0
 8008ba6:	da45      	bge.n	8008c34 <_strtod_l+0x864>
 8008ba8:	9b0f      	ldr	r3, [sp, #60]	@ 0x3c
 8008baa:	ea53 030a 	orrs.w	r3, r3, sl
 8008bae:	d16b      	bne.n	8008c88 <_strtod_l+0x8b8>
 8008bb0:	f3cb 0313 	ubfx	r3, fp, #0, #20
 8008bb4:	2b00      	cmp	r3, #0
 8008bb6:	d167      	bne.n	8008c88 <_strtod_l+0x8b8>
 8008bb8:	f02b 4300 	bic.w	r3, fp, #2147483648	@ 0x80000000
 8008bbc:	0d1b      	lsrs	r3, r3, #20
 8008bbe:	051b      	lsls	r3, r3, #20
 8008bc0:	f1b3 6fd6 	cmp.w	r3, #112197632	@ 0x6b00000
 8008bc4:	d960      	bls.n	8008c88 <_strtod_l+0x8b8>
 8008bc6:	6963      	ldr	r3, [r4, #20]
 8008bc8:	b913      	cbnz	r3, 8008bd0 <_strtod_l+0x800>
 8008bca:	6923      	ldr	r3, [r4, #16]
 8008bcc:	2b01      	cmp	r3, #1
 8008bce:	dd5b      	ble.n	8008c88 <_strtod_l+0x8b8>
 8008bd0:	4621      	mov	r1, r4
 8008bd2:	2201      	movs	r2, #1
 8008bd4:	9805      	ldr	r0, [sp, #20]
 8008bd6:	f001 fcdb 	bl	800a590 <__lshift>
 8008bda:	4641      	mov	r1, r8
 8008bdc:	4604      	mov	r4, r0
 8008bde:	f001 fd43 	bl	800a668 <__mcmp>
 8008be2:	2800      	cmp	r0, #0
 8008be4:	dd50      	ble.n	8008c88 <_strtod_l+0x8b8>
 8008be6:	f02b 4300 	bic.w	r3, fp, #2147483648	@ 0x80000000
 8008bea:	9a08      	ldr	r2, [sp, #32]
 8008bec:	0d1b      	lsrs	r3, r3, #20
 8008bee:	051b      	lsls	r3, r3, #20
 8008bf0:	2a00      	cmp	r2, #0
 8008bf2:	d06a      	beq.n	8008cca <_strtod_l+0x8fa>
 8008bf4:	f1b3 6fd6 	cmp.w	r3, #112197632	@ 0x6b00000
 8008bf8:	d867      	bhi.n	8008cca <_strtod_l+0x8fa>
 8008bfa:	f1b3 7f5c 	cmp.w	r3, #57671680	@ 0x3700000
 8008bfe:	f67f ae9d 	bls.w	800893c <_strtod_l+0x56c>
 8008c02:	4b0a      	ldr	r3, [pc, #40]	@ (8008c2c <_strtod_l+0x85c>)
 8008c04:	4650      	mov	r0, sl
 8008c06:	4659      	mov	r1, fp
 8008c08:	2200      	movs	r2, #0
 8008c0a:	f7f7 fcf5 	bl	80005f8 <__aeabi_dmul>
 8008c0e:	4b08      	ldr	r3, [pc, #32]	@ (8008c30 <_strtod_l+0x860>)
 8008c10:	400b      	ands	r3, r1
 8008c12:	4682      	mov	sl, r0
 8008c14:	468b      	mov	fp, r1
 8008c16:	2b00      	cmp	r3, #0
 8008c18:	f47f ae08 	bne.w	800882c <_strtod_l+0x45c>
 8008c1c:	9a05      	ldr	r2, [sp, #20]
 8008c1e:	2322      	movs	r3, #34	@ 0x22
 8008c20:	6013      	str	r3, [r2, #0]
 8008c22:	e603      	b.n	800882c <_strtod_l+0x45c>
 8008c24:	0800c320 	.word	0x0800c320
 8008c28:	fffffc02 	.word	0xfffffc02
 8008c2c:	39500000 	.word	0x39500000
 8008c30:	7ff00000 	.word	0x7ff00000
 8008c34:	f8cd b028 	str.w	fp, [sp, #40]	@ 0x28
 8008c38:	d165      	bne.n	8008d06 <_strtod_l+0x936>
 8008c3a:	9a0f      	ldr	r2, [sp, #60]	@ 0x3c
 8008c3c:	f3cb 0313 	ubfx	r3, fp, #0, #20
 8008c40:	b35a      	cbz	r2, 8008c9a <_strtod_l+0x8ca>
 8008c42:	4a9f      	ldr	r2, [pc, #636]	@ (8008ec0 <_strtod_l+0xaf0>)
 8008c44:	4293      	cmp	r3, r2
 8008c46:	d12b      	bne.n	8008ca0 <_strtod_l+0x8d0>
 8008c48:	9b08      	ldr	r3, [sp, #32]
 8008c4a:	4651      	mov	r1, sl
 8008c4c:	b303      	cbz	r3, 8008c90 <_strtod_l+0x8c0>
 8008c4e:	4b9d      	ldr	r3, [pc, #628]	@ (8008ec4 <_strtod_l+0xaf4>)
 8008c50:	465a      	mov	r2, fp
 8008c52:	4013      	ands	r3, r2
 8008c54:	f1b3 6fd4 	cmp.w	r3, #111149056	@ 0x6a00000
 8008c58:	f04f 32ff 	mov.w	r2, #4294967295
 8008c5c:	d81b      	bhi.n	8008c96 <_strtod_l+0x8c6>
 8008c5e:	0d1b      	lsrs	r3, r3, #20
 8008c60:	f1c3 036b 	rsb	r3, r3, #107	@ 0x6b
 8008c64:	fa02 f303 	lsl.w	r3, r2, r3
 8008c68:	4299      	cmp	r1, r3
 8008c6a:	d119      	bne.n	8008ca0 <_strtod_l+0x8d0>
 8008c6c:	4b96      	ldr	r3, [pc, #600]	@ (8008ec8 <_strtod_l+0xaf8>)
 8008c6e:	9a0a      	ldr	r2, [sp, #40]	@ 0x28
 8008c70:	429a      	cmp	r2, r3
 8008c72:	d102      	bne.n	8008c7a <_strtod_l+0x8aa>
 8008c74:	3101      	adds	r1, #1
 8008c76:	f43f adce 	beq.w	8008816 <_strtod_l+0x446>
 8008c7a:	4b92      	ldr	r3, [pc, #584]	@ (8008ec4 <_strtod_l+0xaf4>)
 8008c7c:	9a0a      	ldr	r2, [sp, #40]	@ 0x28
 8008c7e:	401a      	ands	r2, r3
 8008c80:	f502 1b80 	add.w	fp, r2, #1048576	@ 0x100000
 8008c84:	f04f 0a00 	mov.w	sl, #0
 8008c88:	9b08      	ldr	r3, [sp, #32]
 8008c8a:	2b00      	cmp	r3, #0
 8008c8c:	d1b9      	bne.n	8008c02 <_strtod_l+0x832>
 8008c8e:	e5cd      	b.n	800882c <_strtod_l+0x45c>
 8008c90:	f04f 33ff 	mov.w	r3, #4294967295
 8008c94:	e7e8      	b.n	8008c68 <_strtod_l+0x898>
 8008c96:	4613      	mov	r3, r2
 8008c98:	e7e6      	b.n	8008c68 <_strtod_l+0x898>
 8008c9a:	ea53 030a 	orrs.w	r3, r3, sl
 8008c9e:	d0a2      	beq.n	8008be6 <_strtod_l+0x816>
 8008ca0:	9b10      	ldr	r3, [sp, #64]	@ 0x40
 8008ca2:	b1db      	cbz	r3, 8008cdc <_strtod_l+0x90c>
 8008ca4:	9a0a      	ldr	r2, [sp, #40]	@ 0x28
 8008ca6:	4213      	tst	r3, r2
 8008ca8:	d0ee      	beq.n	8008c88 <_strtod_l+0x8b8>
 8008caa:	9b0f      	ldr	r3, [sp, #60]	@ 0x3c
 8008cac:	9a08      	ldr	r2, [sp, #32]
 8008cae:	4650      	mov	r0, sl
 8008cb0:	4659      	mov	r1, fp
 8008cb2:	b1bb      	cbz	r3, 8008ce4 <_strtod_l+0x914>
 8008cb4:	f7ff fb6b 	bl	800838e <sulp>
 8008cb8:	e9dd 010c 	ldrd	r0, r1, [sp, #48]	@ 0x30
 8008cbc:	ec53 2b10 	vmov	r2, r3, d0
 8008cc0:	f7f7 fae4 	bl	800028c <__adddf3>
 8008cc4:	4682      	mov	sl, r0
 8008cc6:	468b      	mov	fp, r1
 8008cc8:	e7de      	b.n	8008c88 <_strtod_l+0x8b8>
 8008cca:	f5a3 1380 	sub.w	r3, r3, #1048576	@ 0x100000
 8008cce:	ea6f 5b13 	mvn.w	fp, r3, lsr #20
 8008cd2:	ea6f 5b0b 	mvn.w	fp, fp, lsl #20
 8008cd6:	f04f 3aff 	mov.w	sl, #4294967295
 8008cda:	e7d5      	b.n	8008c88 <_strtod_l+0x8b8>
 8008cdc:	9b13      	ldr	r3, [sp, #76]	@ 0x4c
 8008cde:	ea13 0f0a 	tst.w	r3, sl
 8008ce2:	e7e1      	b.n	8008ca8 <_strtod_l+0x8d8>
 8008ce4:	f7ff fb53 	bl	800838e <sulp>
 8008ce8:	e9dd 010c 	ldrd	r0, r1, [sp, #48]	@ 0x30
 8008cec:	ec53 2b10 	vmov	r2, r3, d0
 8008cf0:	f7f7 faca 	bl	8000288 <__aeabi_dsub>
 8008cf4:	2200      	movs	r2, #0
 8008cf6:	2300      	movs	r3, #0
 8008cf8:	4682      	mov	sl, r0
 8008cfa:	468b      	mov	fp, r1
 8008cfc:	f7f7 fee4 	bl	8000ac8 <__aeabi_dcmpeq>
 8008d00:	2800      	cmp	r0, #0
 8008d02:	d0c1      	beq.n	8008c88 <_strtod_l+0x8b8>
 8008d04:	e61a      	b.n	800893c <_strtod_l+0x56c>
 8008d06:	4641      	mov	r1, r8
 8008d08:	4620      	mov	r0, r4
 8008d0a:	f001 fe25 	bl	800a958 <__ratio>
 8008d0e:	ec57 6b10 	vmov	r6, r7, d0
 8008d12:	2200      	movs	r2, #0
 8008d14:	f04f 4380 	mov.w	r3, #1073741824	@ 0x40000000
 8008d18:	4630      	mov	r0, r6
 8008d1a:	4639      	mov	r1, r7
 8008d1c:	f7f7 fee8 	bl	8000af0 <__aeabi_dcmple>
 8008d20:	2800      	cmp	r0, #0
 8008d22:	d06f      	beq.n	8008e04 <_strtod_l+0xa34>
 8008d24:	9b0f      	ldr	r3, [sp, #60]	@ 0x3c
 8008d26:	2b00      	cmp	r3, #0
 8008d28:	d17a      	bne.n	8008e20 <_strtod_l+0xa50>
 8008d2a:	f1ba 0f00 	cmp.w	sl, #0
 8008d2e:	d158      	bne.n	8008de2 <_strtod_l+0xa12>
 8008d30:	9b0a      	ldr	r3, [sp, #40]	@ 0x28
 8008d32:	f3c3 0313 	ubfx	r3, r3, #0, #20
 8008d36:	2b00      	cmp	r3, #0
 8008d38:	d15a      	bne.n	8008df0 <_strtod_l+0xa20>
 8008d3a:	4b64      	ldr	r3, [pc, #400]	@ (8008ecc <_strtod_l+0xafc>)
 8008d3c:	2200      	movs	r2, #0
 8008d3e:	4630      	mov	r0, r6
 8008d40:	4639      	mov	r1, r7
 8008d42:	f7f7 fecb 	bl	8000adc <__aeabi_dcmplt>
 8008d46:	2800      	cmp	r0, #0
 8008d48:	d159      	bne.n	8008dfe <_strtod_l+0xa2e>
 8008d4a:	4630      	mov	r0, r6
 8008d4c:	4639      	mov	r1, r7
 8008d4e:	4b60      	ldr	r3, [pc, #384]	@ (8008ed0 <_strtod_l+0xb00>)
 8008d50:	2200      	movs	r2, #0
 8008d52:	f7f7 fc51 	bl	80005f8 <__aeabi_dmul>
 8008d56:	4606      	mov	r6, r0
 8008d58:	460f      	mov	r7, r1
 8008d5a:	f107 4300 	add.w	r3, r7, #2147483648	@ 0x80000000
 8008d5e:	9606      	str	r6, [sp, #24]
 8008d60:	9307      	str	r3, [sp, #28]
 8008d62:	e9dd 2306 	ldrd	r2, r3, [sp, #24]
 8008d66:	4d57      	ldr	r5, [pc, #348]	@ (8008ec4 <_strtod_l+0xaf4>)
 8008d68:	e9cd 2310 	strd	r2, r3, [sp, #64]	@ 0x40
 8008d6c:	9b0a      	ldr	r3, [sp, #40]	@ 0x28
 8008d6e:	401d      	ands	r5, r3
 8008d70:	4b58      	ldr	r3, [pc, #352]	@ (8008ed4 <_strtod_l+0xb04>)
 8008d72:	429d      	cmp	r5, r3
 8008d74:	f040 80b2 	bne.w	8008edc <_strtod_l+0xb0c>
 8008d78:	9b0a      	ldr	r3, [sp, #40]	@ 0x28
 8008d7a:	f1a3 7b54 	sub.w	fp, r3, #55574528	@ 0x3500000
 8008d7e:	ec4b ab10 	vmov	d0, sl, fp
 8008d82:	f001 fd21 	bl	800a7c8 <__ulp>
 8008d86:	e9dd 2306 	ldrd	r2, r3, [sp, #24]
 8008d8a:	ec51 0b10 	vmov	r0, r1, d0
 8008d8e:	f7f7 fc33 	bl	80005f8 <__aeabi_dmul>
 8008d92:	4652      	mov	r2, sl
 8008d94:	465b      	mov	r3, fp
 8008d96:	f7f7 fa79 	bl	800028c <__adddf3>
 8008d9a:	460b      	mov	r3, r1
 8008d9c:	4949      	ldr	r1, [pc, #292]	@ (8008ec4 <_strtod_l+0xaf4>)
 8008d9e:	4a4e      	ldr	r2, [pc, #312]	@ (8008ed8 <_strtod_l+0xb08>)
 8008da0:	4019      	ands	r1, r3
 8008da2:	4291      	cmp	r1, r2
 8008da4:	4682      	mov	sl, r0
 8008da6:	d942      	bls.n	8008e2e <_strtod_l+0xa5e>
 8008da8:	9a0d      	ldr	r2, [sp, #52]	@ 0x34
 8008daa:	4b47      	ldr	r3, [pc, #284]	@ (8008ec8 <_strtod_l+0xaf8>)
 8008dac:	429a      	cmp	r2, r3
 8008dae:	d103      	bne.n	8008db8 <_strtod_l+0x9e8>
 8008db0:	9b0c      	ldr	r3, [sp, #48]	@ 0x30
 8008db2:	3301      	adds	r3, #1
 8008db4:	f43f ad2f 	beq.w	8008816 <_strtod_l+0x446>
 8008db8:	f8df b10c 	ldr.w	fp, [pc, #268]	@ 8008ec8 <_strtod_l+0xaf8>
 8008dbc:	f04f 3aff 	mov.w	sl, #4294967295
 8008dc0:	991a      	ldr	r1, [sp, #104]	@ 0x68
 8008dc2:	9805      	ldr	r0, [sp, #20]
 8008dc4:	f001 f9d4 	bl	800a170 <_Bfree>
 8008dc8:	9805      	ldr	r0, [sp, #20]
 8008dca:	4649      	mov	r1, r9
 8008dcc:	f001 f9d0 	bl	800a170 <_Bfree>
 8008dd0:	9805      	ldr	r0, [sp, #20]
 8008dd2:	4641      	mov	r1, r8
 8008dd4:	f001 f9cc 	bl	800a170 <_Bfree>
 8008dd8:	9805      	ldr	r0, [sp, #20]
 8008dda:	4621      	mov	r1, r4
 8008ddc:	f001 f9c8 	bl	800a170 <_Bfree>
 8008de0:	e619      	b.n	8008a16 <_strtod_l+0x646>
 8008de2:	f1ba 0f01 	cmp.w	sl, #1
 8008de6:	d103      	bne.n	8008df0 <_strtod_l+0xa20>
 8008de8:	9b0a      	ldr	r3, [sp, #40]	@ 0x28
 8008dea:	2b00      	cmp	r3, #0
 8008dec:	f43f ada6 	beq.w	800893c <_strtod_l+0x56c>
 8008df0:	ed9f 7b2b 	vldr	d7, [pc, #172]	@ 8008ea0 <_strtod_l+0xad0>
 8008df4:	4f35      	ldr	r7, [pc, #212]	@ (8008ecc <_strtod_l+0xafc>)
 8008df6:	ed8d 7b06 	vstr	d7, [sp, #24]
 8008dfa:	2600      	movs	r6, #0
 8008dfc:	e7b1      	b.n	8008d62 <_strtod_l+0x992>
 8008dfe:	4f34      	ldr	r7, [pc, #208]	@ (8008ed0 <_strtod_l+0xb00>)
 8008e00:	2600      	movs	r6, #0
 8008e02:	e7aa      	b.n	8008d5a <_strtod_l+0x98a>
 8008e04:	4b32      	ldr	r3, [pc, #200]	@ (8008ed0 <_strtod_l+0xb00>)
 8008e06:	4630      	mov	r0, r6
 8008e08:	4639      	mov	r1, r7
 8008e0a:	2200      	movs	r2, #0
 8008e0c:	f7f7 fbf4 	bl	80005f8 <__aeabi_dmul>
 8008e10:	9b0f      	ldr	r3, [sp, #60]	@ 0x3c
 8008e12:	4606      	mov	r6, r0
 8008e14:	460f      	mov	r7, r1
 8008e16:	2b00      	cmp	r3, #0
 8008e18:	d09f      	beq.n	8008d5a <_strtod_l+0x98a>
 8008e1a:	e9cd 6706 	strd	r6, r7, [sp, #24]
 8008e1e:	e7a0      	b.n	8008d62 <_strtod_l+0x992>
 8008e20:	ed9f 7b21 	vldr	d7, [pc, #132]	@ 8008ea8 <_strtod_l+0xad8>
 8008e24:	ed8d 7b06 	vstr	d7, [sp, #24]
 8008e28:	ec57 6b17 	vmov	r6, r7, d7
 8008e2c:	e799      	b.n	8008d62 <_strtod_l+0x992>
 8008e2e:	f103 7b54 	add.w	fp, r3, #55574528	@ 0x3500000
 8008e32:	9b08      	ldr	r3, [sp, #32]
 8008e34:	f8cd b028 	str.w	fp, [sp, #40]	@ 0x28
 8008e38:	2b00      	cmp	r3, #0
 8008e3a:	d1c1      	bne.n	8008dc0 <_strtod_l+0x9f0>
 8008e3c:	f02b 4300 	bic.w	r3, fp, #2147483648	@ 0x80000000
 8008e40:	0d1b      	lsrs	r3, r3, #20
 8008e42:	051b      	lsls	r3, r3, #20
 8008e44:	429d      	cmp	r5, r3
 8008e46:	d1bb      	bne.n	8008dc0 <_strtod_l+0x9f0>
 8008e48:	4630      	mov	r0, r6
 8008e4a:	4639      	mov	r1, r7
 8008e4c:	f7f7 fea6 	bl	8000b9c <__aeabi_d2lz>
 8008e50:	f7f7 fba4 	bl	800059c <__aeabi_l2d>
 8008e54:	4602      	mov	r2, r0
 8008e56:	460b      	mov	r3, r1
 8008e58:	4630      	mov	r0, r6
 8008e5a:	4639      	mov	r1, r7
 8008e5c:	f7f7 fa14 	bl	8000288 <__aeabi_dsub>
 8008e60:	460b      	mov	r3, r1
 8008e62:	4602      	mov	r2, r0
 8008e64:	e9cd 230c 	strd	r2, r3, [sp, #48]	@ 0x30
 8008e68:	f3cb 0613 	ubfx	r6, fp, #0, #20
 8008e6c:	9b0f      	ldr	r3, [sp, #60]	@ 0x3c
 8008e6e:	ea46 060a 	orr.w	r6, r6, sl
 8008e72:	431e      	orrs	r6, r3
 8008e74:	d06f      	beq.n	8008f56 <_strtod_l+0xb86>
 8008e76:	a30e      	add	r3, pc, #56	@ (adr r3, 8008eb0 <_strtod_l+0xae0>)
 8008e78:	e9d3 2300 	ldrd	r2, r3, [r3]
 8008e7c:	f7f7 fe2e 	bl	8000adc <__aeabi_dcmplt>
 8008e80:	2800      	cmp	r0, #0
 8008e82:	f47f acd3 	bne.w	800882c <_strtod_l+0x45c>
 8008e86:	a30c      	add	r3, pc, #48	@ (adr r3, 8008eb8 <_strtod_l+0xae8>)
 8008e88:	e9d3 2300 	ldrd	r2, r3, [r3]
 8008e8c:	e9dd 010c 	ldrd	r0, r1, [sp, #48]	@ 0x30
 8008e90:	f7f7 fe42 	bl	8000b18 <__aeabi_dcmpgt>
 8008e94:	2800      	cmp	r0, #0
 8008e96:	d093      	beq.n	8008dc0 <_strtod_l+0x9f0>
 8008e98:	e4c8      	b.n	800882c <_strtod_l+0x45c>
 8008e9a:	bf00      	nop
 8008e9c:	f3af 8000 	nop.w
 8008ea0:	00000000 	.word	0x00000000
 8008ea4:	bff00000 	.word	0xbff00000
 8008ea8:	00000000 	.word	0x00000000
 8008eac:	3ff00000 	.word	0x3ff00000
 8008eb0:	94a03595 	.word	0x94a03595
 8008eb4:	3fdfffff 	.word	0x3fdfffff
 8008eb8:	35afe535 	.word	0x35afe535
 8008ebc:	3fe00000 	.word	0x3fe00000
 8008ec0:	000fffff 	.word	0x000fffff
 8008ec4:	7ff00000 	.word	0x7ff00000
 8008ec8:	7fefffff 	.word	0x7fefffff
 8008ecc:	3ff00000 	.word	0x3ff00000
 8008ed0:	3fe00000 	.word	0x3fe00000
 8008ed4:	7fe00000 	.word	0x7fe00000
 8008ed8:	7c9fffff 	.word	0x7c9fffff
 8008edc:	9b08      	ldr	r3, [sp, #32]
 8008ede:	b323      	cbz	r3, 8008f2a <_strtod_l+0xb5a>
 8008ee0:	f1b5 6fd4 	cmp.w	r5, #111149056	@ 0x6a00000
 8008ee4:	d821      	bhi.n	8008f2a <_strtod_l+0xb5a>
 8008ee6:	a328      	add	r3, pc, #160	@ (adr r3, 8008f88 <_strtod_l+0xbb8>)
 8008ee8:	e9d3 2300 	ldrd	r2, r3, [r3]
 8008eec:	4630      	mov	r0, r6
 8008eee:	4639      	mov	r1, r7
 8008ef0:	f7f7 fdfe 	bl	8000af0 <__aeabi_dcmple>
 8008ef4:	b1a0      	cbz	r0, 8008f20 <_strtod_l+0xb50>
 8008ef6:	4639      	mov	r1, r7
 8008ef8:	4630      	mov	r0, r6
 8008efa:	f7f7 fe17 	bl	8000b2c <__aeabi_d2uiz>
 8008efe:	2801      	cmp	r0, #1
 8008f00:	bf38      	it	cc
 8008f02:	2001      	movcc	r0, #1
 8008f04:	f7f7 fafe 	bl	8000504 <__aeabi_ui2d>
 8008f08:	9b0f      	ldr	r3, [sp, #60]	@ 0x3c
 8008f0a:	4606      	mov	r6, r0
 8008f0c:	460f      	mov	r7, r1
 8008f0e:	b9fb      	cbnz	r3, 8008f50 <_strtod_l+0xb80>
 8008f10:	f101 4300 	add.w	r3, r1, #2147483648	@ 0x80000000
 8008f14:	9014      	str	r0, [sp, #80]	@ 0x50
 8008f16:	9315      	str	r3, [sp, #84]	@ 0x54
 8008f18:	e9dd 2314 	ldrd	r2, r3, [sp, #80]	@ 0x50
 8008f1c:	e9cd 2310 	strd	r2, r3, [sp, #64]	@ 0x40
 8008f20:	9b11      	ldr	r3, [sp, #68]	@ 0x44
 8008f22:	f103 63d6 	add.w	r3, r3, #112197632	@ 0x6b00000
 8008f26:	1b5b      	subs	r3, r3, r5
 8008f28:	9311      	str	r3, [sp, #68]	@ 0x44
 8008f2a:	ed9d 0b0c 	vldr	d0, [sp, #48]	@ 0x30
 8008f2e:	e9dd ab10 	ldrd	sl, fp, [sp, #64]	@ 0x40
 8008f32:	f001 fc49 	bl	800a7c8 <__ulp>
 8008f36:	4650      	mov	r0, sl
 8008f38:	ec53 2b10 	vmov	r2, r3, d0
 8008f3c:	4659      	mov	r1, fp
 8008f3e:	f7f7 fb5b 	bl	80005f8 <__aeabi_dmul>
 8008f42:	e9dd 230c 	ldrd	r2, r3, [sp, #48]	@ 0x30
 8008f46:	f7f7 f9a1 	bl	800028c <__adddf3>
 8008f4a:	4682      	mov	sl, r0
 8008f4c:	468b      	mov	fp, r1
 8008f4e:	e770      	b.n	8008e32 <_strtod_l+0xa62>
 8008f50:	e9cd 6714 	strd	r6, r7, [sp, #80]	@ 0x50
 8008f54:	e7e0      	b.n	8008f18 <_strtod_l+0xb48>
 8008f56:	a30e      	add	r3, pc, #56	@ (adr r3, 8008f90 <_strtod_l+0xbc0>)
 8008f58:	e9d3 2300 	ldrd	r2, r3, [r3]
 8008f5c:	f7f7 fdbe 	bl	8000adc <__aeabi_dcmplt>
 8008f60:	e798      	b.n	8008e94 <_strtod_l+0xac4>
 8008f62:	2300      	movs	r3, #0
 8008f64:	930e      	str	r3, [sp, #56]	@ 0x38
 8008f66:	9a17      	ldr	r2, [sp, #92]	@ 0x5c
 8008f68:	9b19      	ldr	r3, [sp, #100]	@ 0x64
 8008f6a:	6013      	str	r3, [r2, #0]
 8008f6c:	f7ff ba6d 	b.w	800844a <_strtod_l+0x7a>
 8008f70:	2a65      	cmp	r2, #101	@ 0x65
 8008f72:	f43f ab68 	beq.w	8008646 <_strtod_l+0x276>
 8008f76:	2a45      	cmp	r2, #69	@ 0x45
 8008f78:	f43f ab65 	beq.w	8008646 <_strtod_l+0x276>
 8008f7c:	2301      	movs	r3, #1
 8008f7e:	f7ff bba0 	b.w	80086c2 <_strtod_l+0x2f2>
 8008f82:	bf00      	nop
 8008f84:	f3af 8000 	nop.w
 8008f88:	ffc00000 	.word	0xffc00000
 8008f8c:	41dfffff 	.word	0x41dfffff
 8008f90:	94a03595 	.word	0x94a03595
 8008f94:	3fcfffff 	.word	0x3fcfffff

08008f98 <strtod>:
 8008f98:	460a      	mov	r2, r1
 8008f9a:	4601      	mov	r1, r0
 8008f9c:	4802      	ldr	r0, [pc, #8]	@ (8008fa8 <strtod+0x10>)
 8008f9e:	4b03      	ldr	r3, [pc, #12]	@ (8008fac <strtod+0x14>)
 8008fa0:	6800      	ldr	r0, [r0, #0]
 8008fa2:	f7ff ba15 	b.w	80083d0 <_strtod_l>
 8008fa6:	bf00      	nop
 8008fa8:	200001c0 	.word	0x200001c0
 8008fac:	20000054 	.word	0x20000054

08008fb0 <_strtol_l.isra.0>:
 8008fb0:	2b24      	cmp	r3, #36	@ 0x24
 8008fb2:	e92d 47f0 	stmdb	sp!, {r4, r5, r6, r7, r8, r9, sl, lr}
 8008fb6:	4686      	mov	lr, r0
 8008fb8:	4690      	mov	r8, r2
 8008fba:	d801      	bhi.n	8008fc0 <_strtol_l.isra.0+0x10>
 8008fbc:	2b01      	cmp	r3, #1
 8008fbe:	d106      	bne.n	8008fce <_strtol_l.isra.0+0x1e>
 8008fc0:	f000 fc0c 	bl	80097dc <__errno>
 8008fc4:	2316      	movs	r3, #22
 8008fc6:	6003      	str	r3, [r0, #0]
 8008fc8:	2000      	movs	r0, #0
 8008fca:	e8bd 87f0 	ldmia.w	sp!, {r4, r5, r6, r7, r8, r9, sl, pc}
 8008fce:	4834      	ldr	r0, [pc, #208]	@ (80090a0 <_strtol_l.isra.0+0xf0>)
 8008fd0:	460d      	mov	r5, r1
 8008fd2:	462a      	mov	r2, r5
 8008fd4:	f815 4b01 	ldrb.w	r4, [r5], #1
 8008fd8:	5d06      	ldrb	r6, [r0, r4]
 8008fda:	f016 0608 	ands.w	r6, r6, #8
 8008fde:	d1f8      	bne.n	8008fd2 <_strtol_l.isra.0+0x22>
 8008fe0:	2c2d      	cmp	r4, #45	@ 0x2d
 8008fe2:	d110      	bne.n	8009006 <_strtol_l.isra.0+0x56>
 8008fe4:	782c      	ldrb	r4, [r5, #0]
 8008fe6:	2601      	movs	r6, #1
 8008fe8:	1c95      	adds	r5, r2, #2
 8008fea:	f033 0210 	bics.w	r2, r3, #16
 8008fee:	d115      	bne.n	800901c <_strtol_l.isra.0+0x6c>
 8008ff0:	2c30      	cmp	r4, #48	@ 0x30
 8008ff2:	d10d      	bne.n	8009010 <_strtol_l.isra.0+0x60>
 8008ff4:	782a      	ldrb	r2, [r5, #0]
 8008ff6:	f002 02df 	and.w	r2, r2, #223	@ 0xdf
 8008ffa:	2a58      	cmp	r2, #88	@ 0x58
 8008ffc:	d108      	bne.n	8009010 <_strtol_l.isra.0+0x60>
 8008ffe:	786c      	ldrb	r4, [r5, #1]
 8009000:	3502      	adds	r5, #2
 8009002:	2310      	movs	r3, #16
 8009004:	e00a      	b.n	800901c <_strtol_l.isra.0+0x6c>
 8009006:	2c2b      	cmp	r4, #43	@ 0x2b
 8009008:	bf04      	itt	eq
 800900a:	782c      	ldrbeq	r4, [r5, #0]
 800900c:	1c95      	addeq	r5, r2, #2
 800900e:	e7ec      	b.n	8008fea <_strtol_l.isra.0+0x3a>
 8009010:	2b00      	cmp	r3, #0
 8009012:	d1f6      	bne.n	8009002 <_strtol_l.isra.0+0x52>
 8009014:	2c30      	cmp	r4, #48	@ 0x30
 8009016:	bf14      	ite	ne
 8009018:	230a      	movne	r3, #10
 800901a:	2308      	moveq	r3, #8
 800901c:	f106 4c00 	add.w	ip, r6, #2147483648	@ 0x80000000
 8009020:	f10c 3cff 	add.w	ip, ip, #4294967295
 8009024:	2200      	movs	r2, #0
 8009026:	fbbc f9f3 	udiv	r9, ip, r3
 800902a:	4610      	mov	r0, r2
 800902c:	fb03 ca19 	mls	sl, r3, r9, ip
 8009030:	f1a4 0730 	sub.w	r7, r4, #48	@ 0x30
 8009034:	2f09      	cmp	r7, #9
 8009036:	d80f      	bhi.n	8009058 <_strtol_l.isra.0+0xa8>
 8009038:	463c      	mov	r4, r7
 800903a:	42a3      	cmp	r3, r4
 800903c:	dd1b      	ble.n	8009076 <_strtol_l.isra.0+0xc6>
 800903e:	1c57      	adds	r7, r2, #1
 8009040:	d007      	beq.n	8009052 <_strtol_l.isra.0+0xa2>
 8009042:	4581      	cmp	r9, r0
 8009044:	d314      	bcc.n	8009070 <_strtol_l.isra.0+0xc0>
 8009046:	d101      	bne.n	800904c <_strtol_l.isra.0+0x9c>
 8009048:	45a2      	cmp	sl, r4
 800904a:	db11      	blt.n	8009070 <_strtol_l.isra.0+0xc0>
 800904c:	fb00 4003 	mla	r0, r0, r3, r4
 8009050:	2201      	movs	r2, #1
 8009052:	f815 4b01 	ldrb.w	r4, [r5], #1
 8009056:	e7eb      	b.n	8009030 <_strtol_l.isra.0+0x80>
 8009058:	f1a4 0741 	sub.w	r7, r4, #65	@ 0x41
 800905c:	2f19      	cmp	r7, #25
 800905e:	d801      	bhi.n	8009064 <_strtol_l.isra.0+0xb4>
 8009060:	3c37      	subs	r4, #55	@ 0x37
 8009062:	e7ea      	b.n	800903a <_strtol_l.isra.0+0x8a>
 8009064:	f1a4 0761 	sub.w	r7, r4, #97	@ 0x61
 8009068:	2f19      	cmp	r7, #25
 800906a:	d804      	bhi.n	8009076 <_strtol_l.isra.0+0xc6>
 800906c:	3c57      	subs	r4, #87	@ 0x57
 800906e:	e7e4      	b.n	800903a <_strtol_l.isra.0+0x8a>
 8009070:	f04f 32ff 	mov.w	r2, #4294967295
 8009074:	e7ed      	b.n	8009052 <_strtol_l.isra.0+0xa2>
 8009076:	1c53      	adds	r3, r2, #1
 8009078:	d108      	bne.n	800908c <_strtol_l.isra.0+0xdc>
 800907a:	2322      	movs	r3, #34	@ 0x22
 800907c:	f8ce 3000 	str.w	r3, [lr]
 8009080:	4660      	mov	r0, ip
 8009082:	f1b8 0f00 	cmp.w	r8, #0
 8009086:	d0a0      	beq.n	8008fca <_strtol_l.isra.0+0x1a>
 8009088:	1e69      	subs	r1, r5, #1
 800908a:	e006      	b.n	800909a <_strtol_l.isra.0+0xea>
 800908c:	b106      	cbz	r6, 8009090 <_strtol_l.isra.0+0xe0>
 800908e:	4240      	negs	r0, r0
 8009090:	f1b8 0f00 	cmp.w	r8, #0
 8009094:	d099      	beq.n	8008fca <_strtol_l.isra.0+0x1a>
 8009096:	2a00      	cmp	r2, #0
 8009098:	d1f6      	bne.n	8009088 <_strtol_l.isra.0+0xd8>
 800909a:	f8c8 1000 	str.w	r1, [r8]
 800909e:	e794      	b.n	8008fca <_strtol_l.isra.0+0x1a>
 80090a0:	0800c349 	.word	0x0800c349

080090a4 <strtol>:
 80090a4:	4613      	mov	r3, r2
 80090a6:	460a      	mov	r2, r1
 80090a8:	4601      	mov	r1, r0
 80090aa:	4802      	ldr	r0, [pc, #8]	@ (80090b4 <strtol+0x10>)
 80090ac:	6800      	ldr	r0, [r0, #0]
 80090ae:	f7ff bf7f 	b.w	8008fb0 <_strtol_l.isra.0>
 80090b2:	bf00      	nop
 80090b4:	200001c0 	.word	0x200001c0

080090b8 <_strtoul_l.isra.0>:
 80090b8:	e92d 43f0 	stmdb	sp!, {r4, r5, r6, r7, r8, r9, lr}
 80090bc:	4e34      	ldr	r6, [pc, #208]	@ (8009190 <_strtoul_l.isra.0+0xd8>)
 80090be:	4686      	mov	lr, r0
 80090c0:	460d      	mov	r5, r1
 80090c2:	4628      	mov	r0, r5
 80090c4:	f815 4b01 	ldrb.w	r4, [r5], #1
 80090c8:	5d37      	ldrb	r7, [r6, r4]
 80090ca:	f017 0708 	ands.w	r7, r7, #8
 80090ce:	d1f8      	bne.n	80090c2 <_strtoul_l.isra.0+0xa>
 80090d0:	2c2d      	cmp	r4, #45	@ 0x2d
 80090d2:	d110      	bne.n	80090f6 <_strtoul_l.isra.0+0x3e>
 80090d4:	782c      	ldrb	r4, [r5, #0]
 80090d6:	2701      	movs	r7, #1
 80090d8:	1c85      	adds	r5, r0, #2
 80090da:	f033 0010 	bics.w	r0, r3, #16
 80090de:	d115      	bne.n	800910c <_strtoul_l.isra.0+0x54>
 80090e0:	2c30      	cmp	r4, #48	@ 0x30
 80090e2:	d10d      	bne.n	8009100 <_strtoul_l.isra.0+0x48>
 80090e4:	7828      	ldrb	r0, [r5, #0]
 80090e6:	f000 00df 	and.w	r0, r0, #223	@ 0xdf
 80090ea:	2858      	cmp	r0, #88	@ 0x58
 80090ec:	d108      	bne.n	8009100 <_strtoul_l.isra.0+0x48>
 80090ee:	786c      	ldrb	r4, [r5, #1]
 80090f0:	3502      	adds	r5, #2
 80090f2:	2310      	movs	r3, #16
 80090f4:	e00a      	b.n	800910c <_strtoul_l.isra.0+0x54>
 80090f6:	2c2b      	cmp	r4, #43	@ 0x2b
 80090f8:	bf04      	itt	eq
 80090fa:	782c      	ldrbeq	r4, [r5, #0]
 80090fc:	1c85      	addeq	r5, r0, #2
 80090fe:	e7ec      	b.n	80090da <_strtoul_l.isra.0+0x22>
 8009100:	2b00      	cmp	r3, #0
 8009102:	d1f6      	bne.n	80090f2 <_strtoul_l.isra.0+0x3a>
 8009104:	2c30      	cmp	r4, #48	@ 0x30
 8009106:	bf14      	ite	ne
 8009108:	230a      	movne	r3, #10
 800910a:	2308      	moveq	r3, #8
 800910c:	f04f 38ff 	mov.w	r8, #4294967295
 8009110:	2600      	movs	r6, #0
 8009112:	fbb8 f8f3 	udiv	r8, r8, r3
 8009116:	fb03 f908 	mul.w	r9, r3, r8
 800911a:	ea6f 0909 	mvn.w	r9, r9
 800911e:	4630      	mov	r0, r6
 8009120:	f1a4 0c30 	sub.w	ip, r4, #48	@ 0x30
 8009124:	f1bc 0f09 	cmp.w	ip, #9
 8009128:	d810      	bhi.n	800914c <_strtoul_l.isra.0+0x94>
 800912a:	4664      	mov	r4, ip
 800912c:	42a3      	cmp	r3, r4
 800912e:	dd1e      	ble.n	800916e <_strtoul_l.isra.0+0xb6>
 8009130:	f1b6 3fff 	cmp.w	r6, #4294967295
 8009134:	d007      	beq.n	8009146 <_strtoul_l.isra.0+0x8e>
 8009136:	4580      	cmp	r8, r0
 8009138:	d316      	bcc.n	8009168 <_strtoul_l.isra.0+0xb0>
 800913a:	d101      	bne.n	8009140 <_strtoul_l.isra.0+0x88>
 800913c:	45a1      	cmp	r9, r4
 800913e:	db13      	blt.n	8009168 <_strtoul_l.isra.0+0xb0>
 8009140:	fb00 4003 	mla	r0, r0, r3, r4
 8009144:	2601      	movs	r6, #1
 8009146:	f815 4b01 	ldrb.w	r4, [r5], #1
 800914a:	e7e9      	b.n	8009120 <_strtoul_l.isra.0+0x68>
 800914c:	f1a4 0c41 	sub.w	ip, r4, #65	@ 0x41
 8009150:	f1bc 0f19 	cmp.w	ip, #25
 8009154:	d801      	bhi.n	800915a <_strtoul_l.isra.0+0xa2>
 8009156:	3c37      	subs	r4, #55	@ 0x37
 8009158:	e7e8      	b.n	800912c <_strtoul_l.isra.0+0x74>
 800915a:	f1a4 0c61 	sub.w	ip, r4, #97	@ 0x61
 800915e:	f1bc 0f19 	cmp.w	ip, #25
 8009162:	d804      	bhi.n	800916e <_strtoul_l.isra.0+0xb6>
 8009164:	3c57      	subs	r4, #87	@ 0x57
 8009166:	e7e1      	b.n	800912c <_strtoul_l.isra.0+0x74>
 8009168:	f04f 36ff 	mov.w	r6, #4294967295
 800916c:	e7eb      	b.n	8009146 <_strtoul_l.isra.0+0x8e>
 800916e:	1c73      	adds	r3, r6, #1
 8009170:	d106      	bne.n	8009180 <_strtoul_l.isra.0+0xc8>
 8009172:	2322      	movs	r3, #34	@ 0x22
 8009174:	f8ce 3000 	str.w	r3, [lr]
 8009178:	4630      	mov	r0, r6
 800917a:	b932      	cbnz	r2, 800918a <_strtoul_l.isra.0+0xd2>
 800917c:	e8bd 83f0 	ldmia.w	sp!, {r4, r5, r6, r7, r8, r9, pc}
 8009180:	b107      	cbz	r7, 8009184 <_strtoul_l.isra.0+0xcc>
 8009182:	4240      	negs	r0, r0
 8009184:	2a00      	cmp	r2, #0
 8009186:	d0f9      	beq.n	800917c <_strtoul_l.isra.0+0xc4>
 8009188:	b106      	cbz	r6, 800918c <_strtoul_l.isra.0+0xd4>
 800918a:	1e69      	subs	r1, r5, #1
 800918c:	6011      	str	r1, [r2, #0]
 800918e:	e7f5      	b.n	800917c <_strtoul_l.isra.0+0xc4>
 8009190:	0800c349 	.word	0x0800c349

08009194 <strtoul>:
 8009194:	4613      	mov	r3, r2
 8009196:	460a      	mov	r2, r1
 8009198:	4601      	mov	r1, r0
 800919a:	4802      	ldr	r0, [pc, #8]	@ (80091a4 <strtoul+0x10>)
 800919c:	6800      	ldr	r0, [r0, #0]
 800919e:	f7ff bf8b 	b.w	80090b8 <_strtoul_l.isra.0>
 80091a2:	bf00      	nop
 80091a4:	200001c0 	.word	0x200001c0

080091a8 <_strtoll_l.isra.0>:
 80091a8:	e92d 4ff0 	stmdb	sp!, {r4, r5, r6, r7, r8, r9, sl, fp, lr}
 80091ac:	b085      	sub	sp, #20
 80091ae:	4690      	mov	r8, r2
 80091b0:	4a43      	ldr	r2, [pc, #268]	@ (80092c0 <_strtoll_l.isra.0+0x118>)
 80091b2:	9002      	str	r0, [sp, #8]
 80091b4:	4689      	mov	r9, r1
 80091b6:	461e      	mov	r6, r3
 80091b8:	460d      	mov	r5, r1
 80091ba:	462b      	mov	r3, r5
 80091bc:	f815 4b01 	ldrb.w	r4, [r5], #1
 80091c0:	5d17      	ldrb	r7, [r2, r4]
 80091c2:	f017 0708 	ands.w	r7, r7, #8
 80091c6:	d1f8      	bne.n	80091ba <_strtoll_l.isra.0+0x12>
 80091c8:	2c2d      	cmp	r4, #45	@ 0x2d
 80091ca:	d110      	bne.n	80091ee <_strtoll_l.isra.0+0x46>
 80091cc:	782c      	ldrb	r4, [r5, #0]
 80091ce:	2701      	movs	r7, #1
 80091d0:	1c9d      	adds	r5, r3, #2
 80091d2:	f036 0310 	bics.w	r3, r6, #16
 80091d6:	d115      	bne.n	8009204 <_strtoll_l.isra.0+0x5c>
 80091d8:	2c30      	cmp	r4, #48	@ 0x30
 80091da:	d10d      	bne.n	80091f8 <_strtoll_l.isra.0+0x50>
 80091dc:	782b      	ldrb	r3, [r5, #0]
 80091de:	f003 03df 	and.w	r3, r3, #223	@ 0xdf
 80091e2:	2b58      	cmp	r3, #88	@ 0x58
 80091e4:	d108      	bne.n	80091f8 <_strtoll_l.isra.0+0x50>
 80091e6:	786c      	ldrb	r4, [r5, #1]
 80091e8:	3502      	adds	r5, #2
 80091ea:	2610      	movs	r6, #16
 80091ec:	e00a      	b.n	8009204 <_strtoll_l.isra.0+0x5c>
 80091ee:	2c2b      	cmp	r4, #43	@ 0x2b
 80091f0:	bf04      	itt	eq
 80091f2:	782c      	ldrbeq	r4, [r5, #0]
 80091f4:	1c9d      	addeq	r5, r3, #2
 80091f6:	e7ec      	b.n	80091d2 <_strtoll_l.isra.0+0x2a>
 80091f8:	2e00      	cmp	r6, #0
 80091fa:	d1f6      	bne.n	80091ea <_strtoll_l.isra.0+0x42>
 80091fc:	2c30      	cmp	r4, #48	@ 0x30
 80091fe:	bf14      	ite	ne
 8009200:	260a      	movne	r6, #10
 8009202:	2608      	moveq	r6, #8
 8009204:	f107 4a00 	add.w	sl, r7, #2147483648	@ 0x80000000
 8009208:	f107 3bff 	add.w	fp, r7, #4294967295
 800920c:	f10a 3aff 	add.w	sl, sl, #4294967295
 8009210:	17f3      	asrs	r3, r6, #31
 8009212:	4632      	mov	r2, r6
 8009214:	4658      	mov	r0, fp
 8009216:	4651      	mov	r1, sl
 8009218:	9303      	str	r3, [sp, #12]
 800921a:	f7f7 fca7 	bl	8000b6c <__aeabi_uldivmod>
 800921e:	9201      	str	r2, [sp, #4]
 8009220:	2200      	movs	r2, #0
 8009222:	468e      	mov	lr, r1
 8009224:	4684      	mov	ip, r0
 8009226:	4611      	mov	r1, r2
 8009228:	4610      	mov	r0, r2
 800922a:	f1a4 0330 	sub.w	r3, r4, #48	@ 0x30
 800922e:	2b09      	cmp	r3, #9
 8009230:	d905      	bls.n	800923e <_strtoll_l.isra.0+0x96>
 8009232:	f1a4 0341 	sub.w	r3, r4, #65	@ 0x41
 8009236:	2b19      	cmp	r3, #25
 8009238:	d81e      	bhi.n	8009278 <_strtoll_l.isra.0+0xd0>
 800923a:	f1a4 0337 	sub.w	r3, r4, #55	@ 0x37
 800923e:	429e      	cmp	r6, r3
 8009240:	dd24      	ble.n	800928c <_strtoll_l.isra.0+0xe4>
 8009242:	1c54      	adds	r4, r2, #1
 8009244:	d015      	beq.n	8009272 <_strtoll_l.isra.0+0xca>
 8009246:	4584      	cmp	ip, r0
 8009248:	eb7e 0201 	sbcs.w	r2, lr, r1
 800924c:	d31b      	bcc.n	8009286 <_strtoll_l.isra.0+0xde>
 800924e:	458e      	cmp	lr, r1
 8009250:	bf08      	it	eq
 8009252:	4584      	cmpeq	ip, r0
 8009254:	d102      	bne.n	800925c <_strtoll_l.isra.0+0xb4>
 8009256:	9a01      	ldr	r2, [sp, #4]
 8009258:	429a      	cmp	r2, r3
 800925a:	db14      	blt.n	8009286 <_strtoll_l.isra.0+0xde>
 800925c:	9a03      	ldr	r2, [sp, #12]
 800925e:	4371      	muls	r1, r6
 8009260:	fb00 1102 	mla	r1, r0, r2, r1
 8009264:	fba6 0200 	umull	r0, r2, r6, r0
 8009268:	440a      	add	r2, r1
 800926a:	1818      	adds	r0, r3, r0
 800926c:	eb42 71e3 	adc.w	r1, r2, r3, asr #31
 8009270:	2201      	movs	r2, #1
 8009272:	f815 4b01 	ldrb.w	r4, [r5], #1
 8009276:	e7d8      	b.n	800922a <_strtoll_l.isra.0+0x82>
 8009278:	f1a4 0361 	sub.w	r3, r4, #97	@ 0x61
 800927c:	2b19      	cmp	r3, #25
 800927e:	d805      	bhi.n	800928c <_strtoll_l.isra.0+0xe4>
 8009280:	f1a4 0357 	sub.w	r3, r4, #87	@ 0x57
 8009284:	e7db      	b.n	800923e <_strtoll_l.isra.0+0x96>
 8009286:	f04f 32ff 	mov.w	r2, #4294967295
 800928a:	e7f2      	b.n	8009272 <_strtoll_l.isra.0+0xca>
 800928c:	1c53      	adds	r3, r2, #1
 800928e:	d10a      	bne.n	80092a6 <_strtoll_l.isra.0+0xfe>
 8009290:	9a02      	ldr	r2, [sp, #8]
 8009292:	2322      	movs	r3, #34	@ 0x22
 8009294:	6013      	str	r3, [r2, #0]
 8009296:	4658      	mov	r0, fp
 8009298:	4651      	mov	r1, sl
 800929a:	f1b8 0f00 	cmp.w	r8, #0
 800929e:	d10a      	bne.n	80092b6 <_strtoll_l.isra.0+0x10e>
 80092a0:	b005      	add	sp, #20
 80092a2:	e8bd 8ff0 	ldmia.w	sp!, {r4, r5, r6, r7, r8, r9, sl, fp, pc}
 80092a6:	b117      	cbz	r7, 80092ae <_strtoll_l.isra.0+0x106>
 80092a8:	4240      	negs	r0, r0
 80092aa:	eb61 0141 	sbc.w	r1, r1, r1, lsl #1
 80092ae:	f1b8 0f00 	cmp.w	r8, #0
 80092b2:	d0f5      	beq.n	80092a0 <_strtoll_l.isra.0+0xf8>
 80092b4:	b10a      	cbz	r2, 80092ba <_strtoll_l.isra.0+0x112>
 80092b6:	f105 39ff 	add.w	r9, r5, #4294967295
 80092ba:	f8c8 9000 	str.w	r9, [r8]
 80092be:	e7ef      	b.n	80092a0 <_strtoll_l.isra.0+0xf8>
 80092c0:	0800c349 	.word	0x0800c349

080092c4 <strtoll>:
 80092c4:	4613      	mov	r3, r2
 80092c6:	460a      	mov	r2, r1
 80092c8:	4601      	mov	r1, r0
 80092ca:	4802      	ldr	r0, [pc, #8]	@ (80092d4 <strtoll+0x10>)
 80092cc:	6800      	ldr	r0, [r0, #0]
 80092ce:	f7ff bf6b 	b.w	80091a8 <_strtoll_l.isra.0>
 80092d2:	bf00      	nop
 80092d4:	200001c0 	.word	0x200001c0

080092d8 <_strtoull_l.isra.0>:
 80092d8:	e92d 4ff7 	stmdb	sp!, {r0, r1, r2, r4, r5, r6, r7, r8, r9, sl, fp, lr}
 80092dc:	4691      	mov	r9, r2
 80092de:	4a48      	ldr	r2, [pc, #288]	@ (8009400 <_strtoull_l.isra.0+0x128>)
 80092e0:	9001      	str	r0, [sp, #4]
 80092e2:	468a      	mov	sl, r1
 80092e4:	461e      	mov	r6, r3
 80092e6:	460d      	mov	r5, r1
 80092e8:	462b      	mov	r3, r5
 80092ea:	f815 4b01 	ldrb.w	r4, [r5], #1
 80092ee:	5d17      	ldrb	r7, [r2, r4]
 80092f0:	f017 0708 	ands.w	r7, r7, #8
 80092f4:	d1f8      	bne.n	80092e8 <_strtoull_l.isra.0+0x10>
 80092f6:	2c2d      	cmp	r4, #45	@ 0x2d
 80092f8:	d110      	bne.n	800931c <_strtoull_l.isra.0+0x44>
 80092fa:	782c      	ldrb	r4, [r5, #0]
 80092fc:	2701      	movs	r7, #1
 80092fe:	1c9d      	adds	r5, r3, #2
 8009300:	f036 0310 	bics.w	r3, r6, #16
 8009304:	d115      	bne.n	8009332 <_strtoull_l.isra.0+0x5a>
 8009306:	2c30      	cmp	r4, #48	@ 0x30
 8009308:	d10d      	bne.n	8009326 <_strtoull_l.isra.0+0x4e>
 800930a:	782b      	ldrb	r3, [r5, #0]
 800930c:	f003 03df 	and.w	r3, r3, #223	@ 0xdf
 8009310:	2b58      	cmp	r3, #88	@ 0x58
 8009312:	d108      	bne.n	8009326 <_strtoull_l.isra.0+0x4e>
 8009314:	786c      	ldrb	r4, [r5, #1]
 8009316:	3502      	adds	r5, #2
 8009318:	2610      	movs	r6, #16
 800931a:	e00a      	b.n	8009332 <_strtoull_l.isra.0+0x5a>
 800931c:	2c2b      	cmp	r4, #43	@ 0x2b
 800931e:	bf04      	itt	eq
 8009320:	782c      	ldrbeq	r4, [r5, #0]
 8009322:	1c9d      	addeq	r5, r3, #2
 8009324:	e7ec      	b.n	8009300 <_strtoull_l.isra.0+0x28>
 8009326:	2e00      	cmp	r6, #0
 8009328:	d1f6      	bne.n	8009318 <_strtoull_l.isra.0+0x40>
 800932a:	2c30      	cmp	r4, #48	@ 0x30
 800932c:	bf14      	ite	ne
 800932e:	260a      	movne	r6, #10
 8009330:	2608      	moveq	r6, #8
 8009332:	ea4f 7be6 	mov.w	fp, r6, asr #31
 8009336:	4632      	mov	r2, r6
 8009338:	465b      	mov	r3, fp
 800933a:	f04f 30ff 	mov.w	r0, #4294967295
 800933e:	f04f 31ff 	mov.w	r1, #4294967295
 8009342:	f7f7 fc13 	bl	8000b6c <__aeabi_uldivmod>
 8009346:	4632      	mov	r2, r6
 8009348:	9000      	str	r0, [sp, #0]
 800934a:	4688      	mov	r8, r1
 800934c:	465b      	mov	r3, fp
 800934e:	f04f 30ff 	mov.w	r0, #4294967295
 8009352:	f04f 31ff 	mov.w	r1, #4294967295
 8009356:	f7f7 fc09 	bl	8000b6c <__aeabi_uldivmod>
 800935a:	2300      	movs	r3, #0
 800935c:	4618      	mov	r0, r3
 800935e:	4619      	mov	r1, r3
 8009360:	f1a4 0c30 	sub.w	ip, r4, #48	@ 0x30
 8009364:	f1bc 0f09 	cmp.w	ip, #9
 8009368:	d81e      	bhi.n	80093a8 <_strtoull_l.isra.0+0xd0>
 800936a:	4664      	mov	r4, ip
 800936c:	42a6      	cmp	r6, r4
 800936e:	dd2c      	ble.n	80093ca <_strtoull_l.isra.0+0xf2>
 8009370:	f1b3 3fff 	cmp.w	r3, #4294967295
 8009374:	d015      	beq.n	80093a2 <_strtoull_l.isra.0+0xca>
 8009376:	9b00      	ldr	r3, [sp, #0]
 8009378:	4283      	cmp	r3, r0
 800937a:	eb78 0301 	sbcs.w	r3, r8, r1
 800937e:	d321      	bcc.n	80093c4 <_strtoull_l.isra.0+0xec>
 8009380:	9b00      	ldr	r3, [sp, #0]
 8009382:	4588      	cmp	r8, r1
 8009384:	bf08      	it	eq
 8009386:	4283      	cmpeq	r3, r0
 8009388:	d101      	bne.n	800938e <_strtoull_l.isra.0+0xb6>
 800938a:	42a2      	cmp	r2, r4
 800938c:	db1a      	blt.n	80093c4 <_strtoull_l.isra.0+0xec>
 800938e:	4371      	muls	r1, r6
 8009390:	fb00 110b 	mla	r1, r0, fp, r1
 8009394:	fba6 0300 	umull	r0, r3, r6, r0
 8009398:	4419      	add	r1, r3
 800939a:	1820      	adds	r0, r4, r0
 800939c:	eb41 71e4 	adc.w	r1, r1, r4, asr #31
 80093a0:	2301      	movs	r3, #1
 80093a2:	f815 4b01 	ldrb.w	r4, [r5], #1
 80093a6:	e7db      	b.n	8009360 <_strtoull_l.isra.0+0x88>
 80093a8:	f1a4 0c41 	sub.w	ip, r4, #65	@ 0x41
 80093ac:	f1bc 0f19 	cmp.w	ip, #25
 80093b0:	d801      	bhi.n	80093b6 <_strtoull_l.isra.0+0xde>
 80093b2:	3c37      	subs	r4, #55	@ 0x37
 80093b4:	e7da      	b.n	800936c <_strtoull_l.isra.0+0x94>
 80093b6:	f1a4 0c61 	sub.w	ip, r4, #97	@ 0x61
 80093ba:	f1bc 0f19 	cmp.w	ip, #25
 80093be:	d804      	bhi.n	80093ca <_strtoull_l.isra.0+0xf2>
 80093c0:	3c57      	subs	r4, #87	@ 0x57
 80093c2:	e7d3      	b.n	800936c <_strtoull_l.isra.0+0x94>
 80093c4:	f04f 33ff 	mov.w	r3, #4294967295
 80093c8:	e7eb      	b.n	80093a2 <_strtoull_l.isra.0+0xca>
 80093ca:	1c5a      	adds	r2, r3, #1
 80093cc:	d10a      	bne.n	80093e4 <_strtoull_l.isra.0+0x10c>
 80093ce:	9901      	ldr	r1, [sp, #4]
 80093d0:	2222      	movs	r2, #34	@ 0x22
 80093d2:	600a      	str	r2, [r1, #0]
 80093d4:	4618      	mov	r0, r3
 80093d6:	4619      	mov	r1, r3
 80093d8:	f1b9 0f00 	cmp.w	r9, #0
 80093dc:	d10a      	bne.n	80093f4 <_strtoull_l.isra.0+0x11c>
 80093de:	b003      	add	sp, #12
 80093e0:	e8bd 8ff0 	ldmia.w	sp!, {r4, r5, r6, r7, r8, r9, sl, fp, pc}
 80093e4:	b117      	cbz	r7, 80093ec <_strtoull_l.isra.0+0x114>
 80093e6:	4240      	negs	r0, r0
 80093e8:	eb61 0141 	sbc.w	r1, r1, r1, lsl #1
 80093ec:	f1b9 0f00 	cmp.w	r9, #0
 80093f0:	d0f5      	beq.n	80093de <_strtoull_l.isra.0+0x106>
 80093f2:	b10b      	cbz	r3, 80093f8 <_strtoull_l.isra.0+0x120>
 80093f4:	f105 3aff 	add.w	sl, r5, #4294967295
 80093f8:	f8c9 a000 	str.w	sl, [r9]
 80093fc:	e7ef      	b.n	80093de <_strtoull_l.isra.0+0x106>
 80093fe:	bf00      	nop
 8009400:	0800c349 	.word	0x0800c349

08009404 <strtoull>:
 8009404:	4613      	mov	r3, r2
 8009406:	460a      	mov	r2, r1
 8009408:	4601      	mov	r1, r0
 800940a:	4802      	ldr	r0, [pc, #8]	@ (8009414 <strtoull+0x10>)
 800940c:	6800      	ldr	r0, [r0, #0]
 800940e:	f7ff bf63 	b.w	80092d8 <_strtoull_l.isra.0>
 8009412:	bf00      	nop
 8009414:	200001c0 	.word	0x200001c0

08009418 <std>:
 8009418:	2300      	movs	r3, #0
 800941a:	b510      	push	{r4, lr}
 800941c:	4604      	mov	r4, r0
 800941e:	e9c0 3300 	strd	r3, r3, [r0]
 8009422:	e9c0 3304 	strd	r3, r3, [r0, #16]
 8009426:	6083      	str	r3, [r0, #8]
 8009428:	8181      	strh	r1, [r0, #12]
 800942a:	6643      	str	r3, [r0, #100]	@ 0x64
 800942c:	81c2      	strh	r2, [r0, #14]
 800942e:	6183      	str	r3, [r0, #24]
 8009430:	4619      	mov	r1, r3
 8009432:	2208      	movs	r2, #8
 8009434:	305c      	adds	r0, #92	@ 0x5c
 8009436:	f000 f944 	bl	80096c2 <memset>
 800943a:	4b0d      	ldr	r3, [pc, #52]	@ (8009470 <std+0x58>)
 800943c:	6263      	str	r3, [r4, #36]	@ 0x24
 800943e:	4b0d      	ldr	r3, [pc, #52]	@ (8009474 <std+0x5c>)
 8009440:	62a3      	str	r3, [r4, #40]	@ 0x28
 8009442:	4b0d      	ldr	r3, [pc, #52]	@ (8009478 <std+0x60>)
 8009444:	62e3      	str	r3, [r4, #44]	@ 0x2c
 8009446:	4b0d      	ldr	r3, [pc, #52]	@ (800947c <std+0x64>)
 8009448:	6323      	str	r3, [r4, #48]	@ 0x30
 800944a:	4b0d      	ldr	r3, [pc, #52]	@ (8009480 <std+0x68>)
 800944c:	6224      	str	r4, [r4, #32]
 800944e:	429c      	cmp	r4, r3
 8009450:	d006      	beq.n	8009460 <std+0x48>
 8009452:	f103 0268 	add.w	r2, r3, #104	@ 0x68
 8009456:	4294      	cmp	r4, r2
 8009458:	d002      	beq.n	8009460 <std+0x48>
 800945a:	33d0      	adds	r3, #208	@ 0xd0
 800945c:	429c      	cmp	r4, r3
 800945e:	d105      	bne.n	800946c <std+0x54>
 8009460:	f104 0058 	add.w	r0, r4, #88	@ 0x58
 8009464:	e8bd 4010 	ldmia.w	sp!, {r4, lr}
 8009468:	f000 b9e2 	b.w	8009830 <__retarget_lock_init_recursive>
 800946c:	bd10      	pop	{r4, pc}
 800946e:	bf00      	nop
 8009470:	08009609 	.word	0x08009609
 8009474:	0800962b 	.word	0x0800962b
 8009478:	08009663 	.word	0x08009663
 800947c:	08009687 	.word	0x08009687
 8009480:	20000774 	.word	0x20000774

08009484 <stdio_exit_handler>:
 8009484:	4a02      	ldr	r2, [pc, #8]	@ (8009490 <stdio_exit_handler+0xc>)
 8009486:	4903      	ldr	r1, [pc, #12]	@ (8009494 <stdio_exit_handler+0x10>)
 8009488:	4803      	ldr	r0, [pc, #12]	@ (8009498 <stdio_exit_handler+0x14>)
 800948a:	f000 b869 	b.w	8009560 <_fwalk_sglue>
 800948e:	bf00      	nop
 8009490:	20000048 	.word	0x20000048
 8009494:	0800b12d 	.word	0x0800b12d
 8009498:	200001c4 	.word	0x200001c4

0800949c <cleanup_stdio>:
 800949c:	6841      	ldr	r1, [r0, #4]
 800949e:	4b0c      	ldr	r3, [pc, #48]	@ (80094d0 <cleanup_stdio+0x34>)
 80094a0:	4299      	cmp	r1, r3
 80094a2:	b510      	push	{r4, lr}
 80094a4:	4604      	mov	r4, r0
 80094a6:	d001      	beq.n	80094ac <cleanup_stdio+0x10>
 80094a8:	f001 fe40 	bl	800b12c <_fflush_r>
 80094ac:	68a1      	ldr	r1, [r4, #8]
 80094ae:	4b09      	ldr	r3, [pc, #36]	@ (80094d4 <cleanup_stdio+0x38>)
 80094b0:	4299      	cmp	r1, r3
 80094b2:	d002      	beq.n	80094ba <cleanup_stdio+0x1e>
 80094b4:	4620      	mov	r0, r4
 80094b6:	f001 fe39 	bl	800b12c <_fflush_r>
 80094ba:	68e1      	ldr	r1, [r4, #12]
 80094bc:	4b06      	ldr	r3, [pc, #24]	@ (80094d8 <cleanup_stdio+0x3c>)
 80094be:	4299      	cmp	r1, r3
 80094c0:	d004      	beq.n	80094cc <cleanup_stdio+0x30>
 80094c2:	4620      	mov	r0, r4
 80094c4:	e8bd 4010 	ldmia.w	sp!, {r4, lr}
 80094c8:	f001 be30 	b.w	800b12c <_fflush_r>
 80094cc:	bd10      	pop	{r4, pc}
 80094ce:	bf00      	nop
 80094d0:	20000774 	.word	0x20000774
 80094d4:	200007dc 	.word	0x200007dc
 80094d8:	20000844 	.word	0x20000844

080094dc <global_stdio_init.part.0>:
 80094dc:	b510      	push	{r4, lr}
 80094de:	4b0b      	ldr	r3, [pc, #44]	@ (800950c <global_stdio_init.part.0+0x30>)
 80094e0:	4c0b      	ldr	r4, [pc, #44]	@ (8009510 <global_stdio_init.part.0+0x34>)
 80094e2:	4a0c      	ldr	r2, [pc, #48]	@ (8009514 <global_stdio_init.part.0+0x38>)
 80094e4:	601a      	str	r2, [r3, #0]
 80094e6:	4620      	mov	r0, r4
 80094e8:	2200      	movs	r2, #0
 80094ea:	2104      	movs	r1, #4
 80094ec:	f7ff ff94 	bl	8009418 <std>
 80094f0:	f104 0068 	add.w	r0, r4, #104	@ 0x68
 80094f4:	2201      	movs	r2, #1
 80094f6:	2109      	movs	r1, #9
 80094f8:	f7ff ff8e 	bl	8009418 <std>
 80094fc:	f104 00d0 	add.w	r0, r4, #208	@ 0xd0
 8009500:	2202      	movs	r2, #2
 8009502:	e8bd 4010 	ldmia.w	sp!, {r4, lr}
 8009506:	2112      	movs	r1, #18
 8009508:	f7ff bf86 	b.w	8009418 <std>
 800950c:	200008ac 	.word	0x200008ac
 8009510:	20000774 	.word	0x20000774
 8009514:	08009485 	.word	0x08009485

08009518 <__sfp_lock_acquire>:
 8009518:	4801      	ldr	r0, [pc, #4]	@ (8009520 <__sfp_lock_acquire+0x8>)
 800951a:	f000 b98a 	b.w	8009832 <__retarget_lock_acquire_recursive>
 800951e:	bf00      	nop
 8009520:	200008b5 	.word	0x200008b5

08009524 <__sfp_lock_release>:
 8009524:	4801      	ldr	r0, [pc, #4]	@ (800952c <__sfp_lock_release+0x8>)
 8009526:	f000 b985 	b.w	8009834 <__retarget_lock_release_recursive>
 800952a:	bf00      	nop
 800952c:	200008b5 	.word	0x200008b5

08009530 <__sinit>:
 8009530:	b510      	push	{r4, lr}
 8009532:	4604      	mov	r4, r0
 8009534:	f7ff fff0 	bl	8009518 <__sfp_lock_acquire>
 8009538:	6a23      	ldr	r3, [r4, #32]
 800953a:	b11b      	cbz	r3, 8009544 <__sinit+0x14>
 800953c:	e8bd 4010 	ldmia.w	sp!, {r4, lr}
 8009540:	f7ff bff0 	b.w	8009524 <__sfp_lock_release>
 8009544:	4b04      	ldr	r3, [pc, #16]	@ (8009558 <__sinit+0x28>)
 8009546:	6223      	str	r3, [r4, #32]
 8009548:	4b04      	ldr	r3, [pc, #16]	@ (800955c <__sinit+0x2c>)
 800954a:	681b      	ldr	r3, [r3, #0]
 800954c:	2b00      	cmp	r3, #0
 800954e:	d1f5      	bne.n	800953c <__sinit+0xc>
 8009550:	f7ff ffc4 	bl	80094dc <global_stdio_init.part.0>
 8009554:	e7f2      	b.n	800953c <__sinit+0xc>
 8009556:	bf00      	nop
 8009558:	0800949d 	.word	0x0800949d
 800955c:	200008ac 	.word	0x200008ac

08009560 <_fwalk_sglue>:
 8009560:	e92d 43f8 	stmdb	sp!, {r3, r4, r5, r6, r7, r8, r9, lr}
 8009564:	4607      	mov	r7, r0
 8009566:	4688      	mov	r8, r1
 8009568:	4614      	mov	r4, r2
 800956a:	2600      	movs	r6, #0
 800956c:	e9d4 9501 	ldrd	r9, r5, [r4, #4]
 8009570:	f1b9 0901 	subs.w	r9, r9, #1
 8009574:	d505      	bpl.n	8009582 <_fwalk_sglue+0x22>
 8009576:	6824      	ldr	r4, [r4, #0]
 8009578:	2c00      	cmp	r4, #0
 800957a:	d1f7      	bne.n	800956c <_fwalk_sglue+0xc>
 800957c:	4630      	mov	r0, r6
 800957e:	e8bd 83f8 	ldmia.w	sp!, {r3, r4, r5, r6, r7, r8, r9, pc}
 8009582:	89ab      	ldrh	r3, [r5, #12]
 8009584:	2b01      	cmp	r3, #1
 8009586:	d907      	bls.n	8009598 <_fwalk_sglue+0x38>
 8009588:	f9b5 300e 	ldrsh.w	r3, [r5, #14]
 800958c:	3301      	adds	r3, #1
 800958e:	d003      	beq.n	8009598 <_fwalk_sglue+0x38>
 8009590:	4629      	mov	r1, r5
 8009592:	4638      	mov	r0, r7
 8009594:	47c0      	blx	r8
 8009596:	4306      	orrs	r6, r0
 8009598:	3568      	adds	r5, #104	@ 0x68
 800959a:	e7e9      	b.n	8009570 <_fwalk_sglue+0x10>

0800959c <sniprintf>:
 800959c:	b40c      	push	{r2, r3}
 800959e:	b530      	push	{r4, r5, lr}
 80095a0:	4b18      	ldr	r3, [pc, #96]	@ (8009604 <sniprintf+0x68>)
 80095a2:	1e0c      	subs	r4, r1, #0
 80095a4:	681d      	ldr	r5, [r3, #0]
 80095a6:	b09d      	sub	sp, #116	@ 0x74
 80095a8:	da08      	bge.n	80095bc <sniprintf+0x20>
 80095aa:	238b      	movs	r3, #139	@ 0x8b
 80095ac:	602b      	str	r3, [r5, #0]
 80095ae:	f04f 30ff 	mov.w	r0, #4294967295
 80095b2:	b01d      	add	sp, #116	@ 0x74
 80095b4:	e8bd 4030 	ldmia.w	sp!, {r4, r5, lr}
 80095b8:	b002      	add	sp, #8
 80095ba:	4770      	bx	lr
 80095bc:	f44f 7302 	mov.w	r3, #520	@ 0x208
 80095c0:	f8ad 3014 	strh.w	r3, [sp, #20]
 80095c4:	f04f 0300 	mov.w	r3, #0
 80095c8:	931b      	str	r3, [sp, #108]	@ 0x6c
 80095ca:	bf14      	ite	ne
 80095cc:	f104 33ff 	addne.w	r3, r4, #4294967295
 80095d0:	4623      	moveq	r3, r4
 80095d2:	9304      	str	r3, [sp, #16]
 80095d4:	9307      	str	r3, [sp, #28]
 80095d6:	f64f 73ff 	movw	r3, #65535	@ 0xffff
 80095da:	9002      	str	r0, [sp, #8]
 80095dc:	9006      	str	r0, [sp, #24]
 80095de:	f8ad 3016 	strh.w	r3, [sp, #22]
 80095e2:	9a20      	ldr	r2, [sp, #128]	@ 0x80
 80095e4:	ab21      	add	r3, sp, #132	@ 0x84
 80095e6:	a902      	add	r1, sp, #8
 80095e8:	4628      	mov	r0, r5
 80095ea:	9301      	str	r3, [sp, #4]
 80095ec:	f001 fa92 	bl	800ab14 <_svfiprintf_r>
 80095f0:	1c43      	adds	r3, r0, #1
 80095f2:	bfbc      	itt	lt
 80095f4:	238b      	movlt	r3, #139	@ 0x8b
 80095f6:	602b      	strlt	r3, [r5, #0]
 80095f8:	2c00      	cmp	r4, #0
 80095fa:	d0da      	beq.n	80095b2 <sniprintf+0x16>
 80095fc:	9b02      	ldr	r3, [sp, #8]
 80095fe:	2200      	movs	r2, #0
 8009600:	701a      	strb	r2, [r3, #0]
 8009602:	e7d6      	b.n	80095b2 <sniprintf+0x16>
 8009604:	200001c0 	.word	0x200001c0

08009608 <__sread>:
 8009608:	b510      	push	{r4, lr}
 800960a:	460c      	mov	r4, r1
 800960c:	f9b1 100e 	ldrsh.w	r1, [r1, #14]
 8009610:	f000 f8c0 	bl	8009794 <_read_r>
 8009614:	2800      	cmp	r0, #0
 8009616:	bfab      	itete	ge
 8009618:	6d63      	ldrge	r3, [r4, #84]	@ 0x54
 800961a:	89a3      	ldrhlt	r3, [r4, #12]
 800961c:	181b      	addge	r3, r3, r0
 800961e:	f423 5380 	biclt.w	r3, r3, #4096	@ 0x1000
 8009622:	bfac      	ite	ge
 8009624:	6563      	strge	r3, [r4, #84]	@ 0x54
 8009626:	81a3      	strhlt	r3, [r4, #12]
 8009628:	bd10      	pop	{r4, pc}

0800962a <__swrite>:
 800962a:	e92d 41f0 	stmdb	sp!, {r4, r5, r6, r7, r8, lr}
 800962e:	461f      	mov	r7, r3
 8009630:	898b      	ldrh	r3, [r1, #12]
 8009632:	05db      	lsls	r3, r3, #23
 8009634:	4605      	mov	r5, r0
 8009636:	460c      	mov	r4, r1
 8009638:	4616      	mov	r6, r2
 800963a:	d505      	bpl.n	8009648 <__swrite+0x1e>
 800963c:	f9b1 100e 	ldrsh.w	r1, [r1, #14]
 8009640:	2302      	movs	r3, #2
 8009642:	2200      	movs	r2, #0
 8009644:	f000 f894 	bl	8009770 <_lseek_r>
 8009648:	89a3      	ldrh	r3, [r4, #12]
 800964a:	f9b4 100e 	ldrsh.w	r1, [r4, #14]
 800964e:	f423 5380 	bic.w	r3, r3, #4096	@ 0x1000
 8009652:	81a3      	strh	r3, [r4, #12]
 8009654:	4632      	mov	r2, r6
 8009656:	463b      	mov	r3, r7
 8009658:	4628      	mov	r0, r5
 800965a:	e8bd 41f0 	ldmia.w	sp!, {r4, r5, r6, r7, r8, lr}
 800965e:	f000 b8ab 	b.w	80097b8 <_write_r>

08009662 <__sseek>:
 8009662:	b510      	push	{r4, lr}
 8009664:	460c      	mov	r4, r1
 8009666:	f9b1 100e 	ldrsh.w	r1, [r1, #14]
 800966a:	f000 f881 	bl	8009770 <_lseek_r>
 800966e:	1c43      	adds	r3, r0, #1
 8009670:	89a3      	ldrh	r3, [r4, #12]
 8009672:	bf15      	itete	ne
 8009674:	6560      	strne	r0, [r4, #84]	@ 0x54
 8009676:	f423 5380 	biceq.w	r3, r3, #4096	@ 0x1000
 800967a:	f443 5380 	orrne.w	r3, r3, #4096	@ 0x1000
 800967e:	81a3      	strheq	r3, [r4, #12]
 8009680:	bf18      	it	ne
 8009682:	81a3      	strhne	r3, [r4, #12]
 8009684:	bd10      	pop	{r4, pc}

08009686 <__sclose>:
 8009686:	f9b1 100e 	ldrsh.w	r1, [r1, #14]
 800968a:	f000 b861 	b.w	8009750 <_close_r>

0800968e <memmove>:
 800968e:	4288      	cmp	r0, r1
 8009690:	b510      	push	{r4, lr}
 8009692:	eb01 0402 	add.w	r4, r1, r2
 8009696:	d902      	bls.n	800969e <memmove+0x10>
 8009698:	4284      	cmp	r4, r0
 800969a:	4623      	mov	r3, r4
 800969c:	d807      	bhi.n	80096ae <memmove+0x20>
 800969e:	1e43      	subs	r3, r0, #1
 80096a0:	42a1      	cmp	r1, r4
 80096a2:	d008      	beq.n	80096b6 <memmove+0x28>
 80096a4:	f811 2b01 	ldrb.w	r2, [r1], #1
 80096a8:	f803 2f01 	strb.w	r2, [r3, #1]!
 80096ac:	e7f8      	b.n	80096a0 <memmove+0x12>
 80096ae:	4402      	add	r2, r0
 80096b0:	4601      	mov	r1, r0
 80096b2:	428a      	cmp	r2, r1
 80096b4:	d100      	bne.n	80096b8 <memmove+0x2a>
 80096b6:	bd10      	pop	{r4, pc}
 80096b8:	f813 4d01 	ldrb.w	r4, [r3, #-1]!
 80096bc:	f802 4d01 	strb.w	r4, [r2, #-1]!
 80096c0:	e7f7      	b.n	80096b2 <memmove+0x24>

080096c2 <memset>:
 80096c2:	4402      	add	r2, r0
 80096c4:	4603      	mov	r3, r0
 80096c6:	4293      	cmp	r3, r2
 80096c8:	d100      	bne.n	80096cc <memset+0xa>
 80096ca:	4770      	bx	lr
 80096cc:	f803 1b01 	strb.w	r1, [r3], #1
 80096d0:	e7f9      	b.n	80096c6 <memset+0x4>
	...

080096d4 <strncasecmp>:
 80096d4:	b570      	push	{r4, r5, r6, lr}
 80096d6:	4e0e      	ldr	r6, [pc, #56]	@ (8009710 <strncasecmp+0x3c>)
 80096d8:	4605      	mov	r5, r0
 80096da:	440a      	add	r2, r1
 80096dc:	428a      	cmp	r2, r1
 80096de:	d101      	bne.n	80096e4 <strncasecmp+0x10>
 80096e0:	2000      	movs	r0, #0
 80096e2:	e013      	b.n	800970c <strncasecmp+0x38>
 80096e4:	f815 3b01 	ldrb.w	r3, [r5], #1
 80096e8:	f811 4b01 	ldrb.w	r4, [r1], #1
 80096ec:	5cf0      	ldrb	r0, [r6, r3]
 80096ee:	f000 0003 	and.w	r0, r0, #3
 80096f2:	2801      	cmp	r0, #1
 80096f4:	5d30      	ldrb	r0, [r6, r4]
 80096f6:	f000 0003 	and.w	r0, r0, #3
 80096fa:	bf08      	it	eq
 80096fc:	3320      	addeq	r3, #32
 80096fe:	2801      	cmp	r0, #1
 8009700:	bf08      	it	eq
 8009702:	3420      	addeq	r4, #32
 8009704:	1b18      	subs	r0, r3, r4
 8009706:	d101      	bne.n	800970c <strncasecmp+0x38>
 8009708:	2c00      	cmp	r4, #0
 800970a:	d1e7      	bne.n	80096dc <strncasecmp+0x8>
 800970c:	bd70      	pop	{r4, r5, r6, pc}
 800970e:	bf00      	nop
 8009710:	0800c349 	.word	0x0800c349

08009714 <strncmp>:
 8009714:	b510      	push	{r4, lr}
 8009716:	b16a      	cbz	r2, 8009734 <strncmp+0x20>
 8009718:	3901      	subs	r1, #1
 800971a:	1884      	adds	r4, r0, r2
 800971c:	f810 2b01 	ldrb.w	r2, [r0], #1
 8009720:	f811 3f01 	ldrb.w	r3, [r1, #1]!
 8009724:	429a      	cmp	r2, r3
 8009726:	d103      	bne.n	8009730 <strncmp+0x1c>
 8009728:	42a0      	cmp	r0, r4
 800972a:	d001      	beq.n	8009730 <strncmp+0x1c>
 800972c:	2a00      	cmp	r2, #0
 800972e:	d1f5      	bne.n	800971c <strncmp+0x8>
 8009730:	1ad0      	subs	r0, r2, r3
 8009732:	bd10      	pop	{r4, pc}
 8009734:	4610      	mov	r0, r2
 8009736:	e7fc      	b.n	8009732 <strncmp+0x1e>

08009738 <strnlen>:
 8009738:	b510      	push	{r4, lr}
 800973a:	4602      	mov	r2, r0
 800973c:	4401      	add	r1, r0
 800973e:	428a      	cmp	r2, r1
 8009740:	4613      	mov	r3, r2
 8009742:	d003      	beq.n	800974c <strnlen+0x14>
 8009744:	781c      	ldrb	r4, [r3, #0]
 8009746:	3201      	adds	r2, #1
 8009748:	2c00      	cmp	r4, #0
 800974a:	d1f8      	bne.n	800973e <strnlen+0x6>
 800974c:	1a18      	subs	r0, r3, r0
 800974e:	bd10      	pop	{r4, pc}

08009750 <_close_r>:
 8009750:	b538      	push	{r3, r4, r5, lr}
 8009752:	4d06      	ldr	r5, [pc, #24]	@ (800976c <_close_r+0x1c>)
 8009754:	2300      	movs	r3, #0
 8009756:	4604      	mov	r4, r0
 8009758:	4608      	mov	r0, r1
 800975a:	602b      	str	r3, [r5, #0]
 800975c:	f7f8 f92e 	bl	80019bc <_close>
 8009760:	1c43      	adds	r3, r0, #1
 8009762:	d102      	bne.n	800976a <_close_r+0x1a>
 8009764:	682b      	ldr	r3, [r5, #0]
 8009766:	b103      	cbz	r3, 800976a <_close_r+0x1a>
 8009768:	6023      	str	r3, [r4, #0]
 800976a:	bd38      	pop	{r3, r4, r5, pc}
 800976c:	200008b0 	.word	0x200008b0

08009770 <_lseek_r>:
 8009770:	b538      	push	{r3, r4, r5, lr}
 8009772:	4d07      	ldr	r5, [pc, #28]	@ (8009790 <_lseek_r+0x20>)
 8009774:	4604      	mov	r4, r0
 8009776:	4608      	mov	r0, r1
 8009778:	4611      	mov	r1, r2
 800977a:	2200      	movs	r2, #0
 800977c:	602a      	str	r2, [r5, #0]
 800977e:	461a      	mov	r2, r3
 8009780:	f7f8 f926 	bl	80019d0 <_lseek>
 8009784:	1c43      	adds	r3, r0, #1
 8009786:	d102      	bne.n	800978e <_lseek_r+0x1e>
 8009788:	682b      	ldr	r3, [r5, #0]
 800978a:	b103      	cbz	r3, 800978e <_lseek_r+0x1e>
 800978c:	6023      	str	r3, [r4, #0]
 800978e:	bd38      	pop	{r3, r4, r5, pc}
 8009790:	200008b0 	.word	0x200008b0

08009794 <_read_r>:
 8009794:	b538      	push	{r3, r4, r5, lr}
 8009796:	4d07      	ldr	r5, [pc, #28]	@ (80097b4 <_read_r+0x20>)
 8009798:	4604      	mov	r4, r0
 800979a:	4608      	mov	r0, r1
 800979c:	4611      	mov	r1, r2
 800979e:	2200      	movs	r2, #0
 80097a0:	602a      	str	r2, [r5, #0]
 80097a2:	461a      	mov	r2, r3
 80097a4:	f7f8 f8ee 	bl	8001984 <_read>
 80097a8:	1c43      	adds	r3, r0, #1
 80097aa:	d102      	bne.n	80097b2 <_read_r+0x1e>
 80097ac:	682b      	ldr	r3, [r5, #0]
 80097ae:	b103      	cbz	r3, 80097b2 <_read_r+0x1e>
 80097b0:	6023      	str	r3, [r4, #0]
 80097b2:	bd38      	pop	{r3, r4, r5, pc}
 80097b4:	200008b0 	.word	0x200008b0

080097b8 <_write_r>:
 80097b8:	b538      	push	{r3, r4, r5, lr}
 80097ba:	4d07      	ldr	r5, [pc, #28]	@ (80097d8 <_write_r+0x20>)
 80097bc:	4604      	mov	r4, r0
 80097be:	4608      	mov	r0, r1
 80097c0:	4611      	mov	r1, r2
 80097c2:	2200      	movs	r2, #0
 80097c4:	602a      	str	r2, [r5, #0]
 80097c6:	461a      	mov	r2, r3
 80097c8:	f7f8 f8ea 	bl	80019a0 <_write>
 80097cc:	1c43      	adds	r3, r0, #1
 80097ce:	d102      	bne.n	80097d6 <_write_r+0x1e>
 80097d0:	682b      	ldr	r3, [r5, #0]
 80097d2:	b103      	cbz	r3, 80097d6 <_write_r+0x1e>
 80097d4:	6023      	str	r3, [r4, #0]
 80097d6:	bd38      	pop	{r3, r4, r5, pc}
 80097d8:	200008b0 	.word	0x200008b0

080097dc <__errno>:
 80097dc:	4b01      	ldr	r3, [pc, #4]	@ (80097e4 <__errno+0x8>)
 80097de:	6818      	ldr	r0, [r3, #0]
 80097e0:	4770      	bx	lr
 80097e2:	bf00      	nop
 80097e4:	200001c0 	.word	0x200001c0

080097e8 <__libc_init_array>:
 80097e8:	b570      	push	{r4, r5, r6, lr}
 80097ea:	4d0d      	ldr	r5, [pc, #52]	@ (8009820 <__libc_init_array+0x38>)
 80097ec:	4c0d      	ldr	r4, [pc, #52]	@ (8009824 <__libc_init_array+0x3c>)
 80097ee:	1b64      	subs	r4, r4, r5
 80097f0:	10a4      	asrs	r4, r4, #2
 80097f2:	2600      	movs	r6, #0
 80097f4:	42a6      	cmp	r6, r4
 80097f6:	d109      	bne.n	800980c <__libc_init_array+0x24>
 80097f8:	4d0b      	ldr	r5, [pc, #44]	@ (8009828 <__libc_init_array+0x40>)
 80097fa:	4c0c      	ldr	r4, [pc, #48]	@ (800982c <__libc_init_array+0x44>)
 80097fc:	f001 fff4 	bl	800b7e8 <_init>
 8009800:	1b64      	subs	r4, r4, r5
 8009802:	10a4      	asrs	r4, r4, #2
 8009804:	2600      	movs	r6, #0
 8009806:	42a6      	cmp	r6, r4
 8009808:	d105      	bne.n	8009816 <__libc_init_array+0x2e>
 800980a:	bd70      	pop	{r4, r5, r6, pc}
 800980c:	f855 3b04 	ldr.w	r3, [r5], #4
 8009810:	4798      	blx	r3
 8009812:	3601      	adds	r6, #1
 8009814:	e7ee      	b.n	80097f4 <__libc_init_array+0xc>
 8009816:	f855 3b04 	ldr.w	r3, [r5], #4
 800981a:	4798      	blx	r3
 800981c:	3601      	adds	r6, #1
 800981e:	e7f2      	b.n	8009806 <__libc_init_array+0x1e>
 8009820:	0800c550 	.word	0x0800c550
 8009824:	0800c550 	.word	0x0800c550
 8009828:	0800c550 	.word	0x0800c550
 800982c:	0800c554 	.word	0x0800c554

08009830 <__retarget_lock_init_recursive>:
 8009830:	4770      	bx	lr

08009832 <__retarget_lock_acquire_recursive>:
 8009832:	4770      	bx	lr

08009834 <__retarget_lock_release_recursive>:
 8009834:	4770      	bx	lr

08009836 <memcpy>:
 8009836:	440a      	add	r2, r1
 8009838:	4291      	cmp	r1, r2
 800983a:	f100 33ff 	add.w	r3, r0, #4294967295
 800983e:	d100      	bne.n	8009842 <memcpy+0xc>
 8009840:	4770      	bx	lr
 8009842:	b510      	push	{r4, lr}
 8009844:	f811 4b01 	ldrb.w	r4, [r1], #1
 8009848:	f803 4f01 	strb.w	r4, [r3, #1]!
 800984c:	4291      	cmp	r1, r2
 800984e:	d1f9      	bne.n	8009844 <memcpy+0xe>
 8009850:	bd10      	pop	{r4, pc}
 8009852:	0000      	movs	r0, r0
 8009854:	0000      	movs	r0, r0
	...

08009858 <nan>:
 8009858:	ed9f 0b01 	vldr	d0, [pc, #4]	@ 8009860 <nan+0x8>
 800985c:	4770      	bx	lr
 800985e:	bf00      	nop
 8009860:	00000000 	.word	0x00000000
 8009864:	7ff80000 	.word	0x7ff80000

08009868 <_free_r>:
 8009868:	b538      	push	{r3, r4, r5, lr}
 800986a:	4605      	mov	r5, r0
 800986c:	2900      	cmp	r1, #0
 800986e:	d041      	beq.n	80098f4 <_free_r+0x8c>
 8009870:	f851 3c04 	ldr.w	r3, [r1, #-4]
 8009874:	1f0c      	subs	r4, r1, #4
 8009876:	2b00      	cmp	r3, #0
 8009878:	bfb8      	it	lt
 800987a:	18e4      	addlt	r4, r4, r3
 800987c:	f000 fc2c 	bl	800a0d8 <__malloc_lock>
 8009880:	4a1d      	ldr	r2, [pc, #116]	@ (80098f8 <_free_r+0x90>)
 8009882:	6813      	ldr	r3, [r2, #0]
 8009884:	b933      	cbnz	r3, 8009894 <_free_r+0x2c>
 8009886:	6063      	str	r3, [r4, #4]
 8009888:	6014      	str	r4, [r2, #0]
 800988a:	4628      	mov	r0, r5
 800988c:	e8bd 4038 	ldmia.w	sp!, {r3, r4, r5, lr}
 8009890:	f000 bc28 	b.w	800a0e4 <__malloc_unlock>
 8009894:	42a3      	cmp	r3, r4
 8009896:	d908      	bls.n	80098aa <_free_r+0x42>
 8009898:	6820      	ldr	r0, [r4, #0]
 800989a:	1821      	adds	r1, r4, r0
 800989c:	428b      	cmp	r3, r1
 800989e:	bf01      	itttt	eq
 80098a0:	6819      	ldreq	r1, [r3, #0]
 80098a2:	685b      	ldreq	r3, [r3, #4]
 80098a4:	1809      	addeq	r1, r1, r0
 80098a6:	6021      	streq	r1, [r4, #0]
 80098a8:	e7ed      	b.n	8009886 <_free_r+0x1e>
 80098aa:	461a      	mov	r2, r3
 80098ac:	685b      	ldr	r3, [r3, #4]
 80098ae:	b10b      	cbz	r3, 80098b4 <_free_r+0x4c>
 80098b0:	42a3      	cmp	r3, r4
 80098b2:	d9fa      	bls.n	80098aa <_free_r+0x42>
 80098b4:	6811      	ldr	r1, [r2, #0]
 80098b6:	1850      	adds	r0, r2, r1
 80098b8:	42a0      	cmp	r0, r4
 80098ba:	d10b      	bne.n	80098d4 <_free_r+0x6c>
 80098bc:	6820      	ldr	r0, [r4, #0]
 80098be:	4401      	add	r1, r0
 80098c0:	1850      	adds	r0, r2, r1
 80098c2:	4283      	cmp	r3, r0
 80098c4:	6011      	str	r1, [r2, #0]
 80098c6:	d1e0      	bne.n	800988a <_free_r+0x22>
 80098c8:	6818      	ldr	r0, [r3, #0]
 80098ca:	685b      	ldr	r3, [r3, #4]
 80098cc:	6053      	str	r3, [r2, #4]
 80098ce:	4408      	add	r0, r1
 80098d0:	6010      	str	r0, [r2, #0]
 80098d2:	e7da      	b.n	800988a <_free_r+0x22>
 80098d4:	d902      	bls.n	80098dc <_free_r+0x74>
 80098d6:	230c      	movs	r3, #12
 80098d8:	602b      	str	r3, [r5, #0]
 80098da:	e7d6      	b.n	800988a <_free_r+0x22>
 80098dc:	6820      	ldr	r0, [r4, #0]
 80098de:	1821      	adds	r1, r4, r0
 80098e0:	428b      	cmp	r3, r1
 80098e2:	bf04      	itt	eq
 80098e4:	6819      	ldreq	r1, [r3, #0]
 80098e6:	685b      	ldreq	r3, [r3, #4]
 80098e8:	6063      	str	r3, [r4, #4]
 80098ea:	bf04      	itt	eq
 80098ec:	1809      	addeq	r1, r1, r0
 80098ee:	6021      	streq	r1, [r4, #0]
 80098f0:	6054      	str	r4, [r2, #4]
 80098f2:	e7ca      	b.n	800988a <_free_r+0x22>
 80098f4:	bd38      	pop	{r3, r4, r5, pc}
 80098f6:	bf00      	nop
 80098f8:	200008bc 	.word	0x200008bc

080098fc <rshift>:
 80098fc:	6903      	ldr	r3, [r0, #16]
 80098fe:	ebb3 1f61 	cmp.w	r3, r1, asr #5
 8009902:	e92d 43f0 	stmdb	sp!, {r4, r5, r6, r7, r8, r9, lr}
 8009906:	ea4f 1261 	mov.w	r2, r1, asr #5
 800990a:	f100 0414 	add.w	r4, r0, #20
 800990e:	dd45      	ble.n	800999c <rshift+0xa0>
 8009910:	f011 011f 	ands.w	r1, r1, #31
 8009914:	eb04 0683 	add.w	r6, r4, r3, lsl #2
 8009918:	eb04 0582 	add.w	r5, r4, r2, lsl #2
 800991c:	d10c      	bne.n	8009938 <rshift+0x3c>
 800991e:	f100 0710 	add.w	r7, r0, #16
 8009922:	4629      	mov	r1, r5
 8009924:	42b1      	cmp	r1, r6
 8009926:	d334      	bcc.n	8009992 <rshift+0x96>
 8009928:	1a9b      	subs	r3, r3, r2
 800992a:	009b      	lsls	r3, r3, #2
 800992c:	1eea      	subs	r2, r5, #3
 800992e:	4296      	cmp	r6, r2
 8009930:	bf38      	it	cc
 8009932:	2300      	movcc	r3, #0
 8009934:	4423      	add	r3, r4
 8009936:	e015      	b.n	8009964 <rshift+0x68>
 8009938:	f854 7022 	ldr.w	r7, [r4, r2, lsl #2]
 800993c:	f1c1 0820 	rsb	r8, r1, #32
 8009940:	40cf      	lsrs	r7, r1
 8009942:	f105 0e04 	add.w	lr, r5, #4
 8009946:	46a1      	mov	r9, r4
 8009948:	4576      	cmp	r6, lr
 800994a:	46f4      	mov	ip, lr
 800994c:	d815      	bhi.n	800997a <rshift+0x7e>
 800994e:	1a9a      	subs	r2, r3, r2
 8009950:	0092      	lsls	r2, r2, #2
 8009952:	3a04      	subs	r2, #4
 8009954:	3501      	adds	r5, #1
 8009956:	42ae      	cmp	r6, r5
 8009958:	bf38      	it	cc
 800995a:	2200      	movcc	r2, #0
 800995c:	18a3      	adds	r3, r4, r2
 800995e:	50a7      	str	r7, [r4, r2]
 8009960:	b107      	cbz	r7, 8009964 <rshift+0x68>
 8009962:	3304      	adds	r3, #4
 8009964:	1b1a      	subs	r2, r3, r4
 8009966:	42a3      	cmp	r3, r4
 8009968:	ea4f 02a2 	mov.w	r2, r2, asr #2
 800996c:	bf08      	it	eq
 800996e:	2300      	moveq	r3, #0
 8009970:	6102      	str	r2, [r0, #16]
 8009972:	bf08      	it	eq
 8009974:	6143      	streq	r3, [r0, #20]
 8009976:	e8bd 83f0 	ldmia.w	sp!, {r4, r5, r6, r7, r8, r9, pc}
 800997a:	f8dc c000 	ldr.w	ip, [ip]
 800997e:	fa0c fc08 	lsl.w	ip, ip, r8
 8009982:	ea4c 0707 	orr.w	r7, ip, r7
 8009986:	f849 7b04 	str.w	r7, [r9], #4
 800998a:	f85e 7b04 	ldr.w	r7, [lr], #4
 800998e:	40cf      	lsrs	r7, r1
 8009990:	e7da      	b.n	8009948 <rshift+0x4c>
 8009992:	f851 cb04 	ldr.w	ip, [r1], #4
 8009996:	f847 cf04 	str.w	ip, [r7, #4]!
 800999a:	e7c3      	b.n	8009924 <rshift+0x28>
 800999c:	4623      	mov	r3, r4
 800999e:	e7e1      	b.n	8009964 <rshift+0x68>

080099a0 <__hexdig_fun>:
 80099a0:	f1a0 0330 	sub.w	r3, r0, #48	@ 0x30
 80099a4:	2b09      	cmp	r3, #9
 80099a6:	d802      	bhi.n	80099ae <__hexdig_fun+0xe>
 80099a8:	3820      	subs	r0, #32
 80099aa:	b2c0      	uxtb	r0, r0
 80099ac:	4770      	bx	lr
 80099ae:	f1a0 0361 	sub.w	r3, r0, #97	@ 0x61
 80099b2:	2b05      	cmp	r3, #5
 80099b4:	d801      	bhi.n	80099ba <__hexdig_fun+0x1a>
 80099b6:	3847      	subs	r0, #71	@ 0x47
 80099b8:	e7f7      	b.n	80099aa <__hexdig_fun+0xa>
 80099ba:	f1a0 0341 	sub.w	r3, r0, #65	@ 0x41
 80099be:	2b05      	cmp	r3, #5
 80099c0:	d801      	bhi.n	80099c6 <__hexdig_fun+0x26>
 80099c2:	3827      	subs	r0, #39	@ 0x27
 80099c4:	e7f1      	b.n	80099aa <__hexdig_fun+0xa>
 80099c6:	2000      	movs	r0, #0
 80099c8:	4770      	bx	lr
	...

080099cc <__gethex>:
 80099cc:	e92d 4ff0 	stmdb	sp!, {r4, r5, r6, r7, r8, r9, sl, fp, lr}
 80099d0:	b085      	sub	sp, #20
 80099d2:	468a      	mov	sl, r1
 80099d4:	9302      	str	r3, [sp, #8]
 80099d6:	680b      	ldr	r3, [r1, #0]
 80099d8:	9001      	str	r0, [sp, #4]
 80099da:	4690      	mov	r8, r2
 80099dc:	1c9c      	adds	r4, r3, #2
 80099de:	46a1      	mov	r9, r4
 80099e0:	f814 0b01 	ldrb.w	r0, [r4], #1
 80099e4:	2830      	cmp	r0, #48	@ 0x30
 80099e6:	d0fa      	beq.n	80099de <__gethex+0x12>
 80099e8:	eba9 0303 	sub.w	r3, r9, r3
 80099ec:	f1a3 0b02 	sub.w	fp, r3, #2
 80099f0:	f7ff ffd6 	bl	80099a0 <__hexdig_fun>
 80099f4:	4605      	mov	r5, r0
 80099f6:	2800      	cmp	r0, #0
 80099f8:	d168      	bne.n	8009acc <__gethex+0x100>
 80099fa:	49a0      	ldr	r1, [pc, #640]	@ (8009c7c <__gethex+0x2b0>)
 80099fc:	2201      	movs	r2, #1
 80099fe:	4648      	mov	r0, r9
 8009a00:	f7ff fe88 	bl	8009714 <strncmp>
 8009a04:	4607      	mov	r7, r0
 8009a06:	2800      	cmp	r0, #0
 8009a08:	d167      	bne.n	8009ada <__gethex+0x10e>
 8009a0a:	f899 0001 	ldrb.w	r0, [r9, #1]
 8009a0e:	4626      	mov	r6, r4
 8009a10:	f7ff ffc6 	bl	80099a0 <__hexdig_fun>
 8009a14:	2800      	cmp	r0, #0
 8009a16:	d062      	beq.n	8009ade <__gethex+0x112>
 8009a18:	4623      	mov	r3, r4
 8009a1a:	7818      	ldrb	r0, [r3, #0]
 8009a1c:	2830      	cmp	r0, #48	@ 0x30
 8009a1e:	4699      	mov	r9, r3
 8009a20:	f103 0301 	add.w	r3, r3, #1
 8009a24:	d0f9      	beq.n	8009a1a <__gethex+0x4e>
 8009a26:	f7ff ffbb 	bl	80099a0 <__hexdig_fun>
 8009a2a:	fab0 f580 	clz	r5, r0
 8009a2e:	096d      	lsrs	r5, r5, #5
 8009a30:	f04f 0b01 	mov.w	fp, #1
 8009a34:	464a      	mov	r2, r9
 8009a36:	4616      	mov	r6, r2
 8009a38:	3201      	adds	r2, #1
 8009a3a:	7830      	ldrb	r0, [r6, #0]
 8009a3c:	f7ff ffb0 	bl	80099a0 <__hexdig_fun>
 8009a40:	2800      	cmp	r0, #0
 8009a42:	d1f8      	bne.n	8009a36 <__gethex+0x6a>
 8009a44:	498d      	ldr	r1, [pc, #564]	@ (8009c7c <__gethex+0x2b0>)
 8009a46:	2201      	movs	r2, #1
 8009a48:	4630      	mov	r0, r6
 8009a4a:	f7ff fe63 	bl	8009714 <strncmp>
 8009a4e:	2800      	cmp	r0, #0
 8009a50:	d13f      	bne.n	8009ad2 <__gethex+0x106>
 8009a52:	b944      	cbnz	r4, 8009a66 <__gethex+0x9a>
 8009a54:	1c74      	adds	r4, r6, #1
 8009a56:	4622      	mov	r2, r4
 8009a58:	4616      	mov	r6, r2
 8009a5a:	3201      	adds	r2, #1
 8009a5c:	7830      	ldrb	r0, [r6, #0]
 8009a5e:	f7ff ff9f 	bl	80099a0 <__hexdig_fun>
 8009a62:	2800      	cmp	r0, #0
 8009a64:	d1f8      	bne.n	8009a58 <__gethex+0x8c>
 8009a66:	1ba4      	subs	r4, r4, r6
 8009a68:	00a7      	lsls	r7, r4, #2
 8009a6a:	7833      	ldrb	r3, [r6, #0]
 8009a6c:	f003 03df 	and.w	r3, r3, #223	@ 0xdf
 8009a70:	2b50      	cmp	r3, #80	@ 0x50
 8009a72:	d13e      	bne.n	8009af2 <__gethex+0x126>
 8009a74:	7873      	ldrb	r3, [r6, #1]
 8009a76:	2b2b      	cmp	r3, #43	@ 0x2b
 8009a78:	d033      	beq.n	8009ae2 <__gethex+0x116>
 8009a7a:	2b2d      	cmp	r3, #45	@ 0x2d
 8009a7c:	d034      	beq.n	8009ae8 <__gethex+0x11c>
 8009a7e:	1c71      	adds	r1, r6, #1
 8009a80:	2400      	movs	r4, #0
 8009a82:	7808      	ldrb	r0, [r1, #0]
 8009a84:	f7ff ff8c 	bl	80099a0 <__hexdig_fun>
 8009a88:	1e43      	subs	r3, r0, #1
 8009a8a:	b2db      	uxtb	r3, r3
 8009a8c:	2b18      	cmp	r3, #24
 8009a8e:	d830      	bhi.n	8009af2 <__gethex+0x126>
 8009a90:	f1a0 0210 	sub.w	r2, r0, #16
 8009a94:	f811 0f01 	ldrb.w	r0, [r1, #1]!
 8009a98:	f7ff ff82 	bl	80099a0 <__hexdig_fun>
 8009a9c:	f100 3cff 	add.w	ip, r0, #4294967295
 8009aa0:	fa5f fc8c 	uxtb.w	ip, ip
 8009aa4:	f1bc 0f18 	cmp.w	ip, #24
 8009aa8:	f04f 030a 	mov.w	r3, #10
 8009aac:	d91e      	bls.n	8009aec <__gethex+0x120>
 8009aae:	b104      	cbz	r4, 8009ab2 <__gethex+0xe6>
 8009ab0:	4252      	negs	r2, r2
 8009ab2:	4417      	add	r7, r2
 8009ab4:	f8ca 1000 	str.w	r1, [sl]
 8009ab8:	b1ed      	cbz	r5, 8009af6 <__gethex+0x12a>
 8009aba:	f1bb 0f00 	cmp.w	fp, #0
 8009abe:	bf0c      	ite	eq
 8009ac0:	2506      	moveq	r5, #6
 8009ac2:	2500      	movne	r5, #0
 8009ac4:	4628      	mov	r0, r5
 8009ac6:	b005      	add	sp, #20
 8009ac8:	e8bd 8ff0 	ldmia.w	sp!, {r4, r5, r6, r7, r8, r9, sl, fp, pc}
 8009acc:	2500      	movs	r5, #0
 8009ace:	462c      	mov	r4, r5
 8009ad0:	e7b0      	b.n	8009a34 <__gethex+0x68>
 8009ad2:	2c00      	cmp	r4, #0
 8009ad4:	d1c7      	bne.n	8009a66 <__gethex+0x9a>
 8009ad6:	4627      	mov	r7, r4
 8009ad8:	e7c7      	b.n	8009a6a <__gethex+0x9e>
 8009ada:	464e      	mov	r6, r9
 8009adc:	462f      	mov	r7, r5
 8009ade:	2501      	movs	r5, #1
 8009ae0:	e7c3      	b.n	8009a6a <__gethex+0x9e>
 8009ae2:	2400      	movs	r4, #0
 8009ae4:	1cb1      	adds	r1, r6, #2
 8009ae6:	e7cc      	b.n	8009a82 <__gethex+0xb6>
 8009ae8:	2401      	movs	r4, #1
 8009aea:	e7fb      	b.n	8009ae4 <__gethex+0x118>
 8009aec:	fb03 0002 	mla	r0, r3, r2, r0
 8009af0:	e7ce      	b.n	8009a90 <__gethex+0xc4>
 8009af2:	4631      	mov	r1, r6
 8009af4:	e7de      	b.n	8009ab4 <__gethex+0xe8>
 8009af6:	eba6 0309 	sub.w	r3, r6, r9
 8009afa:	3b01      	subs	r3, #1
 8009afc:	4629      	mov	r1, r5
 8009afe:	2b07      	cmp	r3, #7
 8009b00:	dc0a      	bgt.n	8009b18 <__gethex+0x14c>
 8009b02:	9801      	ldr	r0, [sp, #4]
 8009b04:	f000 faf4 	bl	800a0f0 <_Balloc>
 8009b08:	4604      	mov	r4, r0
 8009b0a:	b940      	cbnz	r0, 8009b1e <__gethex+0x152>
 8009b0c:	4b5c      	ldr	r3, [pc, #368]	@ (8009c80 <__gethex+0x2b4>)
 8009b0e:	4602      	mov	r2, r0
 8009b10:	21e4      	movs	r1, #228	@ 0xe4
 8009b12:	485c      	ldr	r0, [pc, #368]	@ (8009c84 <__gethex+0x2b8>)
 8009b14:	f001 fb42 	bl	800b19c <__assert_func>
 8009b18:	3101      	adds	r1, #1
 8009b1a:	105b      	asrs	r3, r3, #1
 8009b1c:	e7ef      	b.n	8009afe <__gethex+0x132>
 8009b1e:	f100 0a14 	add.w	sl, r0, #20
 8009b22:	2300      	movs	r3, #0
 8009b24:	4655      	mov	r5, sl
 8009b26:	469b      	mov	fp, r3
 8009b28:	45b1      	cmp	r9, r6
 8009b2a:	d337      	bcc.n	8009b9c <__gethex+0x1d0>
 8009b2c:	f845 bb04 	str.w	fp, [r5], #4
 8009b30:	eba5 050a 	sub.w	r5, r5, sl
 8009b34:	10ad      	asrs	r5, r5, #2
 8009b36:	6125      	str	r5, [r4, #16]
 8009b38:	4658      	mov	r0, fp
 8009b3a:	f000 fbcb 	bl	800a2d4 <__hi0bits>
 8009b3e:	016d      	lsls	r5, r5, #5
 8009b40:	f8d8 6000 	ldr.w	r6, [r8]
 8009b44:	1a2d      	subs	r5, r5, r0
 8009b46:	42b5      	cmp	r5, r6
 8009b48:	dd54      	ble.n	8009bf4 <__gethex+0x228>
 8009b4a:	1bad      	subs	r5, r5, r6
 8009b4c:	4629      	mov	r1, r5
 8009b4e:	4620      	mov	r0, r4
 8009b50:	f000 ff57 	bl	800aa02 <__any_on>
 8009b54:	4681      	mov	r9, r0
 8009b56:	b178      	cbz	r0, 8009b78 <__gethex+0x1ac>
 8009b58:	1e6b      	subs	r3, r5, #1
 8009b5a:	1159      	asrs	r1, r3, #5
 8009b5c:	f003 021f 	and.w	r2, r3, #31
 8009b60:	f85a 1021 	ldr.w	r1, [sl, r1, lsl #2]
 8009b64:	f04f 0901 	mov.w	r9, #1
 8009b68:	fa09 f202 	lsl.w	r2, r9, r2
 8009b6c:	420a      	tst	r2, r1
 8009b6e:	d003      	beq.n	8009b78 <__gethex+0x1ac>
 8009b70:	454b      	cmp	r3, r9
 8009b72:	dc36      	bgt.n	8009be2 <__gethex+0x216>
 8009b74:	f04f 0902 	mov.w	r9, #2
 8009b78:	4629      	mov	r1, r5
 8009b7a:	4620      	mov	r0, r4
 8009b7c:	f7ff febe 	bl	80098fc <rshift>
 8009b80:	442f      	add	r7, r5
 8009b82:	f8d8 3008 	ldr.w	r3, [r8, #8]
 8009b86:	42bb      	cmp	r3, r7
 8009b88:	da42      	bge.n	8009c10 <__gethex+0x244>
 8009b8a:	9801      	ldr	r0, [sp, #4]
 8009b8c:	4621      	mov	r1, r4
 8009b8e:	f000 faef 	bl	800a170 <_Bfree>
 8009b92:	9a0e      	ldr	r2, [sp, #56]	@ 0x38
 8009b94:	2300      	movs	r3, #0
 8009b96:	6013      	str	r3, [r2, #0]
 8009b98:	25a3      	movs	r5, #163	@ 0xa3
 8009b9a:	e793      	b.n	8009ac4 <__gethex+0xf8>
 8009b9c:	f816 2d01 	ldrb.w	r2, [r6, #-1]!
 8009ba0:	2a2e      	cmp	r2, #46	@ 0x2e
 8009ba2:	d012      	beq.n	8009bca <__gethex+0x1fe>
 8009ba4:	2b20      	cmp	r3, #32
 8009ba6:	d104      	bne.n	8009bb2 <__gethex+0x1e6>
 8009ba8:	f845 bb04 	str.w	fp, [r5], #4
 8009bac:	f04f 0b00 	mov.w	fp, #0
 8009bb0:	465b      	mov	r3, fp
 8009bb2:	7830      	ldrb	r0, [r6, #0]
 8009bb4:	9303      	str	r3, [sp, #12]
 8009bb6:	f7ff fef3 	bl	80099a0 <__hexdig_fun>
 8009bba:	9b03      	ldr	r3, [sp, #12]
 8009bbc:	f000 000f 	and.w	r0, r0, #15
 8009bc0:	4098      	lsls	r0, r3
 8009bc2:	ea4b 0b00 	orr.w	fp, fp, r0
 8009bc6:	3304      	adds	r3, #4
 8009bc8:	e7ae      	b.n	8009b28 <__gethex+0x15c>
 8009bca:	45b1      	cmp	r9, r6
 8009bcc:	d8ea      	bhi.n	8009ba4 <__gethex+0x1d8>
 8009bce:	492b      	ldr	r1, [pc, #172]	@ (8009c7c <__gethex+0x2b0>)
 8009bd0:	9303      	str	r3, [sp, #12]
 8009bd2:	2201      	movs	r2, #1
 8009bd4:	4630      	mov	r0, r6
 8009bd6:	f7ff fd9d 	bl	8009714 <strncmp>
 8009bda:	9b03      	ldr	r3, [sp, #12]
 8009bdc:	2800      	cmp	r0, #0
 8009bde:	d1e1      	bne.n	8009ba4 <__gethex+0x1d8>
 8009be0:	e7a2      	b.n	8009b28 <__gethex+0x15c>
 8009be2:	1ea9      	subs	r1, r5, #2
 8009be4:	4620      	mov	r0, r4
 8009be6:	f000 ff0c 	bl	800aa02 <__any_on>
 8009bea:	2800      	cmp	r0, #0
 8009bec:	d0c2      	beq.n	8009b74 <__gethex+0x1a8>
 8009bee:	f04f 0903 	mov.w	r9, #3
 8009bf2:	e7c1      	b.n	8009b78 <__gethex+0x1ac>
 8009bf4:	da09      	bge.n	8009c0a <__gethex+0x23e>
 8009bf6:	1b75      	subs	r5, r6, r5
 8009bf8:	4621      	mov	r1, r4
 8009bfa:	9801      	ldr	r0, [sp, #4]
 8009bfc:	462a      	mov	r2, r5
 8009bfe:	f000 fcc7 	bl	800a590 <__lshift>
 8009c02:	1b7f      	subs	r7, r7, r5
 8009c04:	4604      	mov	r4, r0
 8009c06:	f100 0a14 	add.w	sl, r0, #20
 8009c0a:	f04f 0900 	mov.w	r9, #0
 8009c0e:	e7b8      	b.n	8009b82 <__gethex+0x1b6>
 8009c10:	f8d8 5004 	ldr.w	r5, [r8, #4]
 8009c14:	42bd      	cmp	r5, r7
 8009c16:	dd6f      	ble.n	8009cf8 <__gethex+0x32c>
 8009c18:	1bed      	subs	r5, r5, r7
 8009c1a:	42ae      	cmp	r6, r5
 8009c1c:	dc34      	bgt.n	8009c88 <__gethex+0x2bc>
 8009c1e:	f8d8 300c 	ldr.w	r3, [r8, #12]
 8009c22:	2b02      	cmp	r3, #2
 8009c24:	d022      	beq.n	8009c6c <__gethex+0x2a0>
 8009c26:	2b03      	cmp	r3, #3
 8009c28:	d024      	beq.n	8009c74 <__gethex+0x2a8>
 8009c2a:	2b01      	cmp	r3, #1
 8009c2c:	d115      	bne.n	8009c5a <__gethex+0x28e>
 8009c2e:	42ae      	cmp	r6, r5
 8009c30:	d113      	bne.n	8009c5a <__gethex+0x28e>
 8009c32:	2e01      	cmp	r6, #1
 8009c34:	d10b      	bne.n	8009c4e <__gethex+0x282>
 8009c36:	9a02      	ldr	r2, [sp, #8]
 8009c38:	f8d8 3004 	ldr.w	r3, [r8, #4]
 8009c3c:	6013      	str	r3, [r2, #0]
 8009c3e:	2301      	movs	r3, #1
 8009c40:	6123      	str	r3, [r4, #16]
 8009c42:	f8ca 3000 	str.w	r3, [sl]
 8009c46:	9b0e      	ldr	r3, [sp, #56]	@ 0x38
 8009c48:	2562      	movs	r5, #98	@ 0x62
 8009c4a:	601c      	str	r4, [r3, #0]
 8009c4c:	e73a      	b.n	8009ac4 <__gethex+0xf8>
 8009c4e:	1e71      	subs	r1, r6, #1
 8009c50:	4620      	mov	r0, r4
 8009c52:	f000 fed6 	bl	800aa02 <__any_on>
 8009c56:	2800      	cmp	r0, #0
 8009c58:	d1ed      	bne.n	8009c36 <__gethex+0x26a>
 8009c5a:	9801      	ldr	r0, [sp, #4]
 8009c5c:	4621      	mov	r1, r4
 8009c5e:	f000 fa87 	bl	800a170 <_Bfree>
 8009c62:	9a0e      	ldr	r2, [sp, #56]	@ 0x38
 8009c64:	2300      	movs	r3, #0
 8009c66:	6013      	str	r3, [r2, #0]
 8009c68:	2550      	movs	r5, #80	@ 0x50
 8009c6a:	e72b      	b.n	8009ac4 <__gethex+0xf8>
 8009c6c:	9b0f      	ldr	r3, [sp, #60]	@ 0x3c
 8009c6e:	2b00      	cmp	r3, #0
 8009c70:	d1f3      	bne.n	8009c5a <__gethex+0x28e>
 8009c72:	e7e0      	b.n	8009c36 <__gethex+0x26a>
 8009c74:	9b0f      	ldr	r3, [sp, #60]	@ 0x3c
 8009c76:	2b00      	cmp	r3, #0
 8009c78:	d1dd      	bne.n	8009c36 <__gethex+0x26a>
 8009c7a:	e7ee      	b.n	8009c5a <__gethex+0x28e>
 8009c7c:	0800bc86 	.word	0x0800bc86
 8009c80:	0800bc9a 	.word	0x0800bc9a
 8009c84:	0800bcab 	.word	0x0800bcab
 8009c88:	1e6f      	subs	r7, r5, #1
 8009c8a:	f1b9 0f00 	cmp.w	r9, #0
 8009c8e:	d130      	bne.n	8009cf2 <__gethex+0x326>
 8009c90:	b127      	cbz	r7, 8009c9c <__gethex+0x2d0>
 8009c92:	4639      	mov	r1, r7
 8009c94:	4620      	mov	r0, r4
 8009c96:	f000 feb4 	bl	800aa02 <__any_on>
 8009c9a:	4681      	mov	r9, r0
 8009c9c:	117a      	asrs	r2, r7, #5
 8009c9e:	2301      	movs	r3, #1
 8009ca0:	f85a 2022 	ldr.w	r2, [sl, r2, lsl #2]
 8009ca4:	f007 071f 	and.w	r7, r7, #31
 8009ca8:	40bb      	lsls	r3, r7
 8009caa:	4213      	tst	r3, r2
 8009cac:	4629      	mov	r1, r5
 8009cae:	4620      	mov	r0, r4
 8009cb0:	bf18      	it	ne
 8009cb2:	f049 0902 	orrne.w	r9, r9, #2
 8009cb6:	f7ff fe21 	bl	80098fc <rshift>
 8009cba:	f8d8 7004 	ldr.w	r7, [r8, #4]
 8009cbe:	1b76      	subs	r6, r6, r5
 8009cc0:	2502      	movs	r5, #2
 8009cc2:	f1b9 0f00 	cmp.w	r9, #0
 8009cc6:	d047      	beq.n	8009d58 <__gethex+0x38c>
 8009cc8:	f8d8 300c 	ldr.w	r3, [r8, #12]
 8009ccc:	2b02      	cmp	r3, #2
 8009cce:	d015      	beq.n	8009cfc <__gethex+0x330>
 8009cd0:	2b03      	cmp	r3, #3
 8009cd2:	d017      	beq.n	8009d04 <__gethex+0x338>
 8009cd4:	2b01      	cmp	r3, #1
 8009cd6:	d109      	bne.n	8009cec <__gethex+0x320>
 8009cd8:	f019 0f02 	tst.w	r9, #2
 8009cdc:	d006      	beq.n	8009cec <__gethex+0x320>
 8009cde:	f8da 3000 	ldr.w	r3, [sl]
 8009ce2:	ea49 0903 	orr.w	r9, r9, r3
 8009ce6:	f019 0f01 	tst.w	r9, #1
 8009cea:	d10e      	bne.n	8009d0a <__gethex+0x33e>
 8009cec:	f045 0510 	orr.w	r5, r5, #16
 8009cf0:	e032      	b.n	8009d58 <__gethex+0x38c>
 8009cf2:	f04f 0901 	mov.w	r9, #1
 8009cf6:	e7d1      	b.n	8009c9c <__gethex+0x2d0>
 8009cf8:	2501      	movs	r5, #1
 8009cfa:	e7e2      	b.n	8009cc2 <__gethex+0x2f6>
 8009cfc:	9b0f      	ldr	r3, [sp, #60]	@ 0x3c
 8009cfe:	f1c3 0301 	rsb	r3, r3, #1
 8009d02:	930f      	str	r3, [sp, #60]	@ 0x3c
 8009d04:	9b0f      	ldr	r3, [sp, #60]	@ 0x3c
 8009d06:	2b00      	cmp	r3, #0
 8009d08:	d0f0      	beq.n	8009cec <__gethex+0x320>
 8009d0a:	f8d4 b010 	ldr.w	fp, [r4, #16]
 8009d0e:	f104 0314 	add.w	r3, r4, #20
 8009d12:	ea4f 0a8b 	mov.w	sl, fp, lsl #2
 8009d16:	eb03 018b 	add.w	r1, r3, fp, lsl #2
 8009d1a:	f04f 0c00 	mov.w	ip, #0
 8009d1e:	4618      	mov	r0, r3
 8009d20:	f853 2b04 	ldr.w	r2, [r3], #4
 8009d24:	f1b2 3fff 	cmp.w	r2, #4294967295
 8009d28:	d01b      	beq.n	8009d62 <__gethex+0x396>
 8009d2a:	3201      	adds	r2, #1
 8009d2c:	6002      	str	r2, [r0, #0]
 8009d2e:	2d02      	cmp	r5, #2
 8009d30:	f104 0314 	add.w	r3, r4, #20
 8009d34:	d13c      	bne.n	8009db0 <__gethex+0x3e4>
 8009d36:	f8d8 2000 	ldr.w	r2, [r8]
 8009d3a:	3a01      	subs	r2, #1
 8009d3c:	42b2      	cmp	r2, r6
 8009d3e:	d109      	bne.n	8009d54 <__gethex+0x388>
 8009d40:	1171      	asrs	r1, r6, #5
 8009d42:	2201      	movs	r2, #1
 8009d44:	f853 3021 	ldr.w	r3, [r3, r1, lsl #2]
 8009d48:	f006 061f 	and.w	r6, r6, #31
 8009d4c:	fa02 f606 	lsl.w	r6, r2, r6
 8009d50:	421e      	tst	r6, r3
 8009d52:	d13a      	bne.n	8009dca <__gethex+0x3fe>
 8009d54:	f045 0520 	orr.w	r5, r5, #32
 8009d58:	9b0e      	ldr	r3, [sp, #56]	@ 0x38
 8009d5a:	601c      	str	r4, [r3, #0]
 8009d5c:	9b02      	ldr	r3, [sp, #8]
 8009d5e:	601f      	str	r7, [r3, #0]
 8009d60:	e6b0      	b.n	8009ac4 <__gethex+0xf8>
 8009d62:	4299      	cmp	r1, r3
 8009d64:	f843 cc04 	str.w	ip, [r3, #-4]
 8009d68:	d8d9      	bhi.n	8009d1e <__gethex+0x352>
 8009d6a:	68a3      	ldr	r3, [r4, #8]
 8009d6c:	459b      	cmp	fp, r3
 8009d6e:	db17      	blt.n	8009da0 <__gethex+0x3d4>
 8009d70:	6861      	ldr	r1, [r4, #4]
 8009d72:	9801      	ldr	r0, [sp, #4]
 8009d74:	3101      	adds	r1, #1
 8009d76:	f000 f9bb 	bl	800a0f0 <_Balloc>
 8009d7a:	4681      	mov	r9, r0
 8009d7c:	b918      	cbnz	r0, 8009d86 <__gethex+0x3ba>
 8009d7e:	4b1a      	ldr	r3, [pc, #104]	@ (8009de8 <__gethex+0x41c>)
 8009d80:	4602      	mov	r2, r0
 8009d82:	2184      	movs	r1, #132	@ 0x84
 8009d84:	e6c5      	b.n	8009b12 <__gethex+0x146>
 8009d86:	6922      	ldr	r2, [r4, #16]
 8009d88:	3202      	adds	r2, #2
 8009d8a:	f104 010c 	add.w	r1, r4, #12
 8009d8e:	0092      	lsls	r2, r2, #2
 8009d90:	300c      	adds	r0, #12
 8009d92:	f7ff fd50 	bl	8009836 <memcpy>
 8009d96:	4621      	mov	r1, r4
 8009d98:	9801      	ldr	r0, [sp, #4]
 8009d9a:	f000 f9e9 	bl	800a170 <_Bfree>
 8009d9e:	464c      	mov	r4, r9
 8009da0:	6923      	ldr	r3, [r4, #16]
 8009da2:	1c5a      	adds	r2, r3, #1
 8009da4:	eb04 0383 	add.w	r3, r4, r3, lsl #2
 8009da8:	6122      	str	r2, [r4, #16]
 8009daa:	2201      	movs	r2, #1
 8009dac:	615a      	str	r2, [r3, #20]
 8009dae:	e7be      	b.n	8009d2e <__gethex+0x362>
 8009db0:	6922      	ldr	r2, [r4, #16]
 8009db2:	455a      	cmp	r2, fp
 8009db4:	dd0b      	ble.n	8009dce <__gethex+0x402>
 8009db6:	2101      	movs	r1, #1
 8009db8:	4620      	mov	r0, r4
 8009dba:	f7ff fd9f 	bl	80098fc <rshift>
 8009dbe:	f8d8 3008 	ldr.w	r3, [r8, #8]
 8009dc2:	3701      	adds	r7, #1
 8009dc4:	42bb      	cmp	r3, r7
 8009dc6:	f6ff aee0 	blt.w	8009b8a <__gethex+0x1be>
 8009dca:	2501      	movs	r5, #1
 8009dcc:	e7c2      	b.n	8009d54 <__gethex+0x388>
 8009dce:	f016 061f 	ands.w	r6, r6, #31
 8009dd2:	d0fa      	beq.n	8009dca <__gethex+0x3fe>
 8009dd4:	4453      	add	r3, sl
 8009dd6:	f1c6 0620 	rsb	r6, r6, #32
 8009dda:	f853 0c04 	ldr.w	r0, [r3, #-4]
 8009dde:	f000 fa79 	bl	800a2d4 <__hi0bits>
 8009de2:	42b0      	cmp	r0, r6
 8009de4:	dbe7      	blt.n	8009db6 <__gethex+0x3ea>
 8009de6:	e7f0      	b.n	8009dca <__gethex+0x3fe>
 8009de8:	0800bc9a 	.word	0x0800bc9a

08009dec <L_shift>:
 8009dec:	f1c2 0208 	rsb	r2, r2, #8
 8009df0:	0092      	lsls	r2, r2, #2
 8009df2:	b570      	push	{r4, r5, r6, lr}
 8009df4:	f1c2 0620 	rsb	r6, r2, #32
 8009df8:	6843      	ldr	r3, [r0, #4]
 8009dfa:	6804      	ldr	r4, [r0, #0]
 8009dfc:	fa03 f506 	lsl.w	r5, r3, r6
 8009e00:	432c      	orrs	r4, r5
 8009e02:	40d3      	lsrs	r3, r2
 8009e04:	6004      	str	r4, [r0, #0]
 8009e06:	f840 3f04 	str.w	r3, [r0, #4]!
 8009e0a:	4288      	cmp	r0, r1
 8009e0c:	d3f4      	bcc.n	8009df8 <L_shift+0xc>
 8009e0e:	bd70      	pop	{r4, r5, r6, pc}

08009e10 <__match>:
 8009e10:	b530      	push	{r4, r5, lr}
 8009e12:	6803      	ldr	r3, [r0, #0]
 8009e14:	3301      	adds	r3, #1
 8009e16:	f811 4b01 	ldrb.w	r4, [r1], #1
 8009e1a:	b914      	cbnz	r4, 8009e22 <__match+0x12>
 8009e1c:	6003      	str	r3, [r0, #0]
 8009e1e:	2001      	movs	r0, #1
 8009e20:	bd30      	pop	{r4, r5, pc}
 8009e22:	f813 2b01 	ldrb.w	r2, [r3], #1
 8009e26:	f1a2 0541 	sub.w	r5, r2, #65	@ 0x41
 8009e2a:	2d19      	cmp	r5, #25
 8009e2c:	bf98      	it	ls
 8009e2e:	3220      	addls	r2, #32
 8009e30:	42a2      	cmp	r2, r4
 8009e32:	d0f0      	beq.n	8009e16 <__match+0x6>
 8009e34:	2000      	movs	r0, #0
 8009e36:	e7f3      	b.n	8009e20 <__match+0x10>

08009e38 <__hexnan>:
 8009e38:	e92d 4ff0 	stmdb	sp!, {r4, r5, r6, r7, r8, r9, sl, fp, lr}
 8009e3c:	680b      	ldr	r3, [r1, #0]
 8009e3e:	6801      	ldr	r1, [r0, #0]
 8009e40:	115e      	asrs	r6, r3, #5
 8009e42:	eb02 0686 	add.w	r6, r2, r6, lsl #2
 8009e46:	f013 031f 	ands.w	r3, r3, #31
 8009e4a:	b087      	sub	sp, #28
 8009e4c:	bf18      	it	ne
 8009e4e:	3604      	addne	r6, #4
 8009e50:	2500      	movs	r5, #0
 8009e52:	1f37      	subs	r7, r6, #4
 8009e54:	4682      	mov	sl, r0
 8009e56:	4690      	mov	r8, r2
 8009e58:	9301      	str	r3, [sp, #4]
 8009e5a:	f846 5c04 	str.w	r5, [r6, #-4]
 8009e5e:	46b9      	mov	r9, r7
 8009e60:	463c      	mov	r4, r7
 8009e62:	9502      	str	r5, [sp, #8]
 8009e64:	46ab      	mov	fp, r5
 8009e66:	784a      	ldrb	r2, [r1, #1]
 8009e68:	1c4b      	adds	r3, r1, #1
 8009e6a:	9303      	str	r3, [sp, #12]
 8009e6c:	b342      	cbz	r2, 8009ec0 <__hexnan+0x88>
 8009e6e:	4610      	mov	r0, r2
 8009e70:	9105      	str	r1, [sp, #20]
 8009e72:	9204      	str	r2, [sp, #16]
 8009e74:	f7ff fd94 	bl	80099a0 <__hexdig_fun>
 8009e78:	2800      	cmp	r0, #0
 8009e7a:	d151      	bne.n	8009f20 <__hexnan+0xe8>
 8009e7c:	9a04      	ldr	r2, [sp, #16]
 8009e7e:	9905      	ldr	r1, [sp, #20]
 8009e80:	2a20      	cmp	r2, #32
 8009e82:	d818      	bhi.n	8009eb6 <__hexnan+0x7e>
 8009e84:	9b02      	ldr	r3, [sp, #8]
 8009e86:	459b      	cmp	fp, r3
 8009e88:	dd13      	ble.n	8009eb2 <__hexnan+0x7a>
 8009e8a:	454c      	cmp	r4, r9
 8009e8c:	d206      	bcs.n	8009e9c <__hexnan+0x64>
 8009e8e:	2d07      	cmp	r5, #7
 8009e90:	dc04      	bgt.n	8009e9c <__hexnan+0x64>
 8009e92:	462a      	mov	r2, r5
 8009e94:	4649      	mov	r1, r9
 8009e96:	4620      	mov	r0, r4
 8009e98:	f7ff ffa8 	bl	8009dec <L_shift>
 8009e9c:	4544      	cmp	r4, r8
 8009e9e:	d952      	bls.n	8009f46 <__hexnan+0x10e>
 8009ea0:	2300      	movs	r3, #0
 8009ea2:	f1a4 0904 	sub.w	r9, r4, #4
 8009ea6:	f844 3c04 	str.w	r3, [r4, #-4]
 8009eaa:	f8cd b008 	str.w	fp, [sp, #8]
 8009eae:	464c      	mov	r4, r9
 8009eb0:	461d      	mov	r5, r3
 8009eb2:	9903      	ldr	r1, [sp, #12]
 8009eb4:	e7d7      	b.n	8009e66 <__hexnan+0x2e>
 8009eb6:	2a29      	cmp	r2, #41	@ 0x29
 8009eb8:	d157      	bne.n	8009f6a <__hexnan+0x132>
 8009eba:	3102      	adds	r1, #2
 8009ebc:	f8ca 1000 	str.w	r1, [sl]
 8009ec0:	f1bb 0f00 	cmp.w	fp, #0
 8009ec4:	d051      	beq.n	8009f6a <__hexnan+0x132>
 8009ec6:	454c      	cmp	r4, r9
 8009ec8:	d206      	bcs.n	8009ed8 <__hexnan+0xa0>
 8009eca:	2d07      	cmp	r5, #7
 8009ecc:	dc04      	bgt.n	8009ed8 <__hexnan+0xa0>
 8009ece:	462a      	mov	r2, r5
 8009ed0:	4649      	mov	r1, r9
 8009ed2:	4620      	mov	r0, r4
 8009ed4:	f7ff ff8a 	bl	8009dec <L_shift>
 8009ed8:	4544      	cmp	r4, r8
 8009eda:	d936      	bls.n	8009f4a <__hexnan+0x112>
 8009edc:	f1a8 0204 	sub.w	r2, r8, #4
 8009ee0:	4623      	mov	r3, r4
 8009ee2:	f853 1b04 	ldr.w	r1, [r3], #4
 8009ee6:	f842 1f04 	str.w	r1, [r2, #4]!
 8009eea:	429f      	cmp	r7, r3
 8009eec:	d2f9      	bcs.n	8009ee2 <__hexnan+0xaa>
 8009eee:	1b3b      	subs	r3, r7, r4
 8009ef0:	f023 0303 	bic.w	r3, r3, #3
 8009ef4:	3304      	adds	r3, #4
 8009ef6:	3401      	adds	r4, #1
 8009ef8:	3e03      	subs	r6, #3
 8009efa:	42b4      	cmp	r4, r6
 8009efc:	bf88      	it	hi
 8009efe:	2304      	movhi	r3, #4
 8009f00:	4443      	add	r3, r8
 8009f02:	2200      	movs	r2, #0
 8009f04:	f843 2b04 	str.w	r2, [r3], #4
 8009f08:	429f      	cmp	r7, r3
 8009f0a:	d2fb      	bcs.n	8009f04 <__hexnan+0xcc>
 8009f0c:	683b      	ldr	r3, [r7, #0]
 8009f0e:	b91b      	cbnz	r3, 8009f18 <__hexnan+0xe0>
 8009f10:	4547      	cmp	r7, r8
 8009f12:	d128      	bne.n	8009f66 <__hexnan+0x12e>
 8009f14:	2301      	movs	r3, #1
 8009f16:	603b      	str	r3, [r7, #0]
 8009f18:	2005      	movs	r0, #5
 8009f1a:	b007      	add	sp, #28
 8009f1c:	e8bd 8ff0 	ldmia.w	sp!, {r4, r5, r6, r7, r8, r9, sl, fp, pc}
 8009f20:	3501      	adds	r5, #1
 8009f22:	2d08      	cmp	r5, #8
 8009f24:	f10b 0b01 	add.w	fp, fp, #1
 8009f28:	dd06      	ble.n	8009f38 <__hexnan+0x100>
 8009f2a:	4544      	cmp	r4, r8
 8009f2c:	d9c1      	bls.n	8009eb2 <__hexnan+0x7a>
 8009f2e:	2300      	movs	r3, #0
 8009f30:	f844 3c04 	str.w	r3, [r4, #-4]
 8009f34:	2501      	movs	r5, #1
 8009f36:	3c04      	subs	r4, #4
 8009f38:	6822      	ldr	r2, [r4, #0]
 8009f3a:	f000 000f 	and.w	r0, r0, #15
 8009f3e:	ea40 1002 	orr.w	r0, r0, r2, lsl #4
 8009f42:	6020      	str	r0, [r4, #0]
 8009f44:	e7b5      	b.n	8009eb2 <__hexnan+0x7a>
 8009f46:	2508      	movs	r5, #8
 8009f48:	e7b3      	b.n	8009eb2 <__hexnan+0x7a>
 8009f4a:	9b01      	ldr	r3, [sp, #4]
 8009f4c:	2b00      	cmp	r3, #0
 8009f4e:	d0dd      	beq.n	8009f0c <__hexnan+0xd4>
 8009f50:	f1c3 0320 	rsb	r3, r3, #32
 8009f54:	f04f 32ff 	mov.w	r2, #4294967295
 8009f58:	40da      	lsrs	r2, r3
 8009f5a:	f856 3c04 	ldr.w	r3, [r6, #-4]
 8009f5e:	4013      	ands	r3, r2
 8009f60:	f846 3c04 	str.w	r3, [r6, #-4]
 8009f64:	e7d2      	b.n	8009f0c <__hexnan+0xd4>
 8009f66:	3f04      	subs	r7, #4
 8009f68:	e7d0      	b.n	8009f0c <__hexnan+0xd4>
 8009f6a:	2004      	movs	r0, #4
 8009f6c:	e7d5      	b.n	8009f1a <__hexnan+0xe2>
	...

08009f70 <sbrk_aligned>:
 8009f70:	b570      	push	{r4, r5, r6, lr}
 8009f72:	4e0f      	ldr	r6, [pc, #60]	@ (8009fb0 <sbrk_aligned+0x40>)
 8009f74:	460c      	mov	r4, r1
 8009f76:	6831      	ldr	r1, [r6, #0]
 8009f78:	4605      	mov	r5, r0
 8009f7a:	b911      	cbnz	r1, 8009f82 <sbrk_aligned+0x12>
 8009f7c:	f001 f8fe 	bl	800b17c <_sbrk_r>
 8009f80:	6030      	str	r0, [r6, #0]
 8009f82:	4621      	mov	r1, r4
 8009f84:	4628      	mov	r0, r5
 8009f86:	f001 f8f9 	bl	800b17c <_sbrk_r>
 8009f8a:	1c43      	adds	r3, r0, #1
 8009f8c:	d103      	bne.n	8009f96 <sbrk_aligned+0x26>
 8009f8e:	f04f 34ff 	mov.w	r4, #4294967295
 8009f92:	4620      	mov	r0, r4
 8009f94:	bd70      	pop	{r4, r5, r6, pc}
 8009f96:	1cc4      	adds	r4, r0, #3
 8009f98:	f024 0403 	bic.w	r4, r4, #3
 8009f9c:	42a0      	cmp	r0, r4
 8009f9e:	d0f8      	beq.n	8009f92 <sbrk_aligned+0x22>
 8009fa0:	1a21      	subs	r1, r4, r0
 8009fa2:	4628      	mov	r0, r5
 8009fa4:	f001 f8ea 	bl	800b17c <_sbrk_r>
 8009fa8:	3001      	adds	r0, #1
 8009faa:	d1f2      	bne.n	8009f92 <sbrk_aligned+0x22>
 8009fac:	e7ef      	b.n	8009f8e <sbrk_aligned+0x1e>
 8009fae:	bf00      	nop
 8009fb0:	200008b8 	.word	0x200008b8

08009fb4 <_malloc_r>:
 8009fb4:	e92d 43f8 	stmdb	sp!, {r3, r4, r5, r6, r7, r8, r9, lr}
 8009fb8:	1ccd      	adds	r5, r1, #3
 8009fba:	f025 0503 	bic.w	r5, r5, #3
 8009fbe:	3508      	adds	r5, #8
 8009fc0:	2d0c      	cmp	r5, #12
 8009fc2:	bf38      	it	cc
 8009fc4:	250c      	movcc	r5, #12
 8009fc6:	2d00      	cmp	r5, #0
 8009fc8:	4606      	mov	r6, r0
 8009fca:	db01      	blt.n	8009fd0 <_malloc_r+0x1c>
 8009fcc:	42a9      	cmp	r1, r5
 8009fce:	d904      	bls.n	8009fda <_malloc_r+0x26>
 8009fd0:	230c      	movs	r3, #12
 8009fd2:	6033      	str	r3, [r6, #0]
 8009fd4:	2000      	movs	r0, #0
 8009fd6:	e8bd 83f8 	ldmia.w	sp!, {r3, r4, r5, r6, r7, r8, r9, pc}
 8009fda:	f8df 80d4 	ldr.w	r8, [pc, #212]	@ 800a0b0 <_malloc_r+0xfc>
 8009fde:	f000 f87b 	bl	800a0d8 <__malloc_lock>
 8009fe2:	f8d8 3000 	ldr.w	r3, [r8]
 8009fe6:	461c      	mov	r4, r3
 8009fe8:	bb44      	cbnz	r4, 800a03c <_malloc_r+0x88>
 8009fea:	4629      	mov	r1, r5
 8009fec:	4630      	mov	r0, r6
 8009fee:	f7ff ffbf 	bl	8009f70 <sbrk_aligned>
 8009ff2:	1c43      	adds	r3, r0, #1
 8009ff4:	4604      	mov	r4, r0
 8009ff6:	d158      	bne.n	800a0aa <_malloc_r+0xf6>
 8009ff8:	f8d8 4000 	ldr.w	r4, [r8]
 8009ffc:	4627      	mov	r7, r4
 8009ffe:	2f00      	cmp	r7, #0
 800a000:	d143      	bne.n	800a08a <_malloc_r+0xd6>
 800a002:	2c00      	cmp	r4, #0
 800a004:	d04b      	beq.n	800a09e <_malloc_r+0xea>
 800a006:	6823      	ldr	r3, [r4, #0]
 800a008:	4639      	mov	r1, r7
 800a00a:	4630      	mov	r0, r6
 800a00c:	eb04 0903 	add.w	r9, r4, r3
 800a010:	f001 f8b4 	bl	800b17c <_sbrk_r>
 800a014:	4581      	cmp	r9, r0
 800a016:	d142      	bne.n	800a09e <_malloc_r+0xea>
 800a018:	6821      	ldr	r1, [r4, #0]
 800a01a:	1a6d      	subs	r5, r5, r1
 800a01c:	4629      	mov	r1, r5
 800a01e:	4630      	mov	r0, r6
 800a020:	f7ff ffa6 	bl	8009f70 <sbrk_aligned>
 800a024:	3001      	adds	r0, #1
 800a026:	d03a      	beq.n	800a09e <_malloc_r+0xea>
 800a028:	6823      	ldr	r3, [r4, #0]
 800a02a:	442b      	add	r3, r5
 800a02c:	6023      	str	r3, [r4, #0]
 800a02e:	f8d8 3000 	ldr.w	r3, [r8]
 800a032:	685a      	ldr	r2, [r3, #4]
 800a034:	bb62      	cbnz	r2, 800a090 <_malloc_r+0xdc>
 800a036:	f8c8 7000 	str.w	r7, [r8]
 800a03a:	e00f      	b.n	800a05c <_malloc_r+0xa8>
 800a03c:	6822      	ldr	r2, [r4, #0]
 800a03e:	1b52      	subs	r2, r2, r5
 800a040:	d420      	bmi.n	800a084 <_malloc_r+0xd0>
 800a042:	2a0b      	cmp	r2, #11
 800a044:	d917      	bls.n	800a076 <_malloc_r+0xc2>
 800a046:	1961      	adds	r1, r4, r5
 800a048:	42a3      	cmp	r3, r4
 800a04a:	6025      	str	r5, [r4, #0]
 800a04c:	bf18      	it	ne
 800a04e:	6059      	strne	r1, [r3, #4]
 800a050:	6863      	ldr	r3, [r4, #4]
 800a052:	bf08      	it	eq
 800a054:	f8c8 1000 	streq.w	r1, [r8]
 800a058:	5162      	str	r2, [r4, r5]
 800a05a:	604b      	str	r3, [r1, #4]
 800a05c:	4630      	mov	r0, r6
 800a05e:	f000 f841 	bl	800a0e4 <__malloc_unlock>
 800a062:	f104 000b 	add.w	r0, r4, #11
 800a066:	1d23      	adds	r3, r4, #4
 800a068:	f020 0007 	bic.w	r0, r0, #7
 800a06c:	1ac2      	subs	r2, r0, r3
 800a06e:	bf1c      	itt	ne
 800a070:	1a1b      	subne	r3, r3, r0
 800a072:	50a3      	strne	r3, [r4, r2]
 800a074:	e7af      	b.n	8009fd6 <_malloc_r+0x22>
 800a076:	6862      	ldr	r2, [r4, #4]
 800a078:	42a3      	cmp	r3, r4
 800a07a:	bf0c      	ite	eq
 800a07c:	f8c8 2000 	streq.w	r2, [r8]
 800a080:	605a      	strne	r2, [r3, #4]
 800a082:	e7eb      	b.n	800a05c <_malloc_r+0xa8>
 800a084:	4623      	mov	r3, r4
 800a086:	6864      	ldr	r4, [r4, #4]
 800a088:	e7ae      	b.n	8009fe8 <_malloc_r+0x34>
 800a08a:	463c      	mov	r4, r7
 800a08c:	687f      	ldr	r7, [r7, #4]
 800a08e:	e7b6      	b.n	8009ffe <_malloc_r+0x4a>
 800a090:	461a      	mov	r2, r3
 800a092:	685b      	ldr	r3, [r3, #4]
 800a094:	42a3      	cmp	r3, r4
 800a096:	d1fb      	bne.n	800a090 <_malloc_r+0xdc>
 800a098:	2300      	movs	r3, #0
 800a09a:	6053      	str	r3, [r2, #4]
 800a09c:	e7de      	b.n	800a05c <_malloc_r+0xa8>
 800a09e:	230c      	movs	r3, #12
 800a0a0:	6033      	str	r3, [r6, #0]
 800a0a2:	4630      	mov	r0, r6
 800a0a4:	f000 f81e 	bl	800a0e4 <__malloc_unlock>
 800a0a8:	e794      	b.n	8009fd4 <_malloc_r+0x20>
 800a0aa:	6005      	str	r5, [r0, #0]
 800a0ac:	e7d6      	b.n	800a05c <_malloc_r+0xa8>
 800a0ae:	bf00      	nop
 800a0b0:	200008bc 	.word	0x200008bc

0800a0b4 <__ascii_mbtowc>:
 800a0b4:	b082      	sub	sp, #8
 800a0b6:	b901      	cbnz	r1, 800a0ba <__ascii_mbtowc+0x6>
 800a0b8:	a901      	add	r1, sp, #4
 800a0ba:	b142      	cbz	r2, 800a0ce <__ascii_mbtowc+0x1a>
 800a0bc:	b14b      	cbz	r3, 800a0d2 <__ascii_mbtowc+0x1e>
 800a0be:	7813      	ldrb	r3, [r2, #0]
 800a0c0:	600b      	str	r3, [r1, #0]
 800a0c2:	7812      	ldrb	r2, [r2, #0]
 800a0c4:	1e10      	subs	r0, r2, #0
 800a0c6:	bf18      	it	ne
 800a0c8:	2001      	movne	r0, #1
 800a0ca:	b002      	add	sp, #8
 800a0cc:	4770      	bx	lr
 800a0ce:	4610      	mov	r0, r2
 800a0d0:	e7fb      	b.n	800a0ca <__ascii_mbtowc+0x16>
 800a0d2:	f06f 0001 	mvn.w	r0, #1
 800a0d6:	e7f8      	b.n	800a0ca <__ascii_mbtowc+0x16>

0800a0d8 <__malloc_lock>:
 800a0d8:	4801      	ldr	r0, [pc, #4]	@ (800a0e0 <__malloc_lock+0x8>)
 800a0da:	f7ff bbaa 	b.w	8009832 <__retarget_lock_acquire_recursive>
 800a0de:	bf00      	nop
 800a0e0:	200008b4 	.word	0x200008b4

0800a0e4 <__malloc_unlock>:
 800a0e4:	4801      	ldr	r0, [pc, #4]	@ (800a0ec <__malloc_unlock+0x8>)
 800a0e6:	f7ff bba5 	b.w	8009834 <__retarget_lock_release_recursive>
 800a0ea:	bf00      	nop
 800a0ec:	200008b4 	.word	0x200008b4

0800a0f0 <_Balloc>:
 800a0f0:	b570      	push	{r4, r5, r6, lr}
 800a0f2:	69c6      	ldr	r6, [r0, #28]
 800a0f4:	4604      	mov	r4, r0
 800a0f6:	460d      	mov	r5, r1
 800a0f8:	b976      	cbnz	r6, 800a118 <_Balloc+0x28>
 800a0fa:	2010      	movs	r0, #16
 800a0fc:	f001 f880 	bl	800b200 <malloc>
 800a100:	4602      	mov	r2, r0
 800a102:	61e0      	str	r0, [r4, #28]
 800a104:	b920      	cbnz	r0, 800a110 <_Balloc+0x20>
 800a106:	4b18      	ldr	r3, [pc, #96]	@ (800a168 <_Balloc+0x78>)
 800a108:	4818      	ldr	r0, [pc, #96]	@ (800a16c <_Balloc+0x7c>)
 800a10a:	216b      	movs	r1, #107	@ 0x6b
 800a10c:	f001 f846 	bl	800b19c <__assert_func>
 800a110:	e9c0 6601 	strd	r6, r6, [r0, #4]
 800a114:	6006      	str	r6, [r0, #0]
 800a116:	60c6      	str	r6, [r0, #12]
 800a118:	69e6      	ldr	r6, [r4, #28]
 800a11a:	68f3      	ldr	r3, [r6, #12]
 800a11c:	b183      	cbz	r3, 800a140 <_Balloc+0x50>
 800a11e:	69e3      	ldr	r3, [r4, #28]
 800a120:	68db      	ldr	r3, [r3, #12]
 800a122:	f853 0025 	ldr.w	r0, [r3, r5, lsl #2]
 800a126:	b9b8      	cbnz	r0, 800a158 <_Balloc+0x68>
 800a128:	2101      	movs	r1, #1
 800a12a:	fa01 f605 	lsl.w	r6, r1, r5
 800a12e:	1d72      	adds	r2, r6, #5
 800a130:	0092      	lsls	r2, r2, #2
 800a132:	4620      	mov	r0, r4
 800a134:	f001 f850 	bl	800b1d8 <_calloc_r>
 800a138:	b160      	cbz	r0, 800a154 <_Balloc+0x64>
 800a13a:	e9c0 5601 	strd	r5, r6, [r0, #4]
 800a13e:	e00e      	b.n	800a15e <_Balloc+0x6e>
 800a140:	2221      	movs	r2, #33	@ 0x21
 800a142:	2104      	movs	r1, #4
 800a144:	4620      	mov	r0, r4
 800a146:	f001 f847 	bl	800b1d8 <_calloc_r>
 800a14a:	69e3      	ldr	r3, [r4, #28]
 800a14c:	60f0      	str	r0, [r6, #12]
 800a14e:	68db      	ldr	r3, [r3, #12]
 800a150:	2b00      	cmp	r3, #0
 800a152:	d1e4      	bne.n	800a11e <_Balloc+0x2e>
 800a154:	2000      	movs	r0, #0
 800a156:	bd70      	pop	{r4, r5, r6, pc}
 800a158:	6802      	ldr	r2, [r0, #0]
 800a15a:	f843 2025 	str.w	r2, [r3, r5, lsl #2]
 800a15e:	2300      	movs	r3, #0
 800a160:	e9c0 3303 	strd	r3, r3, [r0, #12]
 800a164:	e7f7      	b.n	800a156 <_Balloc+0x66>
 800a166:	bf00      	nop
 800a168:	0800bd0b 	.word	0x0800bd0b
 800a16c:	0800bd22 	.word	0x0800bd22

0800a170 <_Bfree>:
 800a170:	b570      	push	{r4, r5, r6, lr}
 800a172:	69c6      	ldr	r6, [r0, #28]
 800a174:	4605      	mov	r5, r0
 800a176:	460c      	mov	r4, r1
 800a178:	b976      	cbnz	r6, 800a198 <_Bfree+0x28>
 800a17a:	2010      	movs	r0, #16
 800a17c:	f001 f840 	bl	800b200 <malloc>
 800a180:	4602      	mov	r2, r0
 800a182:	61e8      	str	r0, [r5, #28]
 800a184:	b920      	cbnz	r0, 800a190 <_Bfree+0x20>
 800a186:	4b09      	ldr	r3, [pc, #36]	@ (800a1ac <_Bfree+0x3c>)
 800a188:	4809      	ldr	r0, [pc, #36]	@ (800a1b0 <_Bfree+0x40>)
 800a18a:	218f      	movs	r1, #143	@ 0x8f
 800a18c:	f001 f806 	bl	800b19c <__assert_func>
 800a190:	e9c0 6601 	strd	r6, r6, [r0, #4]
 800a194:	6006      	str	r6, [r0, #0]
 800a196:	60c6      	str	r6, [r0, #12]
 800a198:	b13c      	cbz	r4, 800a1aa <_Bfree+0x3a>
 800a19a:	69eb      	ldr	r3, [r5, #28]
 800a19c:	6862      	ldr	r2, [r4, #4]
 800a19e:	68db      	ldr	r3, [r3, #12]
 800a1a0:	f853 1022 	ldr.w	r1, [r3, r2, lsl #2]
 800a1a4:	6021      	str	r1, [r4, #0]
 800a1a6:	f843 4022 	str.w	r4, [r3, r2, lsl #2]
 800a1aa:	bd70      	pop	{r4, r5, r6, pc}
 800a1ac:	0800bd0b 	.word	0x0800bd0b
 800a1b0:	0800bd22 	.word	0x0800bd22

0800a1b4 <__multadd>:
 800a1b4:	e92d 41f0 	stmdb	sp!, {r4, r5, r6, r7, r8, lr}
 800a1b8:	690d      	ldr	r5, [r1, #16]
 800a1ba:	4607      	mov	r7, r0
 800a1bc:	460c      	mov	r4, r1
 800a1be:	461e      	mov	r6, r3
 800a1c0:	f101 0c14 	add.w	ip, r1, #20
 800a1c4:	2000      	movs	r0, #0
 800a1c6:	f8dc 3000 	ldr.w	r3, [ip]
 800a1ca:	b299      	uxth	r1, r3
 800a1cc:	fb02 6101 	mla	r1, r2, r1, r6
 800a1d0:	0c1e      	lsrs	r6, r3, #16
 800a1d2:	0c0b      	lsrs	r3, r1, #16
 800a1d4:	fb02 3306 	mla	r3, r2, r6, r3
 800a1d8:	b289      	uxth	r1, r1
 800a1da:	3001      	adds	r0, #1
 800a1dc:	eb01 4103 	add.w	r1, r1, r3, lsl #16
 800a1e0:	4285      	cmp	r5, r0
 800a1e2:	f84c 1b04 	str.w	r1, [ip], #4
 800a1e6:	ea4f 4613 	mov.w	r6, r3, lsr #16
 800a1ea:	dcec      	bgt.n	800a1c6 <__multadd+0x12>
 800a1ec:	b30e      	cbz	r6, 800a232 <__multadd+0x7e>
 800a1ee:	68a3      	ldr	r3, [r4, #8]
 800a1f0:	42ab      	cmp	r3, r5
 800a1f2:	dc19      	bgt.n	800a228 <__multadd+0x74>
 800a1f4:	6861      	ldr	r1, [r4, #4]
 800a1f6:	4638      	mov	r0, r7
 800a1f8:	3101      	adds	r1, #1
 800a1fa:	f7ff ff79 	bl	800a0f0 <_Balloc>
 800a1fe:	4680      	mov	r8, r0
 800a200:	b928      	cbnz	r0, 800a20e <__multadd+0x5a>
 800a202:	4602      	mov	r2, r0
 800a204:	4b0c      	ldr	r3, [pc, #48]	@ (800a238 <__multadd+0x84>)
 800a206:	480d      	ldr	r0, [pc, #52]	@ (800a23c <__multadd+0x88>)
 800a208:	21ba      	movs	r1, #186	@ 0xba
 800a20a:	f000 ffc7 	bl	800b19c <__assert_func>
 800a20e:	6922      	ldr	r2, [r4, #16]
 800a210:	3202      	adds	r2, #2
 800a212:	f104 010c 	add.w	r1, r4, #12
 800a216:	0092      	lsls	r2, r2, #2
 800a218:	300c      	adds	r0, #12
 800a21a:	f7ff fb0c 	bl	8009836 <memcpy>
 800a21e:	4621      	mov	r1, r4
 800a220:	4638      	mov	r0, r7
 800a222:	f7ff ffa5 	bl	800a170 <_Bfree>
 800a226:	4644      	mov	r4, r8
 800a228:	eb04 0385 	add.w	r3, r4, r5, lsl #2
 800a22c:	3501      	adds	r5, #1
 800a22e:	615e      	str	r6, [r3, #20]
 800a230:	6125      	str	r5, [r4, #16]
 800a232:	4620      	mov	r0, r4
 800a234:	e8bd 81f0 	ldmia.w	sp!, {r4, r5, r6, r7, r8, pc}
 800a238:	0800bc9a 	.word	0x0800bc9a
 800a23c:	0800bd22 	.word	0x0800bd22

0800a240 <__s2b>:
 800a240:	e92d 43f8 	stmdb	sp!, {r3, r4, r5, r6, r7, r8, r9, lr}
 800a244:	460c      	mov	r4, r1
 800a246:	4615      	mov	r5, r2
 800a248:	461f      	mov	r7, r3
 800a24a:	2209      	movs	r2, #9
 800a24c:	3308      	adds	r3, #8
 800a24e:	4606      	mov	r6, r0
 800a250:	fb93 f3f2 	sdiv	r3, r3, r2
 800a254:	2100      	movs	r1, #0
 800a256:	2201      	movs	r2, #1
 800a258:	429a      	cmp	r2, r3
 800a25a:	db09      	blt.n	800a270 <__s2b+0x30>
 800a25c:	4630      	mov	r0, r6
 800a25e:	f7ff ff47 	bl	800a0f0 <_Balloc>
 800a262:	b940      	cbnz	r0, 800a276 <__s2b+0x36>
 800a264:	4602      	mov	r2, r0
 800a266:	4b19      	ldr	r3, [pc, #100]	@ (800a2cc <__s2b+0x8c>)
 800a268:	4819      	ldr	r0, [pc, #100]	@ (800a2d0 <__s2b+0x90>)
 800a26a:	21d3      	movs	r1, #211	@ 0xd3
 800a26c:	f000 ff96 	bl	800b19c <__assert_func>
 800a270:	0052      	lsls	r2, r2, #1
 800a272:	3101      	adds	r1, #1
 800a274:	e7f0      	b.n	800a258 <__s2b+0x18>
 800a276:	9b08      	ldr	r3, [sp, #32]
 800a278:	6143      	str	r3, [r0, #20]
 800a27a:	2d09      	cmp	r5, #9
 800a27c:	f04f 0301 	mov.w	r3, #1
 800a280:	6103      	str	r3, [r0, #16]
 800a282:	dd16      	ble.n	800a2b2 <__s2b+0x72>
 800a284:	f104 0909 	add.w	r9, r4, #9
 800a288:	46c8      	mov	r8, r9
 800a28a:	442c      	add	r4, r5
 800a28c:	f818 3b01 	ldrb.w	r3, [r8], #1
 800a290:	4601      	mov	r1, r0
 800a292:	3b30      	subs	r3, #48	@ 0x30
 800a294:	220a      	movs	r2, #10
 800a296:	4630      	mov	r0, r6
 800a298:	f7ff ff8c 	bl	800a1b4 <__multadd>
 800a29c:	45a0      	cmp	r8, r4
 800a29e:	d1f5      	bne.n	800a28c <__s2b+0x4c>
 800a2a0:	f1a5 0408 	sub.w	r4, r5, #8
 800a2a4:	444c      	add	r4, r9
 800a2a6:	1b2d      	subs	r5, r5, r4
 800a2a8:	1963      	adds	r3, r4, r5
 800a2aa:	42bb      	cmp	r3, r7
 800a2ac:	db04      	blt.n	800a2b8 <__s2b+0x78>
 800a2ae:	e8bd 83f8 	ldmia.w	sp!, {r3, r4, r5, r6, r7, r8, r9, pc}
 800a2b2:	340a      	adds	r4, #10
 800a2b4:	2509      	movs	r5, #9
 800a2b6:	e7f6      	b.n	800a2a6 <__s2b+0x66>
 800a2b8:	f814 3b01 	ldrb.w	r3, [r4], #1
 800a2bc:	4601      	mov	r1, r0
 800a2be:	3b30      	subs	r3, #48	@ 0x30
 800a2c0:	220a      	movs	r2, #10
 800a2c2:	4630      	mov	r0, r6
 800a2c4:	f7ff ff76 	bl	800a1b4 <__multadd>
 800a2c8:	e7ee      	b.n	800a2a8 <__s2b+0x68>
 800a2ca:	bf00      	nop
 800a2cc:	0800bc9a 	.word	0x0800bc9a
 800a2d0:	0800bd22 	.word	0x0800bd22

0800a2d4 <__hi0bits>:
 800a2d4:	f5b0 3f80 	cmp.w	r0, #65536	@ 0x10000
 800a2d8:	4603      	mov	r3, r0
 800a2da:	bf36      	itet	cc
 800a2dc:	0403      	lslcc	r3, r0, #16
 800a2de:	2000      	movcs	r0, #0
 800a2e0:	2010      	movcc	r0, #16
 800a2e2:	f1b3 7f80 	cmp.w	r3, #16777216	@ 0x1000000
 800a2e6:	bf3c      	itt	cc
 800a2e8:	021b      	lslcc	r3, r3, #8
 800a2ea:	3008      	addcc	r0, #8
 800a2ec:	f1b3 5f80 	cmp.w	r3, #268435456	@ 0x10000000
 800a2f0:	bf3c      	itt	cc
 800a2f2:	011b      	lslcc	r3, r3, #4
 800a2f4:	3004      	addcc	r0, #4
 800a2f6:	f1b3 4f80 	cmp.w	r3, #1073741824	@ 0x40000000
 800a2fa:	bf3c      	itt	cc
 800a2fc:	009b      	lslcc	r3, r3, #2
 800a2fe:	3002      	addcc	r0, #2
 800a300:	2b00      	cmp	r3, #0
 800a302:	db05      	blt.n	800a310 <__hi0bits+0x3c>
 800a304:	f013 4f80 	tst.w	r3, #1073741824	@ 0x40000000
 800a308:	f100 0001 	add.w	r0, r0, #1
 800a30c:	bf08      	it	eq
 800a30e:	2020      	moveq	r0, #32
 800a310:	4770      	bx	lr

0800a312 <__lo0bits>:
 800a312:	6803      	ldr	r3, [r0, #0]
 800a314:	4602      	mov	r2, r0
 800a316:	f013 0007 	ands.w	r0, r3, #7
 800a31a:	d00b      	beq.n	800a334 <__lo0bits+0x22>
 800a31c:	07d9      	lsls	r1, r3, #31
 800a31e:	d421      	bmi.n	800a364 <__lo0bits+0x52>
 800a320:	0798      	lsls	r0, r3, #30
 800a322:	bf49      	itett	mi
 800a324:	085b      	lsrmi	r3, r3, #1
 800a326:	089b      	lsrpl	r3, r3, #2
 800a328:	2001      	movmi	r0, #1
 800a32a:	6013      	strmi	r3, [r2, #0]
 800a32c:	bf5c      	itt	pl
 800a32e:	6013      	strpl	r3, [r2, #0]
 800a330:	2002      	movpl	r0, #2
 800a332:	4770      	bx	lr
 800a334:	b299      	uxth	r1, r3
 800a336:	b909      	cbnz	r1, 800a33c <__lo0bits+0x2a>
 800a338:	0c1b      	lsrs	r3, r3, #16
 800a33a:	2010      	movs	r0, #16
 800a33c:	b2d9      	uxtb	r1, r3
 800a33e:	b909      	cbnz	r1, 800a344 <__lo0bits+0x32>
 800a340:	3008      	adds	r0, #8
 800a342:	0a1b      	lsrs	r3, r3, #8
 800a344:	0719      	lsls	r1, r3, #28
 800a346:	bf04      	itt	eq
 800a348:	091b      	lsreq	r3, r3, #4
 800a34a:	3004      	addeq	r0, #4
 800a34c:	0799      	lsls	r1, r3, #30
 800a34e:	bf04      	itt	eq
 800a350:	089b      	lsreq	r3, r3, #2
 800a352:	3002      	addeq	r0, #2
 800a354:	07d9      	lsls	r1, r3, #31
 800a356:	d403      	bmi.n	800a360 <__lo0bits+0x4e>
 800a358:	085b      	lsrs	r3, r3, #1
 800a35a:	f100 0001 	add.w	r0, r0, #1
 800a35e:	d003      	beq.n	800a368 <__lo0bits+0x56>
 800a360:	6013      	str	r3, [r2, #0]
 800a362:	4770      	bx	lr
 800a364:	2000      	movs	r0, #0
 800a366:	4770      	bx	lr
 800a368:	2020      	movs	r0, #32
 800a36a:	4770      	bx	lr

0800a36c <__i2b>:
 800a36c:	b510      	push	{r4, lr}
 800a36e:	460c      	mov	r4, r1
 800a370:	2101      	movs	r1, #1
 800a372:	f7ff febd 	bl	800a0f0 <_Balloc>
 800a376:	4602      	mov	r2, r0
 800a378:	b928      	cbnz	r0, 800a386 <__i2b+0x1a>
 800a37a:	4b05      	ldr	r3, [pc, #20]	@ (800a390 <__i2b+0x24>)
 800a37c:	4805      	ldr	r0, [pc, #20]	@ (800a394 <__i2b+0x28>)
 800a37e:	f240 1145 	movw	r1, #325	@ 0x145
 800a382:	f000 ff0b 	bl	800b19c <__assert_func>
 800a386:	2301      	movs	r3, #1
 800a388:	6144      	str	r4, [r0, #20]
 800a38a:	6103      	str	r3, [r0, #16]
 800a38c:	bd10      	pop	{r4, pc}
 800a38e:	bf00      	nop
 800a390:	0800bc9a 	.word	0x0800bc9a
 800a394:	0800bd22 	.word	0x0800bd22

0800a398 <__multiply>:
 800a398:	e92d 4ff0 	stmdb	sp!, {r4, r5, r6, r7, r8, r9, sl, fp, lr}
 800a39c:	4617      	mov	r7, r2
 800a39e:	690a      	ldr	r2, [r1, #16]
 800a3a0:	693b      	ldr	r3, [r7, #16]
 800a3a2:	429a      	cmp	r2, r3
 800a3a4:	bfa8      	it	ge
 800a3a6:	463b      	movge	r3, r7
 800a3a8:	4689      	mov	r9, r1
 800a3aa:	bfa4      	itt	ge
 800a3ac:	460f      	movge	r7, r1
 800a3ae:	4699      	movge	r9, r3
 800a3b0:	693d      	ldr	r5, [r7, #16]
 800a3b2:	f8d9 a010 	ldr.w	sl, [r9, #16]
 800a3b6:	68bb      	ldr	r3, [r7, #8]
 800a3b8:	6879      	ldr	r1, [r7, #4]
 800a3ba:	eb05 060a 	add.w	r6, r5, sl
 800a3be:	42b3      	cmp	r3, r6
 800a3c0:	b085      	sub	sp, #20
 800a3c2:	bfb8      	it	lt
 800a3c4:	3101      	addlt	r1, #1
 800a3c6:	f7ff fe93 	bl	800a0f0 <_Balloc>
 800a3ca:	b930      	cbnz	r0, 800a3da <__multiply+0x42>
 800a3cc:	4602      	mov	r2, r0
 800a3ce:	4b41      	ldr	r3, [pc, #260]	@ (800a4d4 <__multiply+0x13c>)
 800a3d0:	4841      	ldr	r0, [pc, #260]	@ (800a4d8 <__multiply+0x140>)
 800a3d2:	f44f 71b1 	mov.w	r1, #354	@ 0x162
 800a3d6:	f000 fee1 	bl	800b19c <__assert_func>
 800a3da:	f100 0414 	add.w	r4, r0, #20
 800a3de:	eb04 0e86 	add.w	lr, r4, r6, lsl #2
 800a3e2:	4623      	mov	r3, r4
 800a3e4:	2200      	movs	r2, #0
 800a3e6:	4573      	cmp	r3, lr
 800a3e8:	d320      	bcc.n	800a42c <__multiply+0x94>
 800a3ea:	f107 0814 	add.w	r8, r7, #20
 800a3ee:	f109 0114 	add.w	r1, r9, #20
 800a3f2:	eb08 0585 	add.w	r5, r8, r5, lsl #2
 800a3f6:	eb01 038a 	add.w	r3, r1, sl, lsl #2
 800a3fa:	9302      	str	r3, [sp, #8]
 800a3fc:	1beb      	subs	r3, r5, r7
 800a3fe:	3b15      	subs	r3, #21
 800a400:	f023 0303 	bic.w	r3, r3, #3
 800a404:	3304      	adds	r3, #4
 800a406:	3715      	adds	r7, #21
 800a408:	42bd      	cmp	r5, r7
 800a40a:	bf38      	it	cc
 800a40c:	2304      	movcc	r3, #4
 800a40e:	9301      	str	r3, [sp, #4]
 800a410:	9b02      	ldr	r3, [sp, #8]
 800a412:	9103      	str	r1, [sp, #12]
 800a414:	428b      	cmp	r3, r1
 800a416:	d80c      	bhi.n	800a432 <__multiply+0x9a>
 800a418:	2e00      	cmp	r6, #0
 800a41a:	dd03      	ble.n	800a424 <__multiply+0x8c>
 800a41c:	f85e 3d04 	ldr.w	r3, [lr, #-4]!
 800a420:	2b00      	cmp	r3, #0
 800a422:	d055      	beq.n	800a4d0 <__multiply+0x138>
 800a424:	6106      	str	r6, [r0, #16]
 800a426:	b005      	add	sp, #20
 800a428:	e8bd 8ff0 	ldmia.w	sp!, {r4, r5, r6, r7, r8, r9, sl, fp, pc}
 800a42c:	f843 2b04 	str.w	r2, [r3], #4
 800a430:	e7d9      	b.n	800a3e6 <__multiply+0x4e>
 800a432:	f8b1 a000 	ldrh.w	sl, [r1]
 800a436:	f1ba 0f00 	cmp.w	sl, #0
 800a43a:	d01f      	beq.n	800a47c <__multiply+0xe4>
 800a43c:	46c4      	mov	ip, r8
 800a43e:	46a1      	mov	r9, r4
 800a440:	2700      	movs	r7, #0
 800a442:	f85c 2b04 	ldr.w	r2, [ip], #4
 800a446:	f8d9 3000 	ldr.w	r3, [r9]
 800a44a:	fa1f fb82 	uxth.w	fp, r2
 800a44e:	b29b      	uxth	r3, r3
 800a450:	fb0a 330b 	mla	r3, sl, fp, r3
 800a454:	443b      	add	r3, r7
 800a456:	f8d9 7000 	ldr.w	r7, [r9]
 800a45a:	0c12      	lsrs	r2, r2, #16
 800a45c:	0c3f      	lsrs	r7, r7, #16
 800a45e:	fb0a 7202 	mla	r2, sl, r2, r7
 800a462:	eb02 4213 	add.w	r2, r2, r3, lsr #16
 800a466:	b29b      	uxth	r3, r3
 800a468:	ea43 4302 	orr.w	r3, r3, r2, lsl #16
 800a46c:	4565      	cmp	r5, ip
 800a46e:	f849 3b04 	str.w	r3, [r9], #4
 800a472:	ea4f 4712 	mov.w	r7, r2, lsr #16
 800a476:	d8e4      	bhi.n	800a442 <__multiply+0xaa>
 800a478:	9b01      	ldr	r3, [sp, #4]
 800a47a:	50e7      	str	r7, [r4, r3]
 800a47c:	9b03      	ldr	r3, [sp, #12]
 800a47e:	f8b3 9002 	ldrh.w	r9, [r3, #2]
 800a482:	3104      	adds	r1, #4
 800a484:	f1b9 0f00 	cmp.w	r9, #0
 800a488:	d020      	beq.n	800a4cc <__multiply+0x134>
 800a48a:	6823      	ldr	r3, [r4, #0]
 800a48c:	4647      	mov	r7, r8
 800a48e:	46a4      	mov	ip, r4
 800a490:	f04f 0a00 	mov.w	sl, #0
 800a494:	f8b7 b000 	ldrh.w	fp, [r7]
 800a498:	f8bc 2002 	ldrh.w	r2, [ip, #2]
 800a49c:	fb09 220b 	mla	r2, r9, fp, r2
 800a4a0:	4452      	add	r2, sl
 800a4a2:	b29b      	uxth	r3, r3
 800a4a4:	ea43 4302 	orr.w	r3, r3, r2, lsl #16
 800a4a8:	f84c 3b04 	str.w	r3, [ip], #4
 800a4ac:	f857 3b04 	ldr.w	r3, [r7], #4
 800a4b0:	ea4f 4a13 	mov.w	sl, r3, lsr #16
 800a4b4:	f8bc 3000 	ldrh.w	r3, [ip]
 800a4b8:	fb09 330a 	mla	r3, r9, sl, r3
 800a4bc:	eb03 4312 	add.w	r3, r3, r2, lsr #16
 800a4c0:	42bd      	cmp	r5, r7
 800a4c2:	ea4f 4a13 	mov.w	sl, r3, lsr #16
 800a4c6:	d8e5      	bhi.n	800a494 <__multiply+0xfc>
 800a4c8:	9a01      	ldr	r2, [sp, #4]
 800a4ca:	50a3      	str	r3, [r4, r2]
 800a4cc:	3404      	adds	r4, #4
 800a4ce:	e79f      	b.n	800a410 <__multiply+0x78>
 800a4d0:	3e01      	subs	r6, #1
 800a4d2:	e7a1      	b.n	800a418 <__multiply+0x80>
 800a4d4:	0800bc9a 	.word	0x0800bc9a
 800a4d8:	0800bd22 	.word	0x0800bd22

0800a4dc <__pow5mult>:
 800a4dc:	e92d 43f8 	stmdb	sp!, {r3, r4, r5, r6, r7, r8, r9, lr}
 800a4e0:	4615      	mov	r5, r2
 800a4e2:	f012 0203 	ands.w	r2, r2, #3
 800a4e6:	4607      	mov	r7, r0
 800a4e8:	460e      	mov	r6, r1
 800a4ea:	d007      	beq.n	800a4fc <__pow5mult+0x20>
 800a4ec:	4c25      	ldr	r4, [pc, #148]	@ (800a584 <__pow5mult+0xa8>)
 800a4ee:	3a01      	subs	r2, #1
 800a4f0:	2300      	movs	r3, #0
 800a4f2:	f854 2022 	ldr.w	r2, [r4, r2, lsl #2]
 800a4f6:	f7ff fe5d 	bl	800a1b4 <__multadd>
 800a4fa:	4606      	mov	r6, r0
 800a4fc:	10ad      	asrs	r5, r5, #2
 800a4fe:	d03d      	beq.n	800a57c <__pow5mult+0xa0>
 800a500:	69fc      	ldr	r4, [r7, #28]
 800a502:	b97c      	cbnz	r4, 800a524 <__pow5mult+0x48>
 800a504:	2010      	movs	r0, #16
 800a506:	f000 fe7b 	bl	800b200 <malloc>
 800a50a:	4602      	mov	r2, r0
 800a50c:	61f8      	str	r0, [r7, #28]
 800a50e:	b928      	cbnz	r0, 800a51c <__pow5mult+0x40>
 800a510:	4b1d      	ldr	r3, [pc, #116]	@ (800a588 <__pow5mult+0xac>)
 800a512:	481e      	ldr	r0, [pc, #120]	@ (800a58c <__pow5mult+0xb0>)
 800a514:	f240 11b3 	movw	r1, #435	@ 0x1b3
 800a518:	f000 fe40 	bl	800b19c <__assert_func>
 800a51c:	e9c0 4401 	strd	r4, r4, [r0, #4]
 800a520:	6004      	str	r4, [r0, #0]
 800a522:	60c4      	str	r4, [r0, #12]
 800a524:	f8d7 801c 	ldr.w	r8, [r7, #28]
 800a528:	f8d8 4008 	ldr.w	r4, [r8, #8]
 800a52c:	b94c      	cbnz	r4, 800a542 <__pow5mult+0x66>
 800a52e:	f240 2171 	movw	r1, #625	@ 0x271
 800a532:	4638      	mov	r0, r7
 800a534:	f7ff ff1a 	bl	800a36c <__i2b>
 800a538:	2300      	movs	r3, #0
 800a53a:	f8c8 0008 	str.w	r0, [r8, #8]
 800a53e:	4604      	mov	r4, r0
 800a540:	6003      	str	r3, [r0, #0]
 800a542:	f04f 0900 	mov.w	r9, #0
 800a546:	07eb      	lsls	r3, r5, #31
 800a548:	d50a      	bpl.n	800a560 <__pow5mult+0x84>
 800a54a:	4631      	mov	r1, r6
 800a54c:	4622      	mov	r2, r4
 800a54e:	4638      	mov	r0, r7
 800a550:	f7ff ff22 	bl	800a398 <__multiply>
 800a554:	4631      	mov	r1, r6
 800a556:	4680      	mov	r8, r0
 800a558:	4638      	mov	r0, r7
 800a55a:	f7ff fe09 	bl	800a170 <_Bfree>
 800a55e:	4646      	mov	r6, r8
 800a560:	106d      	asrs	r5, r5, #1
 800a562:	d00b      	beq.n	800a57c <__pow5mult+0xa0>
 800a564:	6820      	ldr	r0, [r4, #0]
 800a566:	b938      	cbnz	r0, 800a578 <__pow5mult+0x9c>
 800a568:	4622      	mov	r2, r4
 800a56a:	4621      	mov	r1, r4
 800a56c:	4638      	mov	r0, r7
 800a56e:	f7ff ff13 	bl	800a398 <__multiply>
 800a572:	6020      	str	r0, [r4, #0]
 800a574:	f8c0 9000 	str.w	r9, [r0]
 800a578:	4604      	mov	r4, r0
 800a57a:	e7e4      	b.n	800a546 <__pow5mult+0x6a>
 800a57c:	4630      	mov	r0, r6
 800a57e:	e8bd 83f8 	ldmia.w	sp!, {r3, r4, r5, r6, r7, r8, r9, pc}
 800a582:	bf00      	nop
 800a584:	0800c44c 	.word	0x0800c44c
 800a588:	0800bd0b 	.word	0x0800bd0b
 800a58c:	0800bd22 	.word	0x0800bd22

0800a590 <__lshift>:
 800a590:	e92d 47f0 	stmdb	sp!, {r4, r5, r6, r7, r8, r9, sl, lr}
 800a594:	460c      	mov	r4, r1
 800a596:	6849      	ldr	r1, [r1, #4]
 800a598:	6923      	ldr	r3, [r4, #16]
 800a59a:	eb03 1862 	add.w	r8, r3, r2, asr #5
 800a59e:	68a3      	ldr	r3, [r4, #8]
 800a5a0:	4607      	mov	r7, r0
 800a5a2:	4691      	mov	r9, r2
 800a5a4:	ea4f 1a62 	mov.w	sl, r2, asr #5
 800a5a8:	f108 0601 	add.w	r6, r8, #1
 800a5ac:	42b3      	cmp	r3, r6
 800a5ae:	db0b      	blt.n	800a5c8 <__lshift+0x38>
 800a5b0:	4638      	mov	r0, r7
 800a5b2:	f7ff fd9d 	bl	800a0f0 <_Balloc>
 800a5b6:	4605      	mov	r5, r0
 800a5b8:	b948      	cbnz	r0, 800a5ce <__lshift+0x3e>
 800a5ba:	4602      	mov	r2, r0
 800a5bc:	4b28      	ldr	r3, [pc, #160]	@ (800a660 <__lshift+0xd0>)
 800a5be:	4829      	ldr	r0, [pc, #164]	@ (800a664 <__lshift+0xd4>)
 800a5c0:	f44f 71ef 	mov.w	r1, #478	@ 0x1de
 800a5c4:	f000 fdea 	bl	800b19c <__assert_func>
 800a5c8:	3101      	adds	r1, #1
 800a5ca:	005b      	lsls	r3, r3, #1
 800a5cc:	e7ee      	b.n	800a5ac <__lshift+0x1c>
 800a5ce:	2300      	movs	r3, #0
 800a5d0:	f100 0114 	add.w	r1, r0, #20
 800a5d4:	f100 0210 	add.w	r2, r0, #16
 800a5d8:	4618      	mov	r0, r3
 800a5da:	4553      	cmp	r3, sl
 800a5dc:	db33      	blt.n	800a646 <__lshift+0xb6>
 800a5de:	6920      	ldr	r0, [r4, #16]
 800a5e0:	ea2a 7aea 	bic.w	sl, sl, sl, asr #31
 800a5e4:	f104 0314 	add.w	r3, r4, #20
 800a5e8:	f019 091f 	ands.w	r9, r9, #31
 800a5ec:	eb01 018a 	add.w	r1, r1, sl, lsl #2
 800a5f0:	eb03 0c80 	add.w	ip, r3, r0, lsl #2
 800a5f4:	d02b      	beq.n	800a64e <__lshift+0xbe>
 800a5f6:	f1c9 0e20 	rsb	lr, r9, #32
 800a5fa:	468a      	mov	sl, r1
 800a5fc:	2200      	movs	r2, #0
 800a5fe:	6818      	ldr	r0, [r3, #0]
 800a600:	fa00 f009 	lsl.w	r0, r0, r9
 800a604:	4310      	orrs	r0, r2
 800a606:	f84a 0b04 	str.w	r0, [sl], #4
 800a60a:	f853 2b04 	ldr.w	r2, [r3], #4
 800a60e:	459c      	cmp	ip, r3
 800a610:	fa22 f20e 	lsr.w	r2, r2, lr
 800a614:	d8f3      	bhi.n	800a5fe <__lshift+0x6e>
 800a616:	ebac 0304 	sub.w	r3, ip, r4
 800a61a:	3b15      	subs	r3, #21
 800a61c:	f023 0303 	bic.w	r3, r3, #3
 800a620:	3304      	adds	r3, #4
 800a622:	f104 0015 	add.w	r0, r4, #21
 800a626:	4560      	cmp	r0, ip
 800a628:	bf88      	it	hi
 800a62a:	2304      	movhi	r3, #4
 800a62c:	50ca      	str	r2, [r1, r3]
 800a62e:	b10a      	cbz	r2, 800a634 <__lshift+0xa4>
 800a630:	f108 0602 	add.w	r6, r8, #2
 800a634:	3e01      	subs	r6, #1
 800a636:	4638      	mov	r0, r7
 800a638:	612e      	str	r6, [r5, #16]
 800a63a:	4621      	mov	r1, r4
 800a63c:	f7ff fd98 	bl	800a170 <_Bfree>
 800a640:	4628      	mov	r0, r5
 800a642:	e8bd 87f0 	ldmia.w	sp!, {r4, r5, r6, r7, r8, r9, sl, pc}
 800a646:	f842 0f04 	str.w	r0, [r2, #4]!
 800a64a:	3301      	adds	r3, #1
 800a64c:	e7c5      	b.n	800a5da <__lshift+0x4a>
 800a64e:	3904      	subs	r1, #4
 800a650:	f853 2b04 	ldr.w	r2, [r3], #4
 800a654:	f841 2f04 	str.w	r2, [r1, #4]!
 800a658:	459c      	cmp	ip, r3
 800a65a:	d8f9      	bhi.n	800a650 <__lshift+0xc0>
 800a65c:	e7ea      	b.n	800a634 <__lshift+0xa4>
 800a65e:	bf00      	nop
 800a660:	0800bc9a 	.word	0x0800bc9a
 800a664:	0800bd22 	.word	0x0800bd22

0800a668 <__mcmp>:
 800a668:	690a      	ldr	r2, [r1, #16]
 800a66a:	4603      	mov	r3, r0
 800a66c:	6900      	ldr	r0, [r0, #16]
 800a66e:	1a80      	subs	r0, r0, r2
 800a670:	b530      	push	{r4, r5, lr}
 800a672:	d10e      	bne.n	800a692 <__mcmp+0x2a>
 800a674:	3314      	adds	r3, #20
 800a676:	3114      	adds	r1, #20
 800a678:	eb03 0482 	add.w	r4, r3, r2, lsl #2
 800a67c:	eb01 0182 	add.w	r1, r1, r2, lsl #2
 800a680:	f854 5d04 	ldr.w	r5, [r4, #-4]!
 800a684:	f851 2d04 	ldr.w	r2, [r1, #-4]!
 800a688:	4295      	cmp	r5, r2
 800a68a:	d003      	beq.n	800a694 <__mcmp+0x2c>
 800a68c:	d205      	bcs.n	800a69a <__mcmp+0x32>
 800a68e:	f04f 30ff 	mov.w	r0, #4294967295
 800a692:	bd30      	pop	{r4, r5, pc}
 800a694:	42a3      	cmp	r3, r4
 800a696:	d3f3      	bcc.n	800a680 <__mcmp+0x18>
 800a698:	e7fb      	b.n	800a692 <__mcmp+0x2a>
 800a69a:	2001      	movs	r0, #1
 800a69c:	e7f9      	b.n	800a692 <__mcmp+0x2a>
	...

0800a6a0 <__mdiff>:
 800a6a0:	e92d 4ff7 	stmdb	sp!, {r0, r1, r2, r4, r5, r6, r7, r8, r9, sl, fp, lr}
 800a6a4:	4689      	mov	r9, r1
 800a6a6:	4606      	mov	r6, r0
 800a6a8:	4611      	mov	r1, r2
 800a6aa:	4648      	mov	r0, r9
 800a6ac:	4614      	mov	r4, r2
 800a6ae:	f7ff ffdb 	bl	800a668 <__mcmp>
 800a6b2:	1e05      	subs	r5, r0, #0
 800a6b4:	d112      	bne.n	800a6dc <__mdiff+0x3c>
 800a6b6:	4629      	mov	r1, r5
 800a6b8:	4630      	mov	r0, r6
 800a6ba:	f7ff fd19 	bl	800a0f0 <_Balloc>
 800a6be:	4602      	mov	r2, r0
 800a6c0:	b928      	cbnz	r0, 800a6ce <__mdiff+0x2e>
 800a6c2:	4b3f      	ldr	r3, [pc, #252]	@ (800a7c0 <__mdiff+0x120>)
 800a6c4:	f240 2137 	movw	r1, #567	@ 0x237
 800a6c8:	483e      	ldr	r0, [pc, #248]	@ (800a7c4 <__mdiff+0x124>)
 800a6ca:	f000 fd67 	bl	800b19c <__assert_func>
 800a6ce:	2301      	movs	r3, #1
 800a6d0:	e9c0 3504 	strd	r3, r5, [r0, #16]
 800a6d4:	4610      	mov	r0, r2
 800a6d6:	b003      	add	sp, #12
 800a6d8:	e8bd 8ff0 	ldmia.w	sp!, {r4, r5, r6, r7, r8, r9, sl, fp, pc}
 800a6dc:	bfbc      	itt	lt
 800a6de:	464b      	movlt	r3, r9
 800a6e0:	46a1      	movlt	r9, r4
 800a6e2:	4630      	mov	r0, r6
 800a6e4:	f8d9 1004 	ldr.w	r1, [r9, #4]
 800a6e8:	bfba      	itte	lt
 800a6ea:	461c      	movlt	r4, r3
 800a6ec:	2501      	movlt	r5, #1
 800a6ee:	2500      	movge	r5, #0
 800a6f0:	f7ff fcfe 	bl	800a0f0 <_Balloc>
 800a6f4:	4602      	mov	r2, r0
 800a6f6:	b918      	cbnz	r0, 800a700 <__mdiff+0x60>
 800a6f8:	4b31      	ldr	r3, [pc, #196]	@ (800a7c0 <__mdiff+0x120>)
 800a6fa:	f240 2145 	movw	r1, #581	@ 0x245
 800a6fe:	e7e3      	b.n	800a6c8 <__mdiff+0x28>
 800a700:	f8d9 7010 	ldr.w	r7, [r9, #16]
 800a704:	6926      	ldr	r6, [r4, #16]
 800a706:	60c5      	str	r5, [r0, #12]
 800a708:	f109 0310 	add.w	r3, r9, #16
 800a70c:	f109 0514 	add.w	r5, r9, #20
 800a710:	f104 0e14 	add.w	lr, r4, #20
 800a714:	f100 0b14 	add.w	fp, r0, #20
 800a718:	eb05 0887 	add.w	r8, r5, r7, lsl #2
 800a71c:	eb0e 0686 	add.w	r6, lr, r6, lsl #2
 800a720:	9301      	str	r3, [sp, #4]
 800a722:	46d9      	mov	r9, fp
 800a724:	f04f 0c00 	mov.w	ip, #0
 800a728:	9b01      	ldr	r3, [sp, #4]
 800a72a:	f85e 0b04 	ldr.w	r0, [lr], #4
 800a72e:	f853 af04 	ldr.w	sl, [r3, #4]!
 800a732:	9301      	str	r3, [sp, #4]
 800a734:	fa1f f38a 	uxth.w	r3, sl
 800a738:	4619      	mov	r1, r3
 800a73a:	b283      	uxth	r3, r0
 800a73c:	1acb      	subs	r3, r1, r3
 800a73e:	0c00      	lsrs	r0, r0, #16
 800a740:	4463      	add	r3, ip
 800a742:	ebc0 401a 	rsb	r0, r0, sl, lsr #16
 800a746:	eb00 4023 	add.w	r0, r0, r3, asr #16
 800a74a:	b29b      	uxth	r3, r3
 800a74c:	ea43 4300 	orr.w	r3, r3, r0, lsl #16
 800a750:	4576      	cmp	r6, lr
 800a752:	f849 3b04 	str.w	r3, [r9], #4
 800a756:	ea4f 4c20 	mov.w	ip, r0, asr #16
 800a75a:	d8e5      	bhi.n	800a728 <__mdiff+0x88>
 800a75c:	1b33      	subs	r3, r6, r4
 800a75e:	3b15      	subs	r3, #21
 800a760:	f023 0303 	bic.w	r3, r3, #3
 800a764:	3415      	adds	r4, #21
 800a766:	3304      	adds	r3, #4
 800a768:	42a6      	cmp	r6, r4
 800a76a:	bf38      	it	cc
 800a76c:	2304      	movcc	r3, #4
 800a76e:	441d      	add	r5, r3
 800a770:	445b      	add	r3, fp
 800a772:	461e      	mov	r6, r3
 800a774:	462c      	mov	r4, r5
 800a776:	4544      	cmp	r4, r8
 800a778:	d30e      	bcc.n	800a798 <__mdiff+0xf8>
 800a77a:	f108 0103 	add.w	r1, r8, #3
 800a77e:	1b49      	subs	r1, r1, r5
 800a780:	f021 0103 	bic.w	r1, r1, #3
 800a784:	3d03      	subs	r5, #3
 800a786:	45a8      	cmp	r8, r5
 800a788:	bf38      	it	cc
 800a78a:	2100      	movcc	r1, #0
 800a78c:	440b      	add	r3, r1
 800a78e:	f853 1d04 	ldr.w	r1, [r3, #-4]!
 800a792:	b191      	cbz	r1, 800a7ba <__mdiff+0x11a>
 800a794:	6117      	str	r7, [r2, #16]
 800a796:	e79d      	b.n	800a6d4 <__mdiff+0x34>
 800a798:	f854 1b04 	ldr.w	r1, [r4], #4
 800a79c:	46e6      	mov	lr, ip
 800a79e:	0c08      	lsrs	r0, r1, #16
 800a7a0:	fa1c fc81 	uxtah	ip, ip, r1
 800a7a4:	4471      	add	r1, lr
 800a7a6:	eb00 402c 	add.w	r0, r0, ip, asr #16
 800a7aa:	b289      	uxth	r1, r1
 800a7ac:	ea41 4100 	orr.w	r1, r1, r0, lsl #16
 800a7b0:	f846 1b04 	str.w	r1, [r6], #4
 800a7b4:	ea4f 4c20 	mov.w	ip, r0, asr #16
 800a7b8:	e7dd      	b.n	800a776 <__mdiff+0xd6>
 800a7ba:	3f01      	subs	r7, #1
 800a7bc:	e7e7      	b.n	800a78e <__mdiff+0xee>
 800a7be:	bf00      	nop
 800a7c0:	0800bc9a 	.word	0x0800bc9a
 800a7c4:	0800bd22 	.word	0x0800bd22

0800a7c8 <__ulp>:
 800a7c8:	b082      	sub	sp, #8
 800a7ca:	ed8d 0b00 	vstr	d0, [sp]
 800a7ce:	9a01      	ldr	r2, [sp, #4]
 800a7d0:	4b0f      	ldr	r3, [pc, #60]	@ (800a810 <__ulp+0x48>)
 800a7d2:	4013      	ands	r3, r2
 800a7d4:	f1a3 7350 	sub.w	r3, r3, #54525952	@ 0x3400000
 800a7d8:	2b00      	cmp	r3, #0
 800a7da:	dc08      	bgt.n	800a7ee <__ulp+0x26>
 800a7dc:	425b      	negs	r3, r3
 800a7de:	f1b3 7fa0 	cmp.w	r3, #20971520	@ 0x1400000
 800a7e2:	ea4f 5223 	mov.w	r2, r3, asr #20
 800a7e6:	da04      	bge.n	800a7f2 <__ulp+0x2a>
 800a7e8:	f44f 2300 	mov.w	r3, #524288	@ 0x80000
 800a7ec:	4113      	asrs	r3, r2
 800a7ee:	2200      	movs	r2, #0
 800a7f0:	e008      	b.n	800a804 <__ulp+0x3c>
 800a7f2:	f1a2 0314 	sub.w	r3, r2, #20
 800a7f6:	2b1e      	cmp	r3, #30
 800a7f8:	bfda      	itte	le
 800a7fa:	f04f 4200 	movle.w	r2, #2147483648	@ 0x80000000
 800a7fe:	40da      	lsrle	r2, r3
 800a800:	2201      	movgt	r2, #1
 800a802:	2300      	movs	r3, #0
 800a804:	4619      	mov	r1, r3
 800a806:	4610      	mov	r0, r2
 800a808:	ec41 0b10 	vmov	d0, r0, r1
 800a80c:	b002      	add	sp, #8
 800a80e:	4770      	bx	lr
 800a810:	7ff00000 	.word	0x7ff00000

0800a814 <__b2d>:
 800a814:	e92d 41f0 	stmdb	sp!, {r4, r5, r6, r7, r8, lr}
 800a818:	6906      	ldr	r6, [r0, #16]
 800a81a:	f100 0814 	add.w	r8, r0, #20
 800a81e:	eb08 0686 	add.w	r6, r8, r6, lsl #2
 800a822:	1f37      	subs	r7, r6, #4
 800a824:	f856 2c04 	ldr.w	r2, [r6, #-4]
 800a828:	4610      	mov	r0, r2
 800a82a:	f7ff fd53 	bl	800a2d4 <__hi0bits>
 800a82e:	f1c0 0320 	rsb	r3, r0, #32
 800a832:	280a      	cmp	r0, #10
 800a834:	600b      	str	r3, [r1, #0]
 800a836:	491b      	ldr	r1, [pc, #108]	@ (800a8a4 <__b2d+0x90>)
 800a838:	dc15      	bgt.n	800a866 <__b2d+0x52>
 800a83a:	f1c0 0c0b 	rsb	ip, r0, #11
 800a83e:	fa22 f30c 	lsr.w	r3, r2, ip
 800a842:	45b8      	cmp	r8, r7
 800a844:	ea43 0501 	orr.w	r5, r3, r1
 800a848:	bf34      	ite	cc
 800a84a:	f856 3c08 	ldrcc.w	r3, [r6, #-8]
 800a84e:	2300      	movcs	r3, #0
 800a850:	3015      	adds	r0, #21
 800a852:	fa02 f000 	lsl.w	r0, r2, r0
 800a856:	fa23 f30c 	lsr.w	r3, r3, ip
 800a85a:	4303      	orrs	r3, r0
 800a85c:	461c      	mov	r4, r3
 800a85e:	ec45 4b10 	vmov	d0, r4, r5
 800a862:	e8bd 81f0 	ldmia.w	sp!, {r4, r5, r6, r7, r8, pc}
 800a866:	45b8      	cmp	r8, r7
 800a868:	bf3a      	itte	cc
 800a86a:	f856 3c08 	ldrcc.w	r3, [r6, #-8]
 800a86e:	f1a6 0708 	subcc.w	r7, r6, #8
 800a872:	2300      	movcs	r3, #0
 800a874:	380b      	subs	r0, #11
 800a876:	d012      	beq.n	800a89e <__b2d+0x8a>
 800a878:	f1c0 0120 	rsb	r1, r0, #32
 800a87c:	fa23 f401 	lsr.w	r4, r3, r1
 800a880:	4082      	lsls	r2, r0
 800a882:	4322      	orrs	r2, r4
 800a884:	4547      	cmp	r7, r8
 800a886:	f042 557f 	orr.w	r5, r2, #1069547520	@ 0x3fc00000
 800a88a:	bf8c      	ite	hi
 800a88c:	f857 2c04 	ldrhi.w	r2, [r7, #-4]
 800a890:	2200      	movls	r2, #0
 800a892:	4083      	lsls	r3, r0
 800a894:	40ca      	lsrs	r2, r1
 800a896:	f445 1540 	orr.w	r5, r5, #3145728	@ 0x300000
 800a89a:	4313      	orrs	r3, r2
 800a89c:	e7de      	b.n	800a85c <__b2d+0x48>
 800a89e:	ea42 0501 	orr.w	r5, r2, r1
 800a8a2:	e7db      	b.n	800a85c <__b2d+0x48>
 800a8a4:	3ff00000 	.word	0x3ff00000

0800a8a8 <__d2b>:
 800a8a8:	e92d 43f7 	stmdb	sp!, {r0, r1, r2, r4, r5, r6, r7, r8, r9, lr}
 800a8ac:	460f      	mov	r7, r1
 800a8ae:	2101      	movs	r1, #1
 800a8b0:	ec59 8b10 	vmov	r8, r9, d0
 800a8b4:	4616      	mov	r6, r2
 800a8b6:	f7ff fc1b 	bl	800a0f0 <_Balloc>
 800a8ba:	4604      	mov	r4, r0
 800a8bc:	b930      	cbnz	r0, 800a8cc <__d2b+0x24>
 800a8be:	4602      	mov	r2, r0
 800a8c0:	4b23      	ldr	r3, [pc, #140]	@ (800a950 <__d2b+0xa8>)
 800a8c2:	4824      	ldr	r0, [pc, #144]	@ (800a954 <__d2b+0xac>)
 800a8c4:	f240 310f 	movw	r1, #783	@ 0x30f
 800a8c8:	f000 fc68 	bl	800b19c <__assert_func>
 800a8cc:	f3c9 550a 	ubfx	r5, r9, #20, #11
 800a8d0:	f3c9 0313 	ubfx	r3, r9, #0, #20
 800a8d4:	b10d      	cbz	r5, 800a8da <__d2b+0x32>
 800a8d6:	f443 1380 	orr.w	r3, r3, #1048576	@ 0x100000
 800a8da:	9301      	str	r3, [sp, #4]
 800a8dc:	f1b8 0300 	subs.w	r3, r8, #0
 800a8e0:	d023      	beq.n	800a92a <__d2b+0x82>
 800a8e2:	4668      	mov	r0, sp
 800a8e4:	9300      	str	r3, [sp, #0]
 800a8e6:	f7ff fd14 	bl	800a312 <__lo0bits>
 800a8ea:	e9dd 1200 	ldrd	r1, r2, [sp]
 800a8ee:	b1d0      	cbz	r0, 800a926 <__d2b+0x7e>
 800a8f0:	f1c0 0320 	rsb	r3, r0, #32
 800a8f4:	fa02 f303 	lsl.w	r3, r2, r3
 800a8f8:	430b      	orrs	r3, r1
 800a8fa:	40c2      	lsrs	r2, r0
 800a8fc:	6163      	str	r3, [r4, #20]
 800a8fe:	9201      	str	r2, [sp, #4]
 800a900:	9b01      	ldr	r3, [sp, #4]
 800a902:	61a3      	str	r3, [r4, #24]
 800a904:	2b00      	cmp	r3, #0
 800a906:	bf0c      	ite	eq
 800a908:	2201      	moveq	r2, #1
 800a90a:	2202      	movne	r2, #2
 800a90c:	6122      	str	r2, [r4, #16]
 800a90e:	b1a5      	cbz	r5, 800a93a <__d2b+0x92>
 800a910:	f2a5 4533 	subw	r5, r5, #1075	@ 0x433
 800a914:	4405      	add	r5, r0
 800a916:	603d      	str	r5, [r7, #0]
 800a918:	f1c0 0035 	rsb	r0, r0, #53	@ 0x35
 800a91c:	6030      	str	r0, [r6, #0]
 800a91e:	4620      	mov	r0, r4
 800a920:	b003      	add	sp, #12
 800a922:	e8bd 83f0 	ldmia.w	sp!, {r4, r5, r6, r7, r8, r9, pc}
 800a926:	6161      	str	r1, [r4, #20]
 800a928:	e7ea      	b.n	800a900 <__d2b+0x58>
 800a92a:	a801      	add	r0, sp, #4
 800a92c:	f7ff fcf1 	bl	800a312 <__lo0bits>
 800a930:	9b01      	ldr	r3, [sp, #4]
 800a932:	6163      	str	r3, [r4, #20]
 800a934:	3020      	adds	r0, #32
 800a936:	2201      	movs	r2, #1
 800a938:	e7e8      	b.n	800a90c <__d2b+0x64>
 800a93a:	eb04 0382 	add.w	r3, r4, r2, lsl #2
 800a93e:	f2a0 4032 	subw	r0, r0, #1074	@ 0x432
 800a942:	6038      	str	r0, [r7, #0]
 800a944:	6918      	ldr	r0, [r3, #16]
 800a946:	f7ff fcc5 	bl	800a2d4 <__hi0bits>
 800a94a:	ebc0 1042 	rsb	r0, r0, r2, lsl #5
 800a94e:	e7e5      	b.n	800a91c <__d2b+0x74>
 800a950:	0800bc9a 	.word	0x0800bc9a
 800a954:	0800bd22 	.word	0x0800bd22

0800a958 <__ratio>:
 800a958:	e92d 4ff0 	stmdb	sp!, {r4, r5, r6, r7, r8, r9, sl, fp, lr}
 800a95c:	b085      	sub	sp, #20
 800a95e:	e9cd 1000 	strd	r1, r0, [sp]
 800a962:	a902      	add	r1, sp, #8
 800a964:	f7ff ff56 	bl	800a814 <__b2d>
 800a968:	9800      	ldr	r0, [sp, #0]
 800a96a:	a903      	add	r1, sp, #12
 800a96c:	ec55 4b10 	vmov	r4, r5, d0
 800a970:	f7ff ff50 	bl	800a814 <__b2d>
 800a974:	9b01      	ldr	r3, [sp, #4]
 800a976:	6919      	ldr	r1, [r3, #16]
 800a978:	9b00      	ldr	r3, [sp, #0]
 800a97a:	691b      	ldr	r3, [r3, #16]
 800a97c:	1ac9      	subs	r1, r1, r3
 800a97e:	e9dd 3202 	ldrd	r3, r2, [sp, #8]
 800a982:	1a9b      	subs	r3, r3, r2
 800a984:	ec5b ab10 	vmov	sl, fp, d0
 800a988:	eb03 1341 	add.w	r3, r3, r1, lsl #5
 800a98c:	2b00      	cmp	r3, #0
 800a98e:	bfce      	itee	gt
 800a990:	462a      	movgt	r2, r5
 800a992:	ebc3 3303 	rsble	r3, r3, r3, lsl #12
 800a996:	465a      	movle	r2, fp
 800a998:	462f      	mov	r7, r5
 800a99a:	46d9      	mov	r9, fp
 800a99c:	bfcc      	ite	gt
 800a99e:	eb02 5703 	addgt.w	r7, r2, r3, lsl #20
 800a9a2:	eb02 5903 	addle.w	r9, r2, r3, lsl #20
 800a9a6:	464b      	mov	r3, r9
 800a9a8:	4652      	mov	r2, sl
 800a9aa:	4620      	mov	r0, r4
 800a9ac:	4639      	mov	r1, r7
 800a9ae:	f7f5 ff4d 	bl	800084c <__aeabi_ddiv>
 800a9b2:	ec41 0b10 	vmov	d0, r0, r1
 800a9b6:	b005      	add	sp, #20
 800a9b8:	e8bd 8ff0 	ldmia.w	sp!, {r4, r5, r6, r7, r8, r9, sl, fp, pc}

0800a9bc <__copybits>:
 800a9bc:	3901      	subs	r1, #1
 800a9be:	b570      	push	{r4, r5, r6, lr}
 800a9c0:	1149      	asrs	r1, r1, #5
 800a9c2:	6914      	ldr	r4, [r2, #16]
 800a9c4:	3101      	adds	r1, #1
 800a9c6:	f102 0314 	add.w	r3, r2, #20
 800a9ca:	eb00 0181 	add.w	r1, r0, r1, lsl #2
 800a9ce:	eb03 0484 	add.w	r4, r3, r4, lsl #2
 800a9d2:	1f05      	subs	r5, r0, #4
 800a9d4:	42a3      	cmp	r3, r4
 800a9d6:	d30c      	bcc.n	800a9f2 <__copybits+0x36>
 800a9d8:	1aa3      	subs	r3, r4, r2
 800a9da:	3b11      	subs	r3, #17
 800a9dc:	f023 0303 	bic.w	r3, r3, #3
 800a9e0:	3211      	adds	r2, #17
 800a9e2:	42a2      	cmp	r2, r4
 800a9e4:	bf88      	it	hi
 800a9e6:	2300      	movhi	r3, #0
 800a9e8:	4418      	add	r0, r3
 800a9ea:	2300      	movs	r3, #0
 800a9ec:	4288      	cmp	r0, r1
 800a9ee:	d305      	bcc.n	800a9fc <__copybits+0x40>
 800a9f0:	bd70      	pop	{r4, r5, r6, pc}
 800a9f2:	f853 6b04 	ldr.w	r6, [r3], #4
 800a9f6:	f845 6f04 	str.w	r6, [r5, #4]!
 800a9fa:	e7eb      	b.n	800a9d4 <__copybits+0x18>
 800a9fc:	f840 3b04 	str.w	r3, [r0], #4
 800aa00:	e7f4      	b.n	800a9ec <__copybits+0x30>

0800aa02 <__any_on>:
 800aa02:	f100 0214 	add.w	r2, r0, #20
 800aa06:	6900      	ldr	r0, [r0, #16]
 800aa08:	114b      	asrs	r3, r1, #5
 800aa0a:	4298      	cmp	r0, r3
 800aa0c:	b510      	push	{r4, lr}
 800aa0e:	db11      	blt.n	800aa34 <__any_on+0x32>
 800aa10:	dd0a      	ble.n	800aa28 <__any_on+0x26>
 800aa12:	f011 011f 	ands.w	r1, r1, #31
 800aa16:	d007      	beq.n	800aa28 <__any_on+0x26>
 800aa18:	f852 4023 	ldr.w	r4, [r2, r3, lsl #2]
 800aa1c:	fa24 f001 	lsr.w	r0, r4, r1
 800aa20:	fa00 f101 	lsl.w	r1, r0, r1
 800aa24:	428c      	cmp	r4, r1
 800aa26:	d10b      	bne.n	800aa40 <__any_on+0x3e>
 800aa28:	eb02 0383 	add.w	r3, r2, r3, lsl #2
 800aa2c:	4293      	cmp	r3, r2
 800aa2e:	d803      	bhi.n	800aa38 <__any_on+0x36>
 800aa30:	2000      	movs	r0, #0
 800aa32:	bd10      	pop	{r4, pc}
 800aa34:	4603      	mov	r3, r0
 800aa36:	e7f7      	b.n	800aa28 <__any_on+0x26>
 800aa38:	f853 1d04 	ldr.w	r1, [r3, #-4]!
 800aa3c:	2900      	cmp	r1, #0
 800aa3e:	d0f5      	beq.n	800aa2c <__any_on+0x2a>
 800aa40:	2001      	movs	r0, #1
 800aa42:	e7f6      	b.n	800aa32 <__any_on+0x30>

0800aa44 <__ascii_wctomb>:
 800aa44:	4603      	mov	r3, r0
 800aa46:	4608      	mov	r0, r1
 800aa48:	b141      	cbz	r1, 800aa5c <__ascii_wctomb+0x18>
 800aa4a:	2aff      	cmp	r2, #255	@ 0xff
 800aa4c:	d904      	bls.n	800aa58 <__ascii_wctomb+0x14>
 800aa4e:	228a      	movs	r2, #138	@ 0x8a
 800aa50:	601a      	str	r2, [r3, #0]
 800aa52:	f04f 30ff 	mov.w	r0, #4294967295
 800aa56:	4770      	bx	lr
 800aa58:	700a      	strb	r2, [r1, #0]
 800aa5a:	2001      	movs	r0, #1
 800aa5c:	4770      	bx	lr

0800aa5e <__ssputs_r>:
 800aa5e:	e92d 47f0 	stmdb	sp!, {r4, r5, r6, r7, r8, r9, sl, lr}
 800aa62:	688e      	ldr	r6, [r1, #8]
 800aa64:	461f      	mov	r7, r3
 800aa66:	42be      	cmp	r6, r7
 800aa68:	680b      	ldr	r3, [r1, #0]
 800aa6a:	4682      	mov	sl, r0
 800aa6c:	460c      	mov	r4, r1
 800aa6e:	4690      	mov	r8, r2
 800aa70:	d82d      	bhi.n	800aace <__ssputs_r+0x70>
 800aa72:	f9b1 200c 	ldrsh.w	r2, [r1, #12]
 800aa76:	f412 6f90 	tst.w	r2, #1152	@ 0x480
 800aa7a:	d026      	beq.n	800aaca <__ssputs_r+0x6c>
 800aa7c:	6965      	ldr	r5, [r4, #20]
 800aa7e:	6909      	ldr	r1, [r1, #16]
 800aa80:	eb05 0545 	add.w	r5, r5, r5, lsl #1
 800aa84:	eba3 0901 	sub.w	r9, r3, r1
 800aa88:	eb05 75d5 	add.w	r5, r5, r5, lsr #31
 800aa8c:	1c7b      	adds	r3, r7, #1
 800aa8e:	444b      	add	r3, r9
 800aa90:	106d      	asrs	r5, r5, #1
 800aa92:	429d      	cmp	r5, r3
 800aa94:	bf38      	it	cc
 800aa96:	461d      	movcc	r5, r3
 800aa98:	0553      	lsls	r3, r2, #21
 800aa9a:	d527      	bpl.n	800aaec <__ssputs_r+0x8e>
 800aa9c:	4629      	mov	r1, r5
 800aa9e:	f7ff fa89 	bl	8009fb4 <_malloc_r>
 800aaa2:	4606      	mov	r6, r0
 800aaa4:	b360      	cbz	r0, 800ab00 <__ssputs_r+0xa2>
 800aaa6:	6921      	ldr	r1, [r4, #16]
 800aaa8:	464a      	mov	r2, r9
 800aaaa:	f7fe fec4 	bl	8009836 <memcpy>
 800aaae:	89a3      	ldrh	r3, [r4, #12]
 800aab0:	f423 6390 	bic.w	r3, r3, #1152	@ 0x480
 800aab4:	f043 0380 	orr.w	r3, r3, #128	@ 0x80
 800aab8:	81a3      	strh	r3, [r4, #12]
 800aaba:	6126      	str	r6, [r4, #16]
 800aabc:	6165      	str	r5, [r4, #20]
 800aabe:	444e      	add	r6, r9
 800aac0:	eba5 0509 	sub.w	r5, r5, r9
 800aac4:	6026      	str	r6, [r4, #0]
 800aac6:	60a5      	str	r5, [r4, #8]
 800aac8:	463e      	mov	r6, r7
 800aaca:	42be      	cmp	r6, r7
 800aacc:	d900      	bls.n	800aad0 <__ssputs_r+0x72>
 800aace:	463e      	mov	r6, r7
 800aad0:	6820      	ldr	r0, [r4, #0]
 800aad2:	4632      	mov	r2, r6
 800aad4:	4641      	mov	r1, r8
 800aad6:	f7fe fdda 	bl	800968e <memmove>
 800aada:	68a3      	ldr	r3, [r4, #8]
 800aadc:	1b9b      	subs	r3, r3, r6
 800aade:	60a3      	str	r3, [r4, #8]
 800aae0:	6823      	ldr	r3, [r4, #0]
 800aae2:	4433      	add	r3, r6
 800aae4:	6023      	str	r3, [r4, #0]
 800aae6:	2000      	movs	r0, #0
 800aae8:	e8bd 87f0 	ldmia.w	sp!, {r4, r5, r6, r7, r8, r9, sl, pc}
 800aaec:	462a      	mov	r2, r5
 800aaee:	f000 fb8f 	bl	800b210 <_realloc_r>
 800aaf2:	4606      	mov	r6, r0
 800aaf4:	2800      	cmp	r0, #0
 800aaf6:	d1e0      	bne.n	800aaba <__ssputs_r+0x5c>
 800aaf8:	6921      	ldr	r1, [r4, #16]
 800aafa:	4650      	mov	r0, sl
 800aafc:	f7fe feb4 	bl	8009868 <_free_r>
 800ab00:	230c      	movs	r3, #12
 800ab02:	f8ca 3000 	str.w	r3, [sl]
 800ab06:	89a3      	ldrh	r3, [r4, #12]
 800ab08:	f043 0340 	orr.w	r3, r3, #64	@ 0x40
 800ab0c:	81a3      	strh	r3, [r4, #12]
 800ab0e:	f04f 30ff 	mov.w	r0, #4294967295
 800ab12:	e7e9      	b.n	800aae8 <__ssputs_r+0x8a>

0800ab14 <_svfiprintf_r>:
 800ab14:	e92d 4ff0 	stmdb	sp!, {r4, r5, r6, r7, r8, r9, sl, fp, lr}
 800ab18:	4698      	mov	r8, r3
 800ab1a:	898b      	ldrh	r3, [r1, #12]
 800ab1c:	061b      	lsls	r3, r3, #24
 800ab1e:	b09d      	sub	sp, #116	@ 0x74
 800ab20:	4607      	mov	r7, r0
 800ab22:	460d      	mov	r5, r1
 800ab24:	4614      	mov	r4, r2
 800ab26:	d510      	bpl.n	800ab4a <_svfiprintf_r+0x36>
 800ab28:	690b      	ldr	r3, [r1, #16]
 800ab2a:	b973      	cbnz	r3, 800ab4a <_svfiprintf_r+0x36>
 800ab2c:	2140      	movs	r1, #64	@ 0x40
 800ab2e:	f7ff fa41 	bl	8009fb4 <_malloc_r>
 800ab32:	6028      	str	r0, [r5, #0]
 800ab34:	6128      	str	r0, [r5, #16]
 800ab36:	b930      	cbnz	r0, 800ab46 <_svfiprintf_r+0x32>
 800ab38:	230c      	movs	r3, #12
 800ab3a:	603b      	str	r3, [r7, #0]
 800ab3c:	f04f 30ff 	mov.w	r0, #4294967295
 800ab40:	b01d      	add	sp, #116	@ 0x74
 800ab42:	e8bd 8ff0 	ldmia.w	sp!, {r4, r5, r6, r7, r8, r9, sl, fp, pc}
 800ab46:	2340      	movs	r3, #64	@ 0x40
 800ab48:	616b      	str	r3, [r5, #20]
 800ab4a:	2300      	movs	r3, #0
 800ab4c:	9309      	str	r3, [sp, #36]	@ 0x24
 800ab4e:	2320      	movs	r3, #32
 800ab50:	f88d 3029 	strb.w	r3, [sp, #41]	@ 0x29
 800ab54:	f8cd 800c 	str.w	r8, [sp, #12]
 800ab58:	2330      	movs	r3, #48	@ 0x30
 800ab5a:	f8df 819c 	ldr.w	r8, [pc, #412]	@ 800acf8 <_svfiprintf_r+0x1e4>
 800ab5e:	f88d 302a 	strb.w	r3, [sp, #42]	@ 0x2a
 800ab62:	f04f 0901 	mov.w	r9, #1
 800ab66:	4623      	mov	r3, r4
 800ab68:	469a      	mov	sl, r3
 800ab6a:	f813 2b01 	ldrb.w	r2, [r3], #1
 800ab6e:	b10a      	cbz	r2, 800ab74 <_svfiprintf_r+0x60>
 800ab70:	2a25      	cmp	r2, #37	@ 0x25
 800ab72:	d1f9      	bne.n	800ab68 <_svfiprintf_r+0x54>
 800ab74:	ebba 0b04 	subs.w	fp, sl, r4
 800ab78:	d00b      	beq.n	800ab92 <_svfiprintf_r+0x7e>
 800ab7a:	465b      	mov	r3, fp
 800ab7c:	4622      	mov	r2, r4
 800ab7e:	4629      	mov	r1, r5
 800ab80:	4638      	mov	r0, r7
 800ab82:	f7ff ff6c 	bl	800aa5e <__ssputs_r>
 800ab86:	3001      	adds	r0, #1
 800ab88:	f000 80a7 	beq.w	800acda <_svfiprintf_r+0x1c6>
 800ab8c:	9a09      	ldr	r2, [sp, #36]	@ 0x24
 800ab8e:	445a      	add	r2, fp
 800ab90:	9209      	str	r2, [sp, #36]	@ 0x24
 800ab92:	f89a 3000 	ldrb.w	r3, [sl]
 800ab96:	2b00      	cmp	r3, #0
 800ab98:	f000 809f 	beq.w	800acda <_svfiprintf_r+0x1c6>
 800ab9c:	2300      	movs	r3, #0
 800ab9e:	f04f 32ff 	mov.w	r2, #4294967295
 800aba2:	e9cd 2305 	strd	r2, r3, [sp, #20]
 800aba6:	f10a 0a01 	add.w	sl, sl, #1
 800abaa:	9304      	str	r3, [sp, #16]
 800abac:	9307      	str	r3, [sp, #28]
 800abae:	f88d 3053 	strb.w	r3, [sp, #83]	@ 0x53
 800abb2:	931a      	str	r3, [sp, #104]	@ 0x68
 800abb4:	4654      	mov	r4, sl
 800abb6:	2205      	movs	r2, #5
 800abb8:	f814 1b01 	ldrb.w	r1, [r4], #1
 800abbc:	484e      	ldr	r0, [pc, #312]	@ (800acf8 <_svfiprintf_r+0x1e4>)
 800abbe:	f7f5 fb0f 	bl	80001e0 <memchr>
 800abc2:	9a04      	ldr	r2, [sp, #16]
 800abc4:	b9d8      	cbnz	r0, 800abfe <_svfiprintf_r+0xea>
 800abc6:	06d0      	lsls	r0, r2, #27
 800abc8:	bf44      	itt	mi
 800abca:	2320      	movmi	r3, #32
 800abcc:	f88d 3053 	strbmi.w	r3, [sp, #83]	@ 0x53
 800abd0:	0711      	lsls	r1, r2, #28
 800abd2:	bf44      	itt	mi
 800abd4:	232b      	movmi	r3, #43	@ 0x2b
 800abd6:	f88d 3053 	strbmi.w	r3, [sp, #83]	@ 0x53
 800abda:	f89a 3000 	ldrb.w	r3, [sl]
 800abde:	2b2a      	cmp	r3, #42	@ 0x2a
 800abe0:	d015      	beq.n	800ac0e <_svfiprintf_r+0xfa>
 800abe2:	9a07      	ldr	r2, [sp, #28]
 800abe4:	4654      	mov	r4, sl
 800abe6:	2000      	movs	r0, #0
 800abe8:	f04f 0c0a 	mov.w	ip, #10
 800abec:	4621      	mov	r1, r4
 800abee:	f811 3b01 	ldrb.w	r3, [r1], #1
 800abf2:	3b30      	subs	r3, #48	@ 0x30
 800abf4:	2b09      	cmp	r3, #9
 800abf6:	d94b      	bls.n	800ac90 <_svfiprintf_r+0x17c>
 800abf8:	b1b0      	cbz	r0, 800ac28 <_svfiprintf_r+0x114>
 800abfa:	9207      	str	r2, [sp, #28]
 800abfc:	e014      	b.n	800ac28 <_svfiprintf_r+0x114>
 800abfe:	eba0 0308 	sub.w	r3, r0, r8
 800ac02:	fa09 f303 	lsl.w	r3, r9, r3
 800ac06:	4313      	orrs	r3, r2
 800ac08:	9304      	str	r3, [sp, #16]
 800ac0a:	46a2      	mov	sl, r4
 800ac0c:	e7d2      	b.n	800abb4 <_svfiprintf_r+0xa0>
 800ac0e:	9b03      	ldr	r3, [sp, #12]
 800ac10:	1d19      	adds	r1, r3, #4
 800ac12:	681b      	ldr	r3, [r3, #0]
 800ac14:	9103      	str	r1, [sp, #12]
 800ac16:	2b00      	cmp	r3, #0
 800ac18:	bfbb      	ittet	lt
 800ac1a:	425b      	neglt	r3, r3
 800ac1c:	f042 0202 	orrlt.w	r2, r2, #2
 800ac20:	9307      	strge	r3, [sp, #28]
 800ac22:	9307      	strlt	r3, [sp, #28]
 800ac24:	bfb8      	it	lt
 800ac26:	9204      	strlt	r2, [sp, #16]
 800ac28:	7823      	ldrb	r3, [r4, #0]
 800ac2a:	2b2e      	cmp	r3, #46	@ 0x2e
 800ac2c:	d10a      	bne.n	800ac44 <_svfiprintf_r+0x130>
 800ac2e:	7863      	ldrb	r3, [r4, #1]
 800ac30:	2b2a      	cmp	r3, #42	@ 0x2a
 800ac32:	d132      	bne.n	800ac9a <_svfiprintf_r+0x186>
 800ac34:	9b03      	ldr	r3, [sp, #12]
 800ac36:	1d1a      	adds	r2, r3, #4
 800ac38:	681b      	ldr	r3, [r3, #0]
 800ac3a:	9203      	str	r2, [sp, #12]
 800ac3c:	ea43 73e3 	orr.w	r3, r3, r3, asr #31
 800ac40:	3402      	adds	r4, #2
 800ac42:	9305      	str	r3, [sp, #20]
 800ac44:	f8df a0c0 	ldr.w	sl, [pc, #192]	@ 800ad08 <_svfiprintf_r+0x1f4>
 800ac48:	7821      	ldrb	r1, [r4, #0]
 800ac4a:	2203      	movs	r2, #3
 800ac4c:	4650      	mov	r0, sl
 800ac4e:	f7f5 fac7 	bl	80001e0 <memchr>
 800ac52:	b138      	cbz	r0, 800ac64 <_svfiprintf_r+0x150>
 800ac54:	9b04      	ldr	r3, [sp, #16]
 800ac56:	eba0 000a 	sub.w	r0, r0, sl
 800ac5a:	2240      	movs	r2, #64	@ 0x40
 800ac5c:	4082      	lsls	r2, r0
 800ac5e:	4313      	orrs	r3, r2
 800ac60:	3401      	adds	r4, #1
 800ac62:	9304      	str	r3, [sp, #16]
 800ac64:	f814 1b01 	ldrb.w	r1, [r4], #1
 800ac68:	4824      	ldr	r0, [pc, #144]	@ (800acfc <_svfiprintf_r+0x1e8>)
 800ac6a:	f88d 1028 	strb.w	r1, [sp, #40]	@ 0x28
 800ac6e:	2206      	movs	r2, #6
 800ac70:	f7f5 fab6 	bl	80001e0 <memchr>
 800ac74:	2800      	cmp	r0, #0
 800ac76:	d036      	beq.n	800ace6 <_svfiprintf_r+0x1d2>
 800ac78:	4b21      	ldr	r3, [pc, #132]	@ (800ad00 <_svfiprintf_r+0x1ec>)
 800ac7a:	bb1b      	cbnz	r3, 800acc4 <_svfiprintf_r+0x1b0>
 800ac7c:	9b03      	ldr	r3, [sp, #12]
 800ac7e:	3307      	adds	r3, #7
 800ac80:	f023 0307 	bic.w	r3, r3, #7
 800ac84:	3308      	adds	r3, #8
 800ac86:	9303      	str	r3, [sp, #12]
 800ac88:	9b09      	ldr	r3, [sp, #36]	@ 0x24
 800ac8a:	4433      	add	r3, r6
 800ac8c:	9309      	str	r3, [sp, #36]	@ 0x24
 800ac8e:	e76a      	b.n	800ab66 <_svfiprintf_r+0x52>
 800ac90:	fb0c 3202 	mla	r2, ip, r2, r3
 800ac94:	460c      	mov	r4, r1
 800ac96:	2001      	movs	r0, #1
 800ac98:	e7a8      	b.n	800abec <_svfiprintf_r+0xd8>
 800ac9a:	2300      	movs	r3, #0
 800ac9c:	3401      	adds	r4, #1
 800ac9e:	9305      	str	r3, [sp, #20]
 800aca0:	4619      	mov	r1, r3
 800aca2:	f04f 0c0a 	mov.w	ip, #10
 800aca6:	4620      	mov	r0, r4
 800aca8:	f810 2b01 	ldrb.w	r2, [r0], #1
 800acac:	3a30      	subs	r2, #48	@ 0x30
 800acae:	2a09      	cmp	r2, #9
 800acb0:	d903      	bls.n	800acba <_svfiprintf_r+0x1a6>
 800acb2:	2b00      	cmp	r3, #0
 800acb4:	d0c6      	beq.n	800ac44 <_svfiprintf_r+0x130>
 800acb6:	9105      	str	r1, [sp, #20]
 800acb8:	e7c4      	b.n	800ac44 <_svfiprintf_r+0x130>
 800acba:	fb0c 2101 	mla	r1, ip, r1, r2
 800acbe:	4604      	mov	r4, r0
 800acc0:	2301      	movs	r3, #1
 800acc2:	e7f0      	b.n	800aca6 <_svfiprintf_r+0x192>
 800acc4:	ab03      	add	r3, sp, #12
 800acc6:	9300      	str	r3, [sp, #0]
 800acc8:	462a      	mov	r2, r5
 800acca:	4b0e      	ldr	r3, [pc, #56]	@ (800ad04 <_svfiprintf_r+0x1f0>)
 800accc:	a904      	add	r1, sp, #16
 800acce:	4638      	mov	r0, r7
 800acd0:	f3af 8000 	nop.w
 800acd4:	1c42      	adds	r2, r0, #1
 800acd6:	4606      	mov	r6, r0
 800acd8:	d1d6      	bne.n	800ac88 <_svfiprintf_r+0x174>
 800acda:	89ab      	ldrh	r3, [r5, #12]
 800acdc:	065b      	lsls	r3, r3, #25
 800acde:	f53f af2d 	bmi.w	800ab3c <_svfiprintf_r+0x28>
 800ace2:	9809      	ldr	r0, [sp, #36]	@ 0x24
 800ace4:	e72c      	b.n	800ab40 <_svfiprintf_r+0x2c>
 800ace6:	ab03      	add	r3, sp, #12
 800ace8:	9300      	str	r3, [sp, #0]
 800acea:	462a      	mov	r2, r5
 800acec:	4b05      	ldr	r3, [pc, #20]	@ (800ad04 <_svfiprintf_r+0x1f0>)
 800acee:	a904      	add	r1, sp, #16
 800acf0:	4638      	mov	r0, r7
 800acf2:	f000 f879 	bl	800ade8 <_printf_i>
 800acf6:	e7ed      	b.n	800acd4 <_svfiprintf_r+0x1c0>
 800acf8:	0800bd7b 	.word	0x0800bd7b
 800acfc:	0800bd85 	.word	0x0800bd85
 800ad00:	00000000 	.word	0x00000000
 800ad04:	0800aa5f 	.word	0x0800aa5f
 800ad08:	0800bd81 	.word	0x0800bd81

0800ad0c <_printf_common>:
 800ad0c:	e92d 47f0 	stmdb	sp!, {r4, r5, r6, r7, r8, r9, sl, lr}
 800ad10:	4616      	mov	r6, r2
 800ad12:	4698      	mov	r8, r3
 800ad14:	688a      	ldr	r2, [r1, #8]
 800ad16:	690b      	ldr	r3, [r1, #16]
 800ad18:	f8dd 9020 	ldr.w	r9, [sp, #32]
 800ad1c:	4293      	cmp	r3, r2
 800ad1e:	bfb8      	it	lt
 800ad20:	4613      	movlt	r3, r2
 800ad22:	6033      	str	r3, [r6, #0]
 800ad24:	f891 2043 	ldrb.w	r2, [r1, #67]	@ 0x43
 800ad28:	4607      	mov	r7, r0
 800ad2a:	460c      	mov	r4, r1
 800ad2c:	b10a      	cbz	r2, 800ad32 <_printf_common+0x26>
 800ad2e:	3301      	adds	r3, #1
 800ad30:	6033      	str	r3, [r6, #0]
 800ad32:	6823      	ldr	r3, [r4, #0]
 800ad34:	0699      	lsls	r1, r3, #26
 800ad36:	bf42      	ittt	mi
 800ad38:	6833      	ldrmi	r3, [r6, #0]
 800ad3a:	3302      	addmi	r3, #2
 800ad3c:	6033      	strmi	r3, [r6, #0]
 800ad3e:	6825      	ldr	r5, [r4, #0]
 800ad40:	f015 0506 	ands.w	r5, r5, #6
 800ad44:	d106      	bne.n	800ad54 <_printf_common+0x48>
 800ad46:	f104 0a19 	add.w	sl, r4, #25
 800ad4a:	68e3      	ldr	r3, [r4, #12]
 800ad4c:	6832      	ldr	r2, [r6, #0]
 800ad4e:	1a9b      	subs	r3, r3, r2
 800ad50:	42ab      	cmp	r3, r5
 800ad52:	dc26      	bgt.n	800ada2 <_printf_common+0x96>
 800ad54:	f894 3043 	ldrb.w	r3, [r4, #67]	@ 0x43
 800ad58:	6822      	ldr	r2, [r4, #0]
 800ad5a:	3b00      	subs	r3, #0
 800ad5c:	bf18      	it	ne
 800ad5e:	2301      	movne	r3, #1
 800ad60:	0692      	lsls	r2, r2, #26
 800ad62:	d42b      	bmi.n	800adbc <_printf_common+0xb0>
 800ad64:	f104 0243 	add.w	r2, r4, #67	@ 0x43
 800ad68:	4641      	mov	r1, r8
 800ad6a:	4638      	mov	r0, r7
 800ad6c:	47c8      	blx	r9
 800ad6e:	3001      	adds	r0, #1
 800ad70:	d01e      	beq.n	800adb0 <_printf_common+0xa4>
 800ad72:	6823      	ldr	r3, [r4, #0]
 800ad74:	6922      	ldr	r2, [r4, #16]
 800ad76:	f003 0306 	and.w	r3, r3, #6
 800ad7a:	2b04      	cmp	r3, #4
 800ad7c:	bf02      	ittt	eq
 800ad7e:	68e5      	ldreq	r5, [r4, #12]
 800ad80:	6833      	ldreq	r3, [r6, #0]
 800ad82:	1aed      	subeq	r5, r5, r3
 800ad84:	68a3      	ldr	r3, [r4, #8]
 800ad86:	bf0c      	ite	eq
 800ad88:	ea25 75e5 	biceq.w	r5, r5, r5, asr #31
 800ad8c:	2500      	movne	r5, #0
 800ad8e:	4293      	cmp	r3, r2
 800ad90:	bfc4      	itt	gt
 800ad92:	1a9b      	subgt	r3, r3, r2
 800ad94:	18ed      	addgt	r5, r5, r3
 800ad96:	2600      	movs	r6, #0
 800ad98:	341a      	adds	r4, #26
 800ad9a:	42b5      	cmp	r5, r6
 800ad9c:	d11a      	bne.n	800add4 <_printf_common+0xc8>
 800ad9e:	2000      	movs	r0, #0
 800ada0:	e008      	b.n	800adb4 <_printf_common+0xa8>
 800ada2:	2301      	movs	r3, #1
 800ada4:	4652      	mov	r2, sl
 800ada6:	4641      	mov	r1, r8
 800ada8:	4638      	mov	r0, r7
 800adaa:	47c8      	blx	r9
 800adac:	3001      	adds	r0, #1
 800adae:	d103      	bne.n	800adb8 <_printf_common+0xac>
 800adb0:	f04f 30ff 	mov.w	r0, #4294967295
 800adb4:	e8bd 87f0 	ldmia.w	sp!, {r4, r5, r6, r7, r8, r9, sl, pc}
 800adb8:	3501      	adds	r5, #1
 800adba:	e7c6      	b.n	800ad4a <_printf_common+0x3e>
 800adbc:	18e1      	adds	r1, r4, r3
 800adbe:	1c5a      	adds	r2, r3, #1
 800adc0:	2030      	movs	r0, #48	@ 0x30
 800adc2:	f881 0043 	strb.w	r0, [r1, #67]	@ 0x43
 800adc6:	4422      	add	r2, r4
 800adc8:	f894 1045 	ldrb.w	r1, [r4, #69]	@ 0x45
 800adcc:	f882 1043 	strb.w	r1, [r2, #67]	@ 0x43
 800add0:	3302      	adds	r3, #2
 800add2:	e7c7      	b.n	800ad64 <_printf_common+0x58>
 800add4:	2301      	movs	r3, #1
 800add6:	4622      	mov	r2, r4
 800add8:	4641      	mov	r1, r8
 800adda:	4638      	mov	r0, r7
 800addc:	47c8      	blx	r9
 800adde:	3001      	adds	r0, #1
 800ade0:	d0e6      	beq.n	800adb0 <_printf_common+0xa4>
 800ade2:	3601      	adds	r6, #1
 800ade4:	e7d9      	b.n	800ad9a <_printf_common+0x8e>
	...

0800ade8 <_printf_i>:
 800ade8:	e92d 47ff 	stmdb	sp!, {r0, r1, r2, r3, r4, r5, r6, r7, r8, r9, sl, lr}
 800adec:	7e0f      	ldrb	r7, [r1, #24]
 800adee:	9e0c      	ldr	r6, [sp, #48]	@ 0x30
 800adf0:	2f78      	cmp	r7, #120	@ 0x78
 800adf2:	4691      	mov	r9, r2
 800adf4:	4680      	mov	r8, r0
 800adf6:	460c      	mov	r4, r1
 800adf8:	469a      	mov	sl, r3
 800adfa:	f101 0243 	add.w	r2, r1, #67	@ 0x43
 800adfe:	d807      	bhi.n	800ae10 <_printf_i+0x28>
 800ae00:	2f62      	cmp	r7, #98	@ 0x62
 800ae02:	d80a      	bhi.n	800ae1a <_printf_i+0x32>
 800ae04:	2f00      	cmp	r7, #0
 800ae06:	f000 80d1 	beq.w	800afac <_printf_i+0x1c4>
 800ae0a:	2f58      	cmp	r7, #88	@ 0x58
 800ae0c:	f000 80b8 	beq.w	800af80 <_printf_i+0x198>
 800ae10:	f104 0642 	add.w	r6, r4, #66	@ 0x42
 800ae14:	f884 7042 	strb.w	r7, [r4, #66]	@ 0x42
 800ae18:	e03a      	b.n	800ae90 <_printf_i+0xa8>
 800ae1a:	f1a7 0363 	sub.w	r3, r7, #99	@ 0x63
 800ae1e:	2b15      	cmp	r3, #21
 800ae20:	d8f6      	bhi.n	800ae10 <_printf_i+0x28>
 800ae22:	a101      	add	r1, pc, #4	@ (adr r1, 800ae28 <_printf_i+0x40>)
 800ae24:	f851 f023 	ldr.w	pc, [r1, r3, lsl #2]
 800ae28:	0800ae81 	.word	0x0800ae81
 800ae2c:	0800ae95 	.word	0x0800ae95
 800ae30:	0800ae11 	.word	0x0800ae11
 800ae34:	0800ae11 	.word	0x0800ae11
 800ae38:	0800ae11 	.word	0x0800ae11
 800ae3c:	0800ae11 	.word	0x0800ae11
 800ae40:	0800ae95 	.word	0x0800ae95
 800ae44:	0800ae11 	.word	0x0800ae11
 800ae48:	0800ae11 	.word	0x0800ae11
 800ae4c:	0800ae11 	.word	0x0800ae11
 800ae50:	0800ae11 	.word	0x0800ae11
 800ae54:	0800af93 	.word	0x0800af93
 800ae58:	0800aebf 	.word	0x0800aebf
 800ae5c:	0800af4d 	.word	0x0800af4d
 800ae60:	0800ae11 	.word	0x0800ae11
 800ae64:	0800ae11 	.word	0x0800ae11
 800ae68:	0800afb5 	.word	0x0800afb5
 800ae6c:	0800ae11 	.word	0x0800ae11
 800ae70:	0800aebf 	.word	0x0800aebf
 800ae74:	0800ae11 	.word	0x0800ae11
 800ae78:	0800ae11 	.word	0x0800ae11
 800ae7c:	0800af55 	.word	0x0800af55
 800ae80:	6833      	ldr	r3, [r6, #0]
 800ae82:	1d1a      	adds	r2, r3, #4
 800ae84:	681b      	ldr	r3, [r3, #0]
 800ae86:	6032      	str	r2, [r6, #0]
 800ae88:	f104 0642 	add.w	r6, r4, #66	@ 0x42
 800ae8c:	f884 3042 	strb.w	r3, [r4, #66]	@ 0x42
 800ae90:	2301      	movs	r3, #1
 800ae92:	e09c      	b.n	800afce <_printf_i+0x1e6>
 800ae94:	6833      	ldr	r3, [r6, #0]
 800ae96:	6820      	ldr	r0, [r4, #0]
 800ae98:	1d19      	adds	r1, r3, #4
 800ae9a:	6031      	str	r1, [r6, #0]
 800ae9c:	0606      	lsls	r6, r0, #24
 800ae9e:	d501      	bpl.n	800aea4 <_printf_i+0xbc>
 800aea0:	681d      	ldr	r5, [r3, #0]
 800aea2:	e003      	b.n	800aeac <_printf_i+0xc4>
 800aea4:	0645      	lsls	r5, r0, #25
 800aea6:	d5fb      	bpl.n	800aea0 <_printf_i+0xb8>
 800aea8:	f9b3 5000 	ldrsh.w	r5, [r3]
 800aeac:	2d00      	cmp	r5, #0
 800aeae:	da03      	bge.n	800aeb8 <_printf_i+0xd0>
 800aeb0:	232d      	movs	r3, #45	@ 0x2d
 800aeb2:	426d      	negs	r5, r5
 800aeb4:	f884 3043 	strb.w	r3, [r4, #67]	@ 0x43
 800aeb8:	4858      	ldr	r0, [pc, #352]	@ (800b01c <_printf_i+0x234>)
 800aeba:	230a      	movs	r3, #10
 800aebc:	e011      	b.n	800aee2 <_printf_i+0xfa>
 800aebe:	6821      	ldr	r1, [r4, #0]
 800aec0:	6833      	ldr	r3, [r6, #0]
 800aec2:	0608      	lsls	r0, r1, #24
 800aec4:	f853 5b04 	ldr.w	r5, [r3], #4
 800aec8:	d402      	bmi.n	800aed0 <_printf_i+0xe8>
 800aeca:	0649      	lsls	r1, r1, #25
 800aecc:	bf48      	it	mi
 800aece:	b2ad      	uxthmi	r5, r5
 800aed0:	2f6f      	cmp	r7, #111	@ 0x6f
 800aed2:	4852      	ldr	r0, [pc, #328]	@ (800b01c <_printf_i+0x234>)
 800aed4:	6033      	str	r3, [r6, #0]
 800aed6:	bf14      	ite	ne
 800aed8:	230a      	movne	r3, #10
 800aeda:	2308      	moveq	r3, #8
 800aedc:	2100      	movs	r1, #0
 800aede:	f884 1043 	strb.w	r1, [r4, #67]	@ 0x43
 800aee2:	6866      	ldr	r6, [r4, #4]
 800aee4:	60a6      	str	r6, [r4, #8]
 800aee6:	2e00      	cmp	r6, #0
 800aee8:	db05      	blt.n	800aef6 <_printf_i+0x10e>
 800aeea:	6821      	ldr	r1, [r4, #0]
 800aeec:	432e      	orrs	r6, r5
 800aeee:	f021 0104 	bic.w	r1, r1, #4
 800aef2:	6021      	str	r1, [r4, #0]
 800aef4:	d04b      	beq.n	800af8e <_printf_i+0x1a6>
 800aef6:	4616      	mov	r6, r2
 800aef8:	fbb5 f1f3 	udiv	r1, r5, r3
 800aefc:	fb03 5711 	mls	r7, r3, r1, r5
 800af00:	5dc7      	ldrb	r7, [r0, r7]
 800af02:	f806 7d01 	strb.w	r7, [r6, #-1]!
 800af06:	462f      	mov	r7, r5
 800af08:	42bb      	cmp	r3, r7
 800af0a:	460d      	mov	r5, r1
 800af0c:	d9f4      	bls.n	800aef8 <_printf_i+0x110>
 800af0e:	2b08      	cmp	r3, #8
 800af10:	d10b      	bne.n	800af2a <_printf_i+0x142>
 800af12:	6823      	ldr	r3, [r4, #0]
 800af14:	07df      	lsls	r7, r3, #31
 800af16:	d508      	bpl.n	800af2a <_printf_i+0x142>
 800af18:	6923      	ldr	r3, [r4, #16]
 800af1a:	6861      	ldr	r1, [r4, #4]
 800af1c:	4299      	cmp	r1, r3
 800af1e:	bfde      	ittt	le
 800af20:	2330      	movle	r3, #48	@ 0x30
 800af22:	f806 3c01 	strble.w	r3, [r6, #-1]
 800af26:	f106 36ff 	addle.w	r6, r6, #4294967295
 800af2a:	1b92      	subs	r2, r2, r6
 800af2c:	6122      	str	r2, [r4, #16]
 800af2e:	f8cd a000 	str.w	sl, [sp]
 800af32:	464b      	mov	r3, r9
 800af34:	aa03      	add	r2, sp, #12
 800af36:	4621      	mov	r1, r4
 800af38:	4640      	mov	r0, r8
 800af3a:	f7ff fee7 	bl	800ad0c <_printf_common>
 800af3e:	3001      	adds	r0, #1
 800af40:	d14a      	bne.n	800afd8 <_printf_i+0x1f0>
 800af42:	f04f 30ff 	mov.w	r0, #4294967295
 800af46:	b004      	add	sp, #16
 800af48:	e8bd 87f0 	ldmia.w	sp!, {r4, r5, r6, r7, r8, r9, sl, pc}
 800af4c:	6823      	ldr	r3, [r4, #0]
 800af4e:	f043 0320 	orr.w	r3, r3, #32
 800af52:	6023      	str	r3, [r4, #0]
 800af54:	4832      	ldr	r0, [pc, #200]	@ (800b020 <_printf_i+0x238>)
 800af56:	2778      	movs	r7, #120	@ 0x78
 800af58:	f884 7045 	strb.w	r7, [r4, #69]	@ 0x45
 800af5c:	6823      	ldr	r3, [r4, #0]
 800af5e:	6831      	ldr	r1, [r6, #0]
 800af60:	061f      	lsls	r7, r3, #24
 800af62:	f851 5b04 	ldr.w	r5, [r1], #4
 800af66:	d402      	bmi.n	800af6e <_printf_i+0x186>
 800af68:	065f      	lsls	r7, r3, #25
 800af6a:	bf48      	it	mi
 800af6c:	b2ad      	uxthmi	r5, r5
 800af6e:	6031      	str	r1, [r6, #0]
 800af70:	07d9      	lsls	r1, r3, #31
 800af72:	bf44      	itt	mi
 800af74:	f043 0320 	orrmi.w	r3, r3, #32
 800af78:	6023      	strmi	r3, [r4, #0]
 800af7a:	b11d      	cbz	r5, 800af84 <_printf_i+0x19c>
 800af7c:	2310      	movs	r3, #16
 800af7e:	e7ad      	b.n	800aedc <_printf_i+0xf4>
 800af80:	4826      	ldr	r0, [pc, #152]	@ (800b01c <_printf_i+0x234>)
 800af82:	e7e9      	b.n	800af58 <_printf_i+0x170>
 800af84:	6823      	ldr	r3, [r4, #0]
 800af86:	f023 0320 	bic.w	r3, r3, #32
 800af8a:	6023      	str	r3, [r4, #0]
 800af8c:	e7f6      	b.n	800af7c <_printf_i+0x194>
 800af8e:	4616      	mov	r6, r2
 800af90:	e7bd      	b.n	800af0e <_printf_i+0x126>
 800af92:	6833      	ldr	r3, [r6, #0]
 800af94:	6825      	ldr	r5, [r4, #0]
 800af96:	6961      	ldr	r1, [r4, #20]
 800af98:	1d18      	adds	r0, r3, #4
 800af9a:	6030      	str	r0, [r6, #0]
 800af9c:	062e      	lsls	r6, r5, #24
 800af9e:	681b      	ldr	r3, [r3, #0]
 800afa0:	d501      	bpl.n	800afa6 <_printf_i+0x1be>
 800afa2:	6019      	str	r1, [r3, #0]
 800afa4:	e002      	b.n	800afac <_printf_i+0x1c4>
 800afa6:	0668      	lsls	r0, r5, #25
 800afa8:	d5fb      	bpl.n	800afa2 <_printf_i+0x1ba>
 800afaa:	8019      	strh	r1, [r3, #0]
 800afac:	2300      	movs	r3, #0
 800afae:	6123      	str	r3, [r4, #16]
 800afb0:	4616      	mov	r6, r2
 800afb2:	e7bc      	b.n	800af2e <_printf_i+0x146>
 800afb4:	6833      	ldr	r3, [r6, #0]
 800afb6:	1d1a      	adds	r2, r3, #4
 800afb8:	6032      	str	r2, [r6, #0]
 800afba:	681e      	ldr	r6, [r3, #0]
 800afbc:	6862      	ldr	r2, [r4, #4]
 800afbe:	2100      	movs	r1, #0
 800afc0:	4630      	mov	r0, r6
 800afc2:	f7f5 f90d 	bl	80001e0 <memchr>
 800afc6:	b108      	cbz	r0, 800afcc <_printf_i+0x1e4>
 800afc8:	1b80      	subs	r0, r0, r6
 800afca:	6060      	str	r0, [r4, #4]
 800afcc:	6863      	ldr	r3, [r4, #4]
 800afce:	6123      	str	r3, [r4, #16]
 800afd0:	2300      	movs	r3, #0
 800afd2:	f884 3043 	strb.w	r3, [r4, #67]	@ 0x43
 800afd6:	e7aa      	b.n	800af2e <_printf_i+0x146>
 800afd8:	6923      	ldr	r3, [r4, #16]
 800afda:	4632      	mov	r2, r6
 800afdc:	4649      	mov	r1, r9
 800afde:	4640      	mov	r0, r8
 800afe0:	47d0      	blx	sl
 800afe2:	3001      	adds	r0, #1
 800afe4:	d0ad      	beq.n	800af42 <_printf_i+0x15a>
 800afe6:	6823      	ldr	r3, [r4, #0]
 800afe8:	079b      	lsls	r3, r3, #30
 800afea:	d413      	bmi.n	800b014 <_printf_i+0x22c>
 800afec:	68e0      	ldr	r0, [r4, #12]
 800afee:	9b03      	ldr	r3, [sp, #12]
 800aff0:	4298      	cmp	r0, r3
 800aff2:	bfb8      	it	lt
 800aff4:	4618      	movlt	r0, r3
 800aff6:	e7a6      	b.n	800af46 <_printf_i+0x15e>
 800aff8:	2301      	movs	r3, #1
 800affa:	4632      	mov	r2, r6
 800affc:	4649      	mov	r1, r9
 800affe:	4640      	mov	r0, r8
 800b000:	47d0      	blx	sl
 800b002:	3001      	adds	r0, #1
 800b004:	d09d      	beq.n	800af42 <_printf_i+0x15a>
 800b006:	3501      	adds	r5, #1
 800b008:	68e3      	ldr	r3, [r4, #12]
 800b00a:	9903      	ldr	r1, [sp, #12]
 800b00c:	1a5b      	subs	r3, r3, r1
 800b00e:	42ab      	cmp	r3, r5
 800b010:	dcf2      	bgt.n	800aff8 <_printf_i+0x210>
 800b012:	e7eb      	b.n	800afec <_printf_i+0x204>
 800b014:	2500      	movs	r5, #0
 800b016:	f104 0619 	add.w	r6, r4, #25
 800b01a:	e7f5      	b.n	800b008 <_printf_i+0x220>
 800b01c:	0800bd8c 	.word	0x0800bd8c
 800b020:	0800bd9d 	.word	0x0800bd9d

0800b024 <__sflush_r>:
 800b024:	f9b1 200c 	ldrsh.w	r2, [r1, #12]
 800b028:	e92d 41f0 	stmdb	sp!, {r4, r5, r6, r7, r8, lr}
 800b02c:	0716      	lsls	r6, r2, #28
 800b02e:	4605      	mov	r5, r0
 800b030:	460c      	mov	r4, r1
 800b032:	d454      	bmi.n	800b0de <__sflush_r+0xba>
 800b034:	684b      	ldr	r3, [r1, #4]
 800b036:	2b00      	cmp	r3, #0
 800b038:	dc02      	bgt.n	800b040 <__sflush_r+0x1c>
 800b03a:	6c0b      	ldr	r3, [r1, #64]	@ 0x40
 800b03c:	2b00      	cmp	r3, #0
 800b03e:	dd48      	ble.n	800b0d2 <__sflush_r+0xae>
 800b040:	6ae6      	ldr	r6, [r4, #44]	@ 0x2c
 800b042:	2e00      	cmp	r6, #0
 800b044:	d045      	beq.n	800b0d2 <__sflush_r+0xae>
 800b046:	2300      	movs	r3, #0
 800b048:	f412 5280 	ands.w	r2, r2, #4096	@ 0x1000
 800b04c:	682f      	ldr	r7, [r5, #0]
 800b04e:	6a21      	ldr	r1, [r4, #32]
 800b050:	602b      	str	r3, [r5, #0]
 800b052:	d030      	beq.n	800b0b6 <__sflush_r+0x92>
 800b054:	6d62      	ldr	r2, [r4, #84]	@ 0x54
 800b056:	89a3      	ldrh	r3, [r4, #12]
 800b058:	0759      	lsls	r1, r3, #29
 800b05a:	d505      	bpl.n	800b068 <__sflush_r+0x44>
 800b05c:	6863      	ldr	r3, [r4, #4]
 800b05e:	1ad2      	subs	r2, r2, r3
 800b060:	6b63      	ldr	r3, [r4, #52]	@ 0x34
 800b062:	b10b      	cbz	r3, 800b068 <__sflush_r+0x44>
 800b064:	6c23      	ldr	r3, [r4, #64]	@ 0x40
 800b066:	1ad2      	subs	r2, r2, r3
 800b068:	2300      	movs	r3, #0
 800b06a:	6ae6      	ldr	r6, [r4, #44]	@ 0x2c
 800b06c:	6a21      	ldr	r1, [r4, #32]
 800b06e:	4628      	mov	r0, r5
 800b070:	47b0      	blx	r6
 800b072:	1c43      	adds	r3, r0, #1
 800b074:	89a3      	ldrh	r3, [r4, #12]
 800b076:	d106      	bne.n	800b086 <__sflush_r+0x62>
 800b078:	6829      	ldr	r1, [r5, #0]
 800b07a:	291d      	cmp	r1, #29
 800b07c:	d82b      	bhi.n	800b0d6 <__sflush_r+0xb2>
 800b07e:	4a2a      	ldr	r2, [pc, #168]	@ (800b128 <__sflush_r+0x104>)
 800b080:	40ca      	lsrs	r2, r1
 800b082:	07d6      	lsls	r6, r2, #31
 800b084:	d527      	bpl.n	800b0d6 <__sflush_r+0xb2>
 800b086:	2200      	movs	r2, #0
 800b088:	6062      	str	r2, [r4, #4]
 800b08a:	04d9      	lsls	r1, r3, #19
 800b08c:	6922      	ldr	r2, [r4, #16]
 800b08e:	6022      	str	r2, [r4, #0]
 800b090:	d504      	bpl.n	800b09c <__sflush_r+0x78>
 800b092:	1c42      	adds	r2, r0, #1
 800b094:	d101      	bne.n	800b09a <__sflush_r+0x76>
 800b096:	682b      	ldr	r3, [r5, #0]
 800b098:	b903      	cbnz	r3, 800b09c <__sflush_r+0x78>
 800b09a:	6560      	str	r0, [r4, #84]	@ 0x54
 800b09c:	6b61      	ldr	r1, [r4, #52]	@ 0x34
 800b09e:	602f      	str	r7, [r5, #0]
 800b0a0:	b1b9      	cbz	r1, 800b0d2 <__sflush_r+0xae>
 800b0a2:	f104 0344 	add.w	r3, r4, #68	@ 0x44
 800b0a6:	4299      	cmp	r1, r3
 800b0a8:	d002      	beq.n	800b0b0 <__sflush_r+0x8c>
 800b0aa:	4628      	mov	r0, r5
 800b0ac:	f7fe fbdc 	bl	8009868 <_free_r>
 800b0b0:	2300      	movs	r3, #0
 800b0b2:	6363      	str	r3, [r4, #52]	@ 0x34
 800b0b4:	e00d      	b.n	800b0d2 <__sflush_r+0xae>
 800b0b6:	2301      	movs	r3, #1
 800b0b8:	4628      	mov	r0, r5
 800b0ba:	47b0      	blx	r6
 800b0bc:	4602      	mov	r2, r0
 800b0be:	1c50      	adds	r0, r2, #1
 800b0c0:	d1c9      	bne.n	800b056 <__sflush_r+0x32>
 800b0c2:	682b      	ldr	r3, [r5, #0]
 800b0c4:	2b00      	cmp	r3, #0
 800b0c6:	d0c6      	beq.n	800b056 <__sflush_r+0x32>
 800b0c8:	2b1d      	cmp	r3, #29
 800b0ca:	d001      	beq.n	800b0d0 <__sflush_r+0xac>
 800b0cc:	2b16      	cmp	r3, #22
 800b0ce:	d11e      	bne.n	800b10e <__sflush_r+0xea>
 800b0d0:	602f      	str	r7, [r5, #0]
 800b0d2:	2000      	movs	r0, #0
 800b0d4:	e022      	b.n	800b11c <__sflush_r+0xf8>
 800b0d6:	f043 0340 	orr.w	r3, r3, #64	@ 0x40
 800b0da:	b21b      	sxth	r3, r3
 800b0dc:	e01b      	b.n	800b116 <__sflush_r+0xf2>
 800b0de:	690f      	ldr	r7, [r1, #16]
 800b0e0:	2f00      	cmp	r7, #0
 800b0e2:	d0f6      	beq.n	800b0d2 <__sflush_r+0xae>
 800b0e4:	0793      	lsls	r3, r2, #30
 800b0e6:	680e      	ldr	r6, [r1, #0]
 800b0e8:	bf08      	it	eq
 800b0ea:	694b      	ldreq	r3, [r1, #20]
 800b0ec:	600f      	str	r7, [r1, #0]
 800b0ee:	bf18      	it	ne
 800b0f0:	2300      	movne	r3, #0
 800b0f2:	eba6 0807 	sub.w	r8, r6, r7
 800b0f6:	608b      	str	r3, [r1, #8]
 800b0f8:	f1b8 0f00 	cmp.w	r8, #0
 800b0fc:	dde9      	ble.n	800b0d2 <__sflush_r+0xae>
 800b0fe:	6a21      	ldr	r1, [r4, #32]
 800b100:	6aa6      	ldr	r6, [r4, #40]	@ 0x28
 800b102:	4643      	mov	r3, r8
 800b104:	463a      	mov	r2, r7
 800b106:	4628      	mov	r0, r5
 800b108:	47b0      	blx	r6
 800b10a:	2800      	cmp	r0, #0
 800b10c:	dc08      	bgt.n	800b120 <__sflush_r+0xfc>
 800b10e:	f9b4 300c 	ldrsh.w	r3, [r4, #12]
 800b112:	f043 0340 	orr.w	r3, r3, #64	@ 0x40
 800b116:	81a3      	strh	r3, [r4, #12]
 800b118:	f04f 30ff 	mov.w	r0, #4294967295
 800b11c:	e8bd 81f0 	ldmia.w	sp!, {r4, r5, r6, r7, r8, pc}
 800b120:	4407      	add	r7, r0
 800b122:	eba8 0800 	sub.w	r8, r8, r0
 800b126:	e7e7      	b.n	800b0f8 <__sflush_r+0xd4>
 800b128:	20400001 	.word	0x20400001

0800b12c <_fflush_r>:
 800b12c:	b538      	push	{r3, r4, r5, lr}
 800b12e:	690b      	ldr	r3, [r1, #16]
 800b130:	4605      	mov	r5, r0
 800b132:	460c      	mov	r4, r1
 800b134:	b913      	cbnz	r3, 800b13c <_fflush_r+0x10>
 800b136:	2500      	movs	r5, #0
 800b138:	4628      	mov	r0, r5
 800b13a:	bd38      	pop	{r3, r4, r5, pc}
 800b13c:	b118      	cbz	r0, 800b146 <_fflush_r+0x1a>
 800b13e:	6a03      	ldr	r3, [r0, #32]
 800b140:	b90b      	cbnz	r3, 800b146 <_fflush_r+0x1a>
 800b142:	f7fe f9f5 	bl	8009530 <__sinit>
 800b146:	f9b4 300c 	ldrsh.w	r3, [r4, #12]
 800b14a:	2b00      	cmp	r3, #0
 800b14c:	d0f3      	beq.n	800b136 <_fflush_r+0xa>
 800b14e:	6e62      	ldr	r2, [r4, #100]	@ 0x64
 800b150:	07d0      	lsls	r0, r2, #31
 800b152:	d404      	bmi.n	800b15e <_fflush_r+0x32>
 800b154:	0599      	lsls	r1, r3, #22
 800b156:	d402      	bmi.n	800b15e <_fflush_r+0x32>
 800b158:	6da0      	ldr	r0, [r4, #88]	@ 0x58
 800b15a:	f7fe fb6a 	bl	8009832 <__retarget_lock_acquire_recursive>
 800b15e:	4628      	mov	r0, r5
 800b160:	4621      	mov	r1, r4
 800b162:	f7ff ff5f 	bl	800b024 <__sflush_r>
 800b166:	6e63      	ldr	r3, [r4, #100]	@ 0x64
 800b168:	07da      	lsls	r2, r3, #31
 800b16a:	4605      	mov	r5, r0
 800b16c:	d4e4      	bmi.n	800b138 <_fflush_r+0xc>
 800b16e:	89a3      	ldrh	r3, [r4, #12]
 800b170:	059b      	lsls	r3, r3, #22
 800b172:	d4e1      	bmi.n	800b138 <_fflush_r+0xc>
 800b174:	6da0      	ldr	r0, [r4, #88]	@ 0x58
 800b176:	f7fe fb5d 	bl	8009834 <__retarget_lock_release_recursive>
 800b17a:	e7dd      	b.n	800b138 <_fflush_r+0xc>

0800b17c <_sbrk_r>:
 800b17c:	b538      	push	{r3, r4, r5, lr}
 800b17e:	4d06      	ldr	r5, [pc, #24]	@ (800b198 <_sbrk_r+0x1c>)
 800b180:	2300      	movs	r3, #0
 800b182:	4604      	mov	r4, r0
 800b184:	4608      	mov	r0, r1
 800b186:	602b      	str	r3, [r5, #0]
 800b188:	f7f6 fc24 	bl	80019d4 <_sbrk>
 800b18c:	1c43      	adds	r3, r0, #1
 800b18e:	d102      	bne.n	800b196 <_sbrk_r+0x1a>
 800b190:	682b      	ldr	r3, [r5, #0]
 800b192:	b103      	cbz	r3, 800b196 <_sbrk_r+0x1a>
 800b194:	6023      	str	r3, [r4, #0]
 800b196:	bd38      	pop	{r3, r4, r5, pc}
 800b198:	200008b0 	.word	0x200008b0

0800b19c <__assert_func>:
 800b19c:	b51f      	push	{r0, r1, r2, r3, r4, lr}
 800b19e:	4614      	mov	r4, r2
 800b1a0:	461a      	mov	r2, r3
 800b1a2:	4b09      	ldr	r3, [pc, #36]	@ (800b1c8 <__assert_func+0x2c>)
 800b1a4:	681b      	ldr	r3, [r3, #0]
 800b1a6:	4605      	mov	r5, r0
 800b1a8:	68d8      	ldr	r0, [r3, #12]
 800b1aa:	b14c      	cbz	r4, 800b1c0 <__assert_func+0x24>
 800b1ac:	4b07      	ldr	r3, [pc, #28]	@ (800b1cc <__assert_func+0x30>)
 800b1ae:	9100      	str	r1, [sp, #0]
 800b1b0:	e9cd 3401 	strd	r3, r4, [sp, #4]
 800b1b4:	4906      	ldr	r1, [pc, #24]	@ (800b1d0 <__assert_func+0x34>)
 800b1b6:	462b      	mov	r3, r5
 800b1b8:	f000 f858 	bl	800b26c <fiprintf>
 800b1bc:	f000 f868 	bl	800b290 <abort>
 800b1c0:	4b04      	ldr	r3, [pc, #16]	@ (800b1d4 <__assert_func+0x38>)
 800b1c2:	461c      	mov	r4, r3
 800b1c4:	e7f3      	b.n	800b1ae <__assert_func+0x12>
 800b1c6:	bf00      	nop
 800b1c8:	200001c0 	.word	0x200001c0
 800b1cc:	0800bdae 	.word	0x0800bdae
 800b1d0:	0800bdbb 	.word	0x0800bdbb
 800b1d4:	0800ba85 	.word	0x0800ba85

0800b1d8 <_calloc_r>:
 800b1d8:	b570      	push	{r4, r5, r6, lr}
 800b1da:	fba1 5402 	umull	r5, r4, r1, r2
 800b1de:	b934      	cbnz	r4, 800b1ee <_calloc_r+0x16>
 800b1e0:	4629      	mov	r1, r5
 800b1e2:	f7fe fee7 	bl	8009fb4 <_malloc_r>
 800b1e6:	4606      	mov	r6, r0
 800b1e8:	b928      	cbnz	r0, 800b1f6 <_calloc_r+0x1e>
 800b1ea:	4630      	mov	r0, r6
 800b1ec:	bd70      	pop	{r4, r5, r6, pc}
 800b1ee:	220c      	movs	r2, #12
 800b1f0:	6002      	str	r2, [r0, #0]
 800b1f2:	2600      	movs	r6, #0
 800b1f4:	e7f9      	b.n	800b1ea <_calloc_r+0x12>
 800b1f6:	462a      	mov	r2, r5
 800b1f8:	4621      	mov	r1, r4
 800b1fa:	f7fe fa62 	bl	80096c2 <memset>
 800b1fe:	e7f4      	b.n	800b1ea <_calloc_r+0x12>

0800b200 <malloc>:
 800b200:	4b02      	ldr	r3, [pc, #8]	@ (800b20c <malloc+0xc>)
 800b202:	4601      	mov	r1, r0
 800b204:	6818      	ldr	r0, [r3, #0]
 800b206:	f7fe bed5 	b.w	8009fb4 <_malloc_r>
 800b20a:	bf00      	nop
 800b20c:	200001c0 	.word	0x200001c0

0800b210 <_realloc_r>:
 800b210:	e92d 41f0 	stmdb	sp!, {r4, r5, r6, r7, r8, lr}
 800b214:	4607      	mov	r7, r0
 800b216:	4614      	mov	r4, r2
 800b218:	460d      	mov	r5, r1
 800b21a:	b921      	cbnz	r1, 800b226 <_realloc_r+0x16>
 800b21c:	e8bd 41f0 	ldmia.w	sp!, {r4, r5, r6, r7, r8, lr}
 800b220:	4611      	mov	r1, r2
 800b222:	f7fe bec7 	b.w	8009fb4 <_malloc_r>
 800b226:	b92a      	cbnz	r2, 800b234 <_realloc_r+0x24>
 800b228:	f7fe fb1e 	bl	8009868 <_free_r>
 800b22c:	4625      	mov	r5, r4
 800b22e:	4628      	mov	r0, r5
 800b230:	e8bd 81f0 	ldmia.w	sp!, {r4, r5, r6, r7, r8, pc}
 800b234:	f000 f833 	bl	800b29e <_malloc_usable_size_r>
 800b238:	4284      	cmp	r4, r0
 800b23a:	4606      	mov	r6, r0
 800b23c:	d802      	bhi.n	800b244 <_realloc_r+0x34>
 800b23e:	ebb4 0f50 	cmp.w	r4, r0, lsr #1
 800b242:	d8f4      	bhi.n	800b22e <_realloc_r+0x1e>
 800b244:	4621      	mov	r1, r4
 800b246:	4638      	mov	r0, r7
 800b248:	f7fe feb4 	bl	8009fb4 <_malloc_r>
 800b24c:	4680      	mov	r8, r0
 800b24e:	b908      	cbnz	r0, 800b254 <_realloc_r+0x44>
 800b250:	4645      	mov	r5, r8
 800b252:	e7ec      	b.n	800b22e <_realloc_r+0x1e>
 800b254:	42b4      	cmp	r4, r6
 800b256:	4622      	mov	r2, r4
 800b258:	4629      	mov	r1, r5
 800b25a:	bf28      	it	cs
 800b25c:	4632      	movcs	r2, r6
 800b25e:	f7fe faea 	bl	8009836 <memcpy>
 800b262:	4629      	mov	r1, r5
 800b264:	4638      	mov	r0, r7
 800b266:	f7fe faff 	bl	8009868 <_free_r>
 800b26a:	e7f1      	b.n	800b250 <_realloc_r+0x40>

0800b26c <fiprintf>:
 800b26c:	b40e      	push	{r1, r2, r3}
 800b26e:	b503      	push	{r0, r1, lr}
 800b270:	4601      	mov	r1, r0
 800b272:	ab03      	add	r3, sp, #12
 800b274:	4805      	ldr	r0, [pc, #20]	@ (800b28c <fiprintf+0x20>)
 800b276:	f853 2b04 	ldr.w	r2, [r3], #4
 800b27a:	6800      	ldr	r0, [r0, #0]
 800b27c:	9301      	str	r3, [sp, #4]
 800b27e:	f000 f83f 	bl	800b300 <_vfiprintf_r>
 800b282:	b002      	add	sp, #8
 800b284:	f85d eb04 	ldr.w	lr, [sp], #4
 800b288:	b003      	add	sp, #12
 800b28a:	4770      	bx	lr
 800b28c:	200001c0 	.word	0x200001c0

0800b290 <abort>:
 800b290:	b508      	push	{r3, lr}
 800b292:	2006      	movs	r0, #6
 800b294:	f000 fa08 	bl	800b6a8 <raise>
 800b298:	2001      	movs	r0, #1
 800b29a:	f7f6 fb6d 	bl	8001978 <_exit>

0800b29e <_malloc_usable_size_r>:
 800b29e:	f851 3c04 	ldr.w	r3, [r1, #-4]
 800b2a2:	1f18      	subs	r0, r3, #4
 800b2a4:	2b00      	cmp	r3, #0
 800b2a6:	bfbc      	itt	lt
 800b2a8:	580b      	ldrlt	r3, [r1, r0]
 800b2aa:	18c0      	addlt	r0, r0, r3
 800b2ac:	4770      	bx	lr

0800b2ae <__sfputc_r>:
 800b2ae:	6893      	ldr	r3, [r2, #8]
 800b2b0:	3b01      	subs	r3, #1
 800b2b2:	2b00      	cmp	r3, #0
 800b2b4:	b410      	push	{r4}
 800b2b6:	6093      	str	r3, [r2, #8]
 800b2b8:	da08      	bge.n	800b2cc <__sfputc_r+0x1e>
 800b2ba:	6994      	ldr	r4, [r2, #24]
 800b2bc:	42a3      	cmp	r3, r4
 800b2be:	db01      	blt.n	800b2c4 <__sfputc_r+0x16>
 800b2c0:	290a      	cmp	r1, #10
 800b2c2:	d103      	bne.n	800b2cc <__sfputc_r+0x1e>
 800b2c4:	f85d 4b04 	ldr.w	r4, [sp], #4
 800b2c8:	f000 b932 	b.w	800b530 <__swbuf_r>
 800b2cc:	6813      	ldr	r3, [r2, #0]
 800b2ce:	1c58      	adds	r0, r3, #1
 800b2d0:	6010      	str	r0, [r2, #0]
 800b2d2:	7019      	strb	r1, [r3, #0]
 800b2d4:	4608      	mov	r0, r1
 800b2d6:	f85d 4b04 	ldr.w	r4, [sp], #4
 800b2da:	4770      	bx	lr

0800b2dc <__sfputs_r>:
 800b2dc:	b5f8      	push	{r3, r4, r5, r6, r7, lr}
 800b2de:	4606      	mov	r6, r0
 800b2e0:	460f      	mov	r7, r1
 800b2e2:	4614      	mov	r4, r2
 800b2e4:	18d5      	adds	r5, r2, r3
 800b2e6:	42ac      	cmp	r4, r5
 800b2e8:	d101      	bne.n	800b2ee <__sfputs_r+0x12>
 800b2ea:	2000      	movs	r0, #0
 800b2ec:	e007      	b.n	800b2fe <__sfputs_r+0x22>
 800b2ee:	f814 1b01 	ldrb.w	r1, [r4], #1
 800b2f2:	463a      	mov	r2, r7
 800b2f4:	4630      	mov	r0, r6
 800b2f6:	f7ff ffda 	bl	800b2ae <__sfputc_r>
 800b2fa:	1c43      	adds	r3, r0, #1
 800b2fc:	d1f3      	bne.n	800b2e6 <__sfputs_r+0xa>
 800b2fe:	bdf8      	pop	{r3, r4, r5, r6, r7, pc}

0800b300 <_vfiprintf_r>:
 800b300:	e92d 4ff0 	stmdb	sp!, {r4, r5, r6, r7, r8, r9, sl, fp, lr}
 800b304:	460d      	mov	r5, r1
 800b306:	b09d      	sub	sp, #116	@ 0x74
 800b308:	4614      	mov	r4, r2
 800b30a:	4698      	mov	r8, r3
 800b30c:	4606      	mov	r6, r0
 800b30e:	b118      	cbz	r0, 800b318 <_vfiprintf_r+0x18>
 800b310:	6a03      	ldr	r3, [r0, #32]
 800b312:	b90b      	cbnz	r3, 800b318 <_vfiprintf_r+0x18>
 800b314:	f7fe f90c 	bl	8009530 <__sinit>
 800b318:	6e6b      	ldr	r3, [r5, #100]	@ 0x64
 800b31a:	07d9      	lsls	r1, r3, #31
 800b31c:	d405      	bmi.n	800b32a <_vfiprintf_r+0x2a>
 800b31e:	89ab      	ldrh	r3, [r5, #12]
 800b320:	059a      	lsls	r2, r3, #22
 800b322:	d402      	bmi.n	800b32a <_vfiprintf_r+0x2a>
 800b324:	6da8      	ldr	r0, [r5, #88]	@ 0x58
 800b326:	f7fe fa84 	bl	8009832 <__retarget_lock_acquire_recursive>
 800b32a:	89ab      	ldrh	r3, [r5, #12]
 800b32c:	071b      	lsls	r3, r3, #28
 800b32e:	d501      	bpl.n	800b334 <_vfiprintf_r+0x34>
 800b330:	692b      	ldr	r3, [r5, #16]
 800b332:	b99b      	cbnz	r3, 800b35c <_vfiprintf_r+0x5c>
 800b334:	4629      	mov	r1, r5
 800b336:	4630      	mov	r0, r6
 800b338:	f000 f938 	bl	800b5ac <__swsetup_r>
 800b33c:	b170      	cbz	r0, 800b35c <_vfiprintf_r+0x5c>
 800b33e:	6e6b      	ldr	r3, [r5, #100]	@ 0x64
 800b340:	07dc      	lsls	r4, r3, #31
 800b342:	d504      	bpl.n	800b34e <_vfiprintf_r+0x4e>
 800b344:	f04f 30ff 	mov.w	r0, #4294967295
 800b348:	b01d      	add	sp, #116	@ 0x74
 800b34a:	e8bd 8ff0 	ldmia.w	sp!, {r4, r5, r6, r7, r8, r9, sl, fp, pc}
 800b34e:	89ab      	ldrh	r3, [r5, #12]
 800b350:	0598      	lsls	r0, r3, #22
 800b352:	d4f7      	bmi.n	800b344 <_vfiprintf_r+0x44>
 800b354:	6da8      	ldr	r0, [r5, #88]	@ 0x58
 800b356:	f7fe fa6d 	bl	8009834 <__retarget_lock_release_recursive>
 800b35a:	e7f3      	b.n	800b344 <_vfiprintf_r+0x44>
 800b35c:	2300      	movs	r3, #0
 800b35e:	9309      	str	r3, [sp, #36]	@ 0x24
 800b360:	2320      	movs	r3, #32
 800b362:	f88d 3029 	strb.w	r3, [sp, #41]	@ 0x29
 800b366:	f8cd 800c 	str.w	r8, [sp, #12]
 800b36a:	2330      	movs	r3, #48	@ 0x30
 800b36c:	f8df 81ac 	ldr.w	r8, [pc, #428]	@ 800b51c <_vfiprintf_r+0x21c>
 800b370:	f88d 302a 	strb.w	r3, [sp, #42]	@ 0x2a
 800b374:	f04f 0901 	mov.w	r9, #1
 800b378:	4623      	mov	r3, r4
 800b37a:	469a      	mov	sl, r3
 800b37c:	f813 2b01 	ldrb.w	r2, [r3], #1
 800b380:	b10a      	cbz	r2, 800b386 <_vfiprintf_r+0x86>
 800b382:	2a25      	cmp	r2, #37	@ 0x25
 800b384:	d1f9      	bne.n	800b37a <_vfiprintf_r+0x7a>
 800b386:	ebba 0b04 	subs.w	fp, sl, r4
 800b38a:	d00b      	beq.n	800b3a4 <_vfiprintf_r+0xa4>
 800b38c:	465b      	mov	r3, fp
 800b38e:	4622      	mov	r2, r4
 800b390:	4629      	mov	r1, r5
 800b392:	4630      	mov	r0, r6
 800b394:	f7ff ffa2 	bl	800b2dc <__sfputs_r>
 800b398:	3001      	adds	r0, #1
 800b39a:	f000 80a7 	beq.w	800b4ec <_vfiprintf_r+0x1ec>
 800b39e:	9a09      	ldr	r2, [sp, #36]	@ 0x24
 800b3a0:	445a      	add	r2, fp
 800b3a2:	9209      	str	r2, [sp, #36]	@ 0x24
 800b3a4:	f89a 3000 	ldrb.w	r3, [sl]
 800b3a8:	2b00      	cmp	r3, #0
 800b3aa:	f000 809f 	beq.w	800b4ec <_vfiprintf_r+0x1ec>
 800b3ae:	2300      	movs	r3, #0
 800b3b0:	f04f 32ff 	mov.w	r2, #4294967295
 800b3b4:	e9cd 2305 	strd	r2, r3, [sp, #20]
 800b3b8:	f10a 0a01 	add.w	sl, sl, #1
 800b3bc:	9304      	str	r3, [sp, #16]
 800b3be:	9307      	str	r3, [sp, #28]
 800b3c0:	f88d 3053 	strb.w	r3, [sp, #83]	@ 0x53
 800b3c4:	931a      	str	r3, [sp, #104]	@ 0x68
 800b3c6:	4654      	mov	r4, sl
 800b3c8:	2205      	movs	r2, #5
 800b3ca:	f814 1b01 	ldrb.w	r1, [r4], #1
 800b3ce:	4853      	ldr	r0, [pc, #332]	@ (800b51c <_vfiprintf_r+0x21c>)
 800b3d0:	f7f4 ff06 	bl	80001e0 <memchr>
 800b3d4:	9a04      	ldr	r2, [sp, #16]
 800b3d6:	b9d8      	cbnz	r0, 800b410 <_vfiprintf_r+0x110>
 800b3d8:	06d1      	lsls	r1, r2, #27
 800b3da:	bf44      	itt	mi
 800b3dc:	2320      	movmi	r3, #32
 800b3de:	f88d 3053 	strbmi.w	r3, [sp, #83]	@ 0x53
 800b3e2:	0713      	lsls	r3, r2, #28
 800b3e4:	bf44      	itt	mi
 800b3e6:	232b      	movmi	r3, #43	@ 0x2b
 800b3e8:	f88d 3053 	strbmi.w	r3, [sp, #83]	@ 0x53
 800b3ec:	f89a 3000 	ldrb.w	r3, [sl]
 800b3f0:	2b2a      	cmp	r3, #42	@ 0x2a
 800b3f2:	d015      	beq.n	800b420 <_vfiprintf_r+0x120>
 800b3f4:	9a07      	ldr	r2, [sp, #28]
 800b3f6:	4654      	mov	r4, sl
 800b3f8:	2000      	movs	r0, #0
 800b3fa:	f04f 0c0a 	mov.w	ip, #10
 800b3fe:	4621      	mov	r1, r4
 800b400:	f811 3b01 	ldrb.w	r3, [r1], #1
 800b404:	3b30      	subs	r3, #48	@ 0x30
 800b406:	2b09      	cmp	r3, #9
 800b408:	d94b      	bls.n	800b4a2 <_vfiprintf_r+0x1a2>
 800b40a:	b1b0      	cbz	r0, 800b43a <_vfiprintf_r+0x13a>
 800b40c:	9207      	str	r2, [sp, #28]
 800b40e:	e014      	b.n	800b43a <_vfiprintf_r+0x13a>
 800b410:	eba0 0308 	sub.w	r3, r0, r8
 800b414:	fa09 f303 	lsl.w	r3, r9, r3
 800b418:	4313      	orrs	r3, r2
 800b41a:	9304      	str	r3, [sp, #16]
 800b41c:	46a2      	mov	sl, r4
 800b41e:	e7d2      	b.n	800b3c6 <_vfiprintf_r+0xc6>
 800b420:	9b03      	ldr	r3, [sp, #12]
 800b422:	1d19      	adds	r1, r3, #4
 800b424:	681b      	ldr	r3, [r3, #0]
 800b426:	9103      	str	r1, [sp, #12]
 800b428:	2b00      	cmp	r3, #0
 800b42a:	bfbb      	ittet	lt
 800b42c:	425b      	neglt	r3, r3
 800b42e:	f042 0202 	orrlt.w	r2, r2, #2
 800b432:	9307      	strge	r3, [sp, #28]
 800b434:	9307      	strlt	r3, [sp, #28]
 800b436:	bfb8      	it	lt
 800b438:	9204      	strlt	r2, [sp, #16]
 800b43a:	7823      	ldrb	r3, [r4, #0]
 800b43c:	2b2e      	cmp	r3, #46	@ 0x2e
 800b43e:	d10a      	bne.n	800b456 <_vfiprintf_r+0x156>
 800b440:	7863      	ldrb	r3, [r4, #1]
 800b442:	2b2a      	cmp	r3, #42	@ 0x2a
 800b444:	d132      	bne.n	800b4ac <_vfiprintf_r+0x1ac>
 800b446:	9b03      	ldr	r3, [sp, #12]
 800b448:	1d1a      	adds	r2, r3, #4
 800b44a:	681b      	ldr	r3, [r3, #0]
 800b44c:	9203      	str	r2, [sp, #12]
 800b44e:	ea43 73e3 	orr.w	r3, r3, r3, asr #31
 800b452:	3402      	adds	r4, #2
 800b454:	9305      	str	r3, [sp, #20]
 800b456:	f8df a0d4 	ldr.w	sl, [pc, #212]	@ 800b52c <_vfiprintf_r+0x22c>
 800b45a:	7821      	ldrb	r1, [r4, #0]
 800b45c:	2203      	movs	r2, #3
 800b45e:	4650      	mov	r0, sl
 800b460:	f7f4 febe 	bl	80001e0 <memchr>
 800b464:	b138      	cbz	r0, 800b476 <_vfiprintf_r+0x176>
 800b466:	9b04      	ldr	r3, [sp, #16]
 800b468:	eba0 000a 	sub.w	r0, r0, sl
 800b46c:	2240      	movs	r2, #64	@ 0x40
 800b46e:	4082      	lsls	r2, r0
 800b470:	4313      	orrs	r3, r2
 800b472:	3401      	adds	r4, #1
 800b474:	9304      	str	r3, [sp, #16]
 800b476:	f814 1b01 	ldrb.w	r1, [r4], #1
 800b47a:	4829      	ldr	r0, [pc, #164]	@ (800b520 <_vfiprintf_r+0x220>)
 800b47c:	f88d 1028 	strb.w	r1, [sp, #40]	@ 0x28
 800b480:	2206      	movs	r2, #6
 800b482:	f7f4 fead 	bl	80001e0 <memchr>
 800b486:	2800      	cmp	r0, #0
 800b488:	d03f      	beq.n	800b50a <_vfiprintf_r+0x20a>
 800b48a:	4b26      	ldr	r3, [pc, #152]	@ (800b524 <_vfiprintf_r+0x224>)
 800b48c:	bb1b      	cbnz	r3, 800b4d6 <_vfiprintf_r+0x1d6>
 800b48e:	9b03      	ldr	r3, [sp, #12]
 800b490:	3307      	adds	r3, #7
 800b492:	f023 0307 	bic.w	r3, r3, #7
 800b496:	3308      	adds	r3, #8
 800b498:	9303      	str	r3, [sp, #12]
 800b49a:	9b09      	ldr	r3, [sp, #36]	@ 0x24
 800b49c:	443b      	add	r3, r7
 800b49e:	9309      	str	r3, [sp, #36]	@ 0x24
 800b4a0:	e76a      	b.n	800b378 <_vfiprintf_r+0x78>
 800b4a2:	fb0c 3202 	mla	r2, ip, r2, r3
 800b4a6:	460c      	mov	r4, r1
 800b4a8:	2001      	movs	r0, #1
 800b4aa:	e7a8      	b.n	800b3fe <_vfiprintf_r+0xfe>
 800b4ac:	2300      	movs	r3, #0
 800b4ae:	3401      	adds	r4, #1
 800b4b0:	9305      	str	r3, [sp, #20]
 800b4b2:	4619      	mov	r1, r3
 800b4b4:	f04f 0c0a 	mov.w	ip, #10
 800b4b8:	4620      	mov	r0, r4
 800b4ba:	f810 2b01 	ldrb.w	r2, [r0], #1
 800b4be:	3a30      	subs	r2, #48	@ 0x30
 800b4c0:	2a09      	cmp	r2, #9
 800b4c2:	d903      	bls.n	800b4cc <_vfiprintf_r+0x1cc>
 800b4c4:	2b00      	cmp	r3, #0
 800b4c6:	d0c6      	beq.n	800b456 <_vfiprintf_r+0x156>
 800b4c8:	9105      	str	r1, [sp, #20]
 800b4ca:	e7c4      	b.n	800b456 <_vfiprintf_r+0x156>
 800b4cc:	fb0c 2101 	mla	r1, ip, r1, r2
 800b4d0:	4604      	mov	r4, r0
 800b4d2:	2301      	movs	r3, #1
 800b4d4:	e7f0      	b.n	800b4b8 <_vfiprintf_r+0x1b8>
 800b4d6:	ab03      	add	r3, sp, #12
 800b4d8:	9300      	str	r3, [sp, #0]
 800b4da:	462a      	mov	r2, r5
 800b4dc:	4b12      	ldr	r3, [pc, #72]	@ (800b528 <_vfiprintf_r+0x228>)
 800b4de:	a904      	add	r1, sp, #16
 800b4e0:	4630      	mov	r0, r6
 800b4e2:	f3af 8000 	nop.w
 800b4e6:	4607      	mov	r7, r0
 800b4e8:	1c78      	adds	r0, r7, #1
 800b4ea:	d1d6      	bne.n	800b49a <_vfiprintf_r+0x19a>
 800b4ec:	6e6b      	ldr	r3, [r5, #100]	@ 0x64
 800b4ee:	07d9      	lsls	r1, r3, #31
 800b4f0:	d405      	bmi.n	800b4fe <_vfiprintf_r+0x1fe>
 800b4f2:	89ab      	ldrh	r3, [r5, #12]
 800b4f4:	059a      	lsls	r2, r3, #22
 800b4f6:	d402      	bmi.n	800b4fe <_vfiprintf_r+0x1fe>
 800b4f8:	6da8      	ldr	r0, [r5, #88]	@ 0x58
 800b4fa:	f7fe f99b 	bl	8009834 <__retarget_lock_release_recursive>
 800b4fe:	89ab      	ldrh	r3, [r5, #12]
 800b500:	065b      	lsls	r3, r3, #25
 800b502:	f53f af1f 	bmi.w	800b344 <_vfiprintf_r+0x44>
 800b506:	9809      	ldr	r0, [sp, #36]	@ 0x24
 800b508:	e71e      	b.n	800b348 <_vfiprintf_r+0x48>
 800b50a:	ab03      	add	r3, sp, #12
 800b50c:	9300      	str	r3, [sp, #0]
 800b50e:	462a      	mov	r2, r5
 800b510:	4b05      	ldr	r3, [pc, #20]	@ (800b528 <_vfiprintf_r+0x228>)
 800b512:	a904      	add	r1, sp, #16
 800b514:	4630      	mov	r0, r6
 800b516:	f7ff fc67 	bl	800ade8 <_printf_i>
 800b51a:	e7e4      	b.n	800b4e6 <_vfiprintf_r+0x1e6>
 800b51c:	0800bd7b 	.word	0x0800bd7b
 800b520:	0800bd85 	.word	0x0800bd85
 800b524:	00000000 	.word	0x00000000
 800b528:	0800b2dd 	.word	0x0800b2dd
 800b52c:	0800bd81 	.word	0x0800bd81

0800b530 <__swbuf_r>:
 800b530:	b5f8      	push	{r3, r4, r5, r6, r7, lr}
 800b532:	460e      	mov	r6, r1
 800b534:	4614      	mov	r4, r2
 800b536:	4605      	mov	r5, r0
 800b538:	b118      	cbz	r0, 800b542 <__swbuf_r+0x12>
 800b53a:	6a03      	ldr	r3, [r0, #32]
 800b53c:	b90b      	cbnz	r3, 800b542 <__swbuf_r+0x12>
 800b53e:	f7fd fff7 	bl	8009530 <__sinit>
 800b542:	69a3      	ldr	r3, [r4, #24]
 800b544:	60a3      	str	r3, [r4, #8]
 800b546:	89a3      	ldrh	r3, [r4, #12]
 800b548:	071a      	lsls	r2, r3, #28
 800b54a:	d501      	bpl.n	800b550 <__swbuf_r+0x20>
 800b54c:	6923      	ldr	r3, [r4, #16]
 800b54e:	b943      	cbnz	r3, 800b562 <__swbuf_r+0x32>
 800b550:	4621      	mov	r1, r4
 800b552:	4628      	mov	r0, r5
 800b554:	f000 f82a 	bl	800b5ac <__swsetup_r>
 800b558:	b118      	cbz	r0, 800b562 <__swbuf_r+0x32>
 800b55a:	f04f 37ff 	mov.w	r7, #4294967295
 800b55e:	4638      	mov	r0, r7
 800b560:	bdf8      	pop	{r3, r4, r5, r6, r7, pc}
 800b562:	6823      	ldr	r3, [r4, #0]
 800b564:	6922      	ldr	r2, [r4, #16]
 800b566:	1a98      	subs	r0, r3, r2
 800b568:	6963      	ldr	r3, [r4, #20]
 800b56a:	b2f6      	uxtb	r6, r6
 800b56c:	4283      	cmp	r3, r0
 800b56e:	4637      	mov	r7, r6
 800b570:	dc05      	bgt.n	800b57e <__swbuf_r+0x4e>
 800b572:	4621      	mov	r1, r4
 800b574:	4628      	mov	r0, r5
 800b576:	f7ff fdd9 	bl	800b12c <_fflush_r>
 800b57a:	2800      	cmp	r0, #0
 800b57c:	d1ed      	bne.n	800b55a <__swbuf_r+0x2a>
 800b57e:	68a3      	ldr	r3, [r4, #8]
 800b580:	3b01      	subs	r3, #1
 800b582:	60a3      	str	r3, [r4, #8]
 800b584:	6823      	ldr	r3, [r4, #0]
 800b586:	1c5a      	adds	r2, r3, #1
 800b588:	6022      	str	r2, [r4, #0]
 800b58a:	701e      	strb	r6, [r3, #0]
 800b58c:	6962      	ldr	r2, [r4, #20]
 800b58e:	1c43      	adds	r3, r0, #1
 800b590:	429a      	cmp	r2, r3
 800b592:	d004      	beq.n	800b59e <__swbuf_r+0x6e>
 800b594:	89a3      	ldrh	r3, [r4, #12]
 800b596:	07db      	lsls	r3, r3, #31
 800b598:	d5e1      	bpl.n	800b55e <__swbuf_r+0x2e>
 800b59a:	2e0a      	cmp	r6, #10
 800b59c:	d1df      	bne.n	800b55e <__swbuf_r+0x2e>
 800b59e:	4621      	mov	r1, r4
 800b5a0:	4628      	mov	r0, r5
 800b5a2:	f7ff fdc3 	bl	800b12c <_fflush_r>
 800b5a6:	2800      	cmp	r0, #0
 800b5a8:	d0d9      	beq.n	800b55e <__swbuf_r+0x2e>
 800b5aa:	e7d6      	b.n	800b55a <__swbuf_r+0x2a>

0800b5ac <__swsetup_r>:
 800b5ac:	b538      	push	{r3, r4, r5, lr}
 800b5ae:	4b29      	ldr	r3, [pc, #164]	@ (800b654 <__swsetup_r+0xa8>)
 800b5b0:	4605      	mov	r5, r0
 800b5b2:	6818      	ldr	r0, [r3, #0]
 800b5b4:	460c      	mov	r4, r1
 800b5b6:	b118      	cbz	r0, 800b5c0 <__swsetup_r+0x14>
 800b5b8:	6a03      	ldr	r3, [r0, #32]
 800b5ba:	b90b      	cbnz	r3, 800b5c0 <__swsetup_r+0x14>
 800b5bc:	f7fd ffb8 	bl	8009530 <__sinit>
 800b5c0:	f9b4 300c 	ldrsh.w	r3, [r4, #12]
 800b5c4:	0719      	lsls	r1, r3, #28
 800b5c6:	d422      	bmi.n	800b60e <__swsetup_r+0x62>
 800b5c8:	06da      	lsls	r2, r3, #27
 800b5ca:	d407      	bmi.n	800b5dc <__swsetup_r+0x30>
 800b5cc:	2209      	movs	r2, #9
 800b5ce:	602a      	str	r2, [r5, #0]
 800b5d0:	f043 0340 	orr.w	r3, r3, #64	@ 0x40
 800b5d4:	81a3      	strh	r3, [r4, #12]
 800b5d6:	f04f 30ff 	mov.w	r0, #4294967295
 800b5da:	e033      	b.n	800b644 <__swsetup_r+0x98>
 800b5dc:	0758      	lsls	r0, r3, #29
 800b5de:	d512      	bpl.n	800b606 <__swsetup_r+0x5a>
 800b5e0:	6b61      	ldr	r1, [r4, #52]	@ 0x34
 800b5e2:	b141      	cbz	r1, 800b5f6 <__swsetup_r+0x4a>
 800b5e4:	f104 0344 	add.w	r3, r4, #68	@ 0x44
 800b5e8:	4299      	cmp	r1, r3
 800b5ea:	d002      	beq.n	800b5f2 <__swsetup_r+0x46>
 800b5ec:	4628      	mov	r0, r5
 800b5ee:	f7fe f93b 	bl	8009868 <_free_r>
 800b5f2:	2300      	movs	r3, #0
 800b5f4:	6363      	str	r3, [r4, #52]	@ 0x34
 800b5f6:	89a3      	ldrh	r3, [r4, #12]
 800b5f8:	f023 0324 	bic.w	r3, r3, #36	@ 0x24
 800b5fc:	81a3      	strh	r3, [r4, #12]
 800b5fe:	2300      	movs	r3, #0
 800b600:	6063      	str	r3, [r4, #4]
 800b602:	6923      	ldr	r3, [r4, #16]
 800b604:	6023      	str	r3, [r4, #0]
 800b606:	89a3      	ldrh	r3, [r4, #12]
 800b608:	f043 0308 	orr.w	r3, r3, #8
 800b60c:	81a3      	strh	r3, [r4, #12]
 800b60e:	6923      	ldr	r3, [r4, #16]
 800b610:	b94b      	cbnz	r3, 800b626 <__swsetup_r+0x7a>
 800b612:	89a3      	ldrh	r3, [r4, #12]
 800b614:	f403 7320 	and.w	r3, r3, #640	@ 0x280
 800b618:	f5b3 7f00 	cmp.w	r3, #512	@ 0x200
 800b61c:	d003      	beq.n	800b626 <__swsetup_r+0x7a>
 800b61e:	4621      	mov	r1, r4
 800b620:	4628      	mov	r0, r5
 800b622:	f000 f883 	bl	800b72c <__smakebuf_r>
 800b626:	f9b4 300c 	ldrsh.w	r3, [r4, #12]
 800b62a:	f013 0201 	ands.w	r2, r3, #1
 800b62e:	d00a      	beq.n	800b646 <__swsetup_r+0x9a>
 800b630:	2200      	movs	r2, #0
 800b632:	60a2      	str	r2, [r4, #8]
 800b634:	6962      	ldr	r2, [r4, #20]
 800b636:	4252      	negs	r2, r2
 800b638:	61a2      	str	r2, [r4, #24]
 800b63a:	6922      	ldr	r2, [r4, #16]
 800b63c:	b942      	cbnz	r2, 800b650 <__swsetup_r+0xa4>
 800b63e:	f013 0080 	ands.w	r0, r3, #128	@ 0x80
 800b642:	d1c5      	bne.n	800b5d0 <__swsetup_r+0x24>
 800b644:	bd38      	pop	{r3, r4, r5, pc}
 800b646:	0799      	lsls	r1, r3, #30
 800b648:	bf58      	it	pl
 800b64a:	6962      	ldrpl	r2, [r4, #20]
 800b64c:	60a2      	str	r2, [r4, #8]
 800b64e:	e7f4      	b.n	800b63a <__swsetup_r+0x8e>
 800b650:	2000      	movs	r0, #0
 800b652:	e7f7      	b.n	800b644 <__swsetup_r+0x98>
 800b654:	200001c0 	.word	0x200001c0

0800b658 <_raise_r>:
 800b658:	291f      	cmp	r1, #31
 800b65a:	b538      	push	{r3, r4, r5, lr}
 800b65c:	4605      	mov	r5, r0
 800b65e:	460c      	mov	r4, r1
 800b660:	d904      	bls.n	800b66c <_raise_r+0x14>
 800b662:	2316      	movs	r3, #22
 800b664:	6003      	str	r3, [r0, #0]
 800b666:	f04f 30ff 	mov.w	r0, #4294967295
 800b66a:	bd38      	pop	{r3, r4, r5, pc}
 800b66c:	6bc2      	ldr	r2, [r0, #60]	@ 0x3c
 800b66e:	b112      	cbz	r2, 800b676 <_raise_r+0x1e>
 800b670:	f852 3021 	ldr.w	r3, [r2, r1, lsl #2]
 800b674:	b94b      	cbnz	r3, 800b68a <_raise_r+0x32>
 800b676:	4628      	mov	r0, r5
 800b678:	f000 f830 	bl	800b6dc <_getpid_r>
 800b67c:	4622      	mov	r2, r4
 800b67e:	4601      	mov	r1, r0
 800b680:	4628      	mov	r0, r5
 800b682:	e8bd 4038 	ldmia.w	sp!, {r3, r4, r5, lr}
 800b686:	f000 b817 	b.w	800b6b8 <_kill_r>
 800b68a:	2b01      	cmp	r3, #1
 800b68c:	d00a      	beq.n	800b6a4 <_raise_r+0x4c>
 800b68e:	1c59      	adds	r1, r3, #1
 800b690:	d103      	bne.n	800b69a <_raise_r+0x42>
 800b692:	2316      	movs	r3, #22
 800b694:	6003      	str	r3, [r0, #0]
 800b696:	2001      	movs	r0, #1
 800b698:	e7e7      	b.n	800b66a <_raise_r+0x12>
 800b69a:	2100      	movs	r1, #0
 800b69c:	f842 1024 	str.w	r1, [r2, r4, lsl #2]
 800b6a0:	4620      	mov	r0, r4
 800b6a2:	4798      	blx	r3
 800b6a4:	2000      	movs	r0, #0
 800b6a6:	e7e0      	b.n	800b66a <_raise_r+0x12>

0800b6a8 <raise>:
 800b6a8:	4b02      	ldr	r3, [pc, #8]	@ (800b6b4 <raise+0xc>)
 800b6aa:	4601      	mov	r1, r0
 800b6ac:	6818      	ldr	r0, [r3, #0]
 800b6ae:	f7ff bfd3 	b.w	800b658 <_raise_r>
 800b6b2:	bf00      	nop
 800b6b4:	200001c0 	.word	0x200001c0

0800b6b8 <_kill_r>:
 800b6b8:	b538      	push	{r3, r4, r5, lr}
 800b6ba:	4d07      	ldr	r5, [pc, #28]	@ (800b6d8 <_kill_r+0x20>)
 800b6bc:	2300      	movs	r3, #0
 800b6be:	4604      	mov	r4, r0
 800b6c0:	4608      	mov	r0, r1
 800b6c2:	4611      	mov	r1, r2
 800b6c4:	602b      	str	r3, [r5, #0]
 800b6c6:	f7f6 f94f 	bl	8001968 <_kill>
 800b6ca:	1c43      	adds	r3, r0, #1
 800b6cc:	d102      	bne.n	800b6d4 <_kill_r+0x1c>
 800b6ce:	682b      	ldr	r3, [r5, #0]
 800b6d0:	b103      	cbz	r3, 800b6d4 <_kill_r+0x1c>
 800b6d2:	6023      	str	r3, [r4, #0]
 800b6d4:	bd38      	pop	{r3, r4, r5, pc}
 800b6d6:	bf00      	nop
 800b6d8:	200008b0 	.word	0x200008b0

0800b6dc <_getpid_r>:
 800b6dc:	f7f6 b942 	b.w	8001964 <_getpid>

0800b6e0 <__swhatbuf_r>:
 800b6e0:	b570      	push	{r4, r5, r6, lr}
 800b6e2:	460c      	mov	r4, r1
 800b6e4:	f9b1 100e 	ldrsh.w	r1, [r1, #14]
 800b6e8:	2900      	cmp	r1, #0
 800b6ea:	b096      	sub	sp, #88	@ 0x58
 800b6ec:	4615      	mov	r5, r2
 800b6ee:	461e      	mov	r6, r3
 800b6f0:	da0d      	bge.n	800b70e <__swhatbuf_r+0x2e>
 800b6f2:	89a3      	ldrh	r3, [r4, #12]
 800b6f4:	f013 0f80 	tst.w	r3, #128	@ 0x80
 800b6f8:	f04f 0100 	mov.w	r1, #0
 800b6fc:	bf14      	ite	ne
 800b6fe:	2340      	movne	r3, #64	@ 0x40
 800b700:	f44f 6380 	moveq.w	r3, #1024	@ 0x400
 800b704:	2000      	movs	r0, #0
 800b706:	6031      	str	r1, [r6, #0]
 800b708:	602b      	str	r3, [r5, #0]
 800b70a:	b016      	add	sp, #88	@ 0x58
 800b70c:	bd70      	pop	{r4, r5, r6, pc}
 800b70e:	466a      	mov	r2, sp
 800b710:	f000 f848 	bl	800b7a4 <_fstat_r>
 800b714:	2800      	cmp	r0, #0
 800b716:	dbec      	blt.n	800b6f2 <__swhatbuf_r+0x12>
 800b718:	9901      	ldr	r1, [sp, #4]
 800b71a:	f401 4170 	and.w	r1, r1, #61440	@ 0xf000
 800b71e:	f5a1 5300 	sub.w	r3, r1, #8192	@ 0x2000
 800b722:	4259      	negs	r1, r3
 800b724:	4159      	adcs	r1, r3
 800b726:	f44f 6380 	mov.w	r3, #1024	@ 0x400
 800b72a:	e7eb      	b.n	800b704 <__swhatbuf_r+0x24>

0800b72c <__smakebuf_r>:
 800b72c:	898b      	ldrh	r3, [r1, #12]
 800b72e:	b5f7      	push	{r0, r1, r2, r4, r5, r6, r7, lr}
 800b730:	079d      	lsls	r5, r3, #30
 800b732:	4606      	mov	r6, r0
 800b734:	460c      	mov	r4, r1
 800b736:	d507      	bpl.n	800b748 <__smakebuf_r+0x1c>
 800b738:	f104 0347 	add.w	r3, r4, #71	@ 0x47
 800b73c:	6023      	str	r3, [r4, #0]
 800b73e:	6123      	str	r3, [r4, #16]
 800b740:	2301      	movs	r3, #1
 800b742:	6163      	str	r3, [r4, #20]
 800b744:	b003      	add	sp, #12
 800b746:	bdf0      	pop	{r4, r5, r6, r7, pc}
 800b748:	ab01      	add	r3, sp, #4
 800b74a:	466a      	mov	r2, sp
 800b74c:	f7ff ffc8 	bl	800b6e0 <__swhatbuf_r>
 800b750:	9f00      	ldr	r7, [sp, #0]
 800b752:	4605      	mov	r5, r0
 800b754:	4639      	mov	r1, r7
 800b756:	4630      	mov	r0, r6
 800b758:	f7fe fc2c 	bl	8009fb4 <_malloc_r>
 800b75c:	b948      	cbnz	r0, 800b772 <__smakebuf_r+0x46>
 800b75e:	f9b4 300c 	ldrsh.w	r3, [r4, #12]
 800b762:	059a      	lsls	r2, r3, #22
 800b764:	d4ee      	bmi.n	800b744 <__smakebuf_r+0x18>
 800b766:	f023 0303 	bic.w	r3, r3, #3
 800b76a:	f043 0302 	orr.w	r3, r3, #2
 800b76e:	81a3      	strh	r3, [r4, #12]
 800b770:	e7e2      	b.n	800b738 <__smakebuf_r+0xc>
 800b772:	89a3      	ldrh	r3, [r4, #12]
 800b774:	6020      	str	r0, [r4, #0]
 800b776:	f043 0380 	orr.w	r3, r3, #128	@ 0x80
 800b77a:	81a3      	strh	r3, [r4, #12]
 800b77c:	9b01      	ldr	r3, [sp, #4]
 800b77e:	e9c4 0704 	strd	r0, r7, [r4, #16]
 800b782:	b15b      	cbz	r3, 800b79c <__smakebuf_r+0x70>
 800b784:	f9b4 100e 	ldrsh.w	r1, [r4, #14]
 800b788:	4630      	mov	r0, r6
 800b78a:	f000 f81d 	bl	800b7c8 <_isatty_r>
 800b78e:	b128      	cbz	r0, 800b79c <__smakebuf_r+0x70>
 800b790:	89a3      	ldrh	r3, [r4, #12]
 800b792:	f023 0303 	bic.w	r3, r3, #3
 800b796:	f043 0301 	orr.w	r3, r3, #1
 800b79a:	81a3      	strh	r3, [r4, #12]
 800b79c:	89a3      	ldrh	r3, [r4, #12]
 800b79e:	431d      	orrs	r5, r3
 800b7a0:	81a5      	strh	r5, [r4, #12]
 800b7a2:	e7cf      	b.n	800b744 <__smakebuf_r+0x18>

0800b7a4 <_fstat_r>:
 800b7a4:	b538      	push	{r3, r4, r5, lr}
 800b7a6:	4d07      	ldr	r5, [pc, #28]	@ (800b7c4 <_fstat_r+0x20>)
 800b7a8:	2300      	movs	r3, #0
 800b7aa:	4604      	mov	r4, r0
 800b7ac:	4608      	mov	r0, r1
 800b7ae:	4611      	mov	r1, r2
 800b7b0:	602b      	str	r3, [r5, #0]
 800b7b2:	f7f6 f906 	bl	80019c2 <_fstat>
 800b7b6:	1c43      	adds	r3, r0, #1
 800b7b8:	d102      	bne.n	800b7c0 <_fstat_r+0x1c>
 800b7ba:	682b      	ldr	r3, [r5, #0]
 800b7bc:	b103      	cbz	r3, 800b7c0 <_fstat_r+0x1c>
 800b7be:	6023      	str	r3, [r4, #0]
 800b7c0:	bd38      	pop	{r3, r4, r5, pc}
 800b7c2:	bf00      	nop
 800b7c4:	200008b0 	.word	0x200008b0

0800b7c8 <_isatty_r>:
 800b7c8:	b538      	push	{r3, r4, r5, lr}
 800b7ca:	4d06      	ldr	r5, [pc, #24]	@ (800b7e4 <_isatty_r+0x1c>)
 800b7cc:	2300      	movs	r3, #0
 800b7ce:	4604      	mov	r4, r0
 800b7d0:	4608      	mov	r0, r1
 800b7d2:	602b      	str	r3, [r5, #0]
 800b7d4:	f7f6 f8fa 	bl	80019cc <_isatty>
 800b7d8:	1c43      	adds	r3, r0, #1
 800b7da:	d102      	bne.n	800b7e2 <_isatty_r+0x1a>
 800b7dc:	682b      	ldr	r3, [r5, #0]
 800b7de:	b103      	cbz	r3, 800b7e2 <_isatty_r+0x1a>
 800b7e0:	6023      	str	r3, [r4, #0]
 800b7e2:	bd38      	pop	{r3, r4, r5, pc}
 800b7e4:	200008b0 	.word	0x200008b0

0800b7e8 <_init>:
 800b7e8:	b5f8      	push	{r3, r4, r5, r6, r7, lr}
 800b7ea:	bf00      	nop
 800b7ec:	bcf8      	pop	{r3, r4, r5, r6, r7}
 800b7ee:	bc08      	pop	{r3}
 800b7f0:	469e      	mov	lr, r3
 800b7f2:	4770      	bx	lr

0800b7f4 <_fini>:
 800b7f4:	b5f8      	push	{r3, r4, r5, r6, r7, lr}
 800b7f6:	bf00      	nop
 800b7f8:	bcf8      	pop	{r3, r4, r5, r6, r7}
 800b7fa:	bc08      	pop	{r3}
 800b7fc:	469e      	mov	lr, r3
 800b7fe:	4770      	bx	lr
